; Listing generated by Microsoft (R) Optimizing Compiler Version 19.31.31104.0 

include listing.inc

INCLUDELIB MSVCRTD
INCLUDELIB OLDNAMES

msvcjmc	SEGMENT
__F32AA0BD_concurrencysal@h DB 01H
__5A3A63C4_sal@h DB 01H
__6BEC7B3D_vadefs@h DB 01H
__1BC54112_vcruntime@h DB 01H
__FF18040F_xkeycheck@h DB 01H
__3779B844_yvals_core@h DB 01H
__AD973B64_limits@h DB 01H
__62B17962_climits DB 01H
__6569C2CA_corecrt@h DB 01H
__EDB62062_vcruntime_new@h DB 01H
__5858FF13_vcruntime_new_debug@h DB 01H
__49916C16_crtdbg@h DB 01H
__41ABBF80_crtdefs@h DB 01H
__F1399E15_use_ansi@h DB 01H
__501EED2F_yvals@h DB 01H
__741AE07E_corecrt_math@h DB 01H
__91D68F2D_math@h DB 01H
__6C20D4D3_corecrt_malloc@h DB 01H
__C9393812_stddef@h DB 01H
__D493B9BD_corecrt_search@h DB 01H
__1473E23E_corecrt_wstdlib@h DB 01H
__B49664B7_stdlib@h DB 01H
__E65E5B90_cstdlib DB 01H
__0A37AC5C_xtr1common DB 01H
__D986D001_intrin0@inl@h DB 01H
__5886068B_intrin0@h DB 01H
__CDDAF8CA_errno@h DB 01H
__4041E9ED_vcruntime_string@h DB 01H
__1FEB9909_corecrt_memcpy_s@h DB 01H
__A751F051_corecrt_memory@h DB 01H
__9200769A_corecrt_wstring@h DB 01H
__32E5F013_string@h DB 01H
__AACCF370_cstring DB 01H
__13E1155B_stdint@h DB 01H
__5B00BAED_cstdint DB 01H
__4395813D_cstddef DB 01H
__E9ECD68E_initializer_list DB 01H
__264C4909_xstddef DB 01H
__B1B1C2C4_type_traits DB 01H
__FB91846C_concepts DB 01H
__93CAE39E_isa_availability@h DB 01H
__158E8E48_float@h DB 01H
__DA570BDA_cfloat DB 01H
__A2143F22_corecrt_stdio_config@h DB 01H
__829E1958_corecrt_wstdio@h DB 01H
__6DFAE8B8_stdio@h DB 01H
__A913C05D_cstdio DB 01H
__C6E16F6F_corecrt_wconio@h DB 01H
__5DB64B66_corecrt_wctype@h DB 01H
__CB8D9B53_corecrt_wdirect@h DB 01H
__A9063C41_corecrt_share@h DB 01H
__6D390390_corecrt_wio@h DB 01H
__61BDDCD5_corecrt_wprocess@h DB 01H
__1157D6BA_corecrt_wtime@h DB 01H
__64F617E8_types@h DB 01H
__1DC1E279_stat@h DB 01H
__93DC0B45_wchar@h DB 01H
__3398160E_cwchar DB 01H
__BCB146BE_limits DB 01H
__CF889091_bit DB 01H
__1F4B6121_compare DB 01H
__D153DE1B_utility DB 01H
__7F396DA6_xutility DB 01H
__38806D73_cmath DB 01H
__70589338_iosfwd DB 01H
__6E95DAE6_iterator DB 01H
__5B81F060_share@h DB 01H
__4926392B___msvc_system_error_abi@hpp DB 01H
__3432B4A6_cerrno DB 01H
__20BB4341_malloc@h DB 01H
__3C5D8049_corecrt_terminate@h DB 01H
__18EF2578_eh@h DB 01H
__50B6FA41_vcruntime_exception@h DB 01H
__89F4D116_exception DB 01H
__F32E7743_new DB 01H
__83F85DC0_xatomic@h DB 01H
__9EA37432_tuple DB 01H
__BBC6BDD8_xmemory DB 01H
__2816B9ED_xpolymorphic_allocator@h DB 01H
__CF153B44_xstring DB 01H
__00BAEB4B_stdexcept DB 01H
__74E16614_xcall_once@h DB 01H
__F88BF820_xerrc@h DB 01H
__3A7E7B2B_xatomic_wait@h DB 01H
__A0B61CF9_time@h DB 01H
__FE33F17B_ctime DB 01H
__C9FD8EE7_xtimec@h DB 01H
__9077A9A6_xthreads@h DB 01H
__D7841A7C_atomic DB 01H
__CBBC7434_system_error DB 01H
__A784D2C3_vcruntime_typeinfo@h DB 01H
__0FE69EBF_typeinfo DB 01H
__001F4A30_memory DB 01H
__2C5A1D3F_xfacet DB 01H
__61AD4BC5___msvc_xlocinfo_types@hpp DB 01H
__B2D2BA86_ctype@h DB 01H
__A6D827FA_cctype DB 01H
__A3D09DBA_locale@h DB 01H
__75F28741_clocale DB 01H
__106F7D77_xlocinfo DB 01H
__102B4F75_xlocale DB 01H
__298A0A64_xiosbase DB 01H
__021A53F7_streambuf DB 01H
__8EAC2962_xlocnum DB 01H
__0BE34D55_ios DB 01H
__033B95B1_ostream DB 01H
__60EBA08B_istream DB 01H
__1D4017B9_iostream DB 01H
__F11C365E_vector DB 01H
__56798F9D_Array@h DB 01H
__CFFB1BB6_Vector@h DB 01H
__4B95E802_Vector@cpp DB 01H
msvcjmc	ENDS
PUBLIC	?__empty_global_delete@@YAXPEAX@Z		; __empty_global_delete
PUBLIC	?__empty_global_delete@@YAXPEAX_K@Z		; __empty_global_delete
PUBLIC	?__empty_global_delete@@YAXPEAXW4align_val_t@std@@@Z ; __empty_global_delete
PUBLIC	?__empty_global_delete@@YAXPEAX_KW4align_val_t@std@@@Z ; __empty_global_delete
PUBLIC	??2@YAPEAX_KPEAX@Z				; operator new
PUBLIC	?is_constant_evaluated@std@@YA_NXZ		; std::is_constant_evaluated
PUBLIC	?max@?$numeric_limits@_J@std@@SA_JXZ		; std::numeric_limits<__int64>::max
PUBLIC	??0exception@std@@QEAA@QEBDH@Z			; std::exception::exception
PUBLIC	??0exception@std@@QEAA@AEBV01@@Z		; std::exception::exception
PUBLIC	??1exception@std@@UEAA@XZ			; std::exception::~exception
PUBLIC	?what@exception@std@@UEBAPEBDXZ			; std::exception::what
PUBLIC	??_Gexception@std@@UEAAPEAXI@Z			; std::exception::`scalar deleting destructor'
PUBLIC	??0bad_alloc@std@@AEAA@QEBD@Z			; std::bad_alloc::bad_alloc
PUBLIC	??1bad_alloc@std@@UEAA@XZ			; std::bad_alloc::~bad_alloc
PUBLIC	??0bad_alloc@std@@QEAA@AEBV01@@Z		; std::bad_alloc::bad_alloc
PUBLIC	??_Gbad_alloc@std@@UEAAPEAXI@Z			; std::bad_alloc::`scalar deleting destructor'
PUBLIC	??0bad_array_new_length@std@@QEAA@XZ		; std::bad_array_new_length::bad_array_new_length
PUBLIC	??1bad_array_new_length@std@@UEAA@XZ		; std::bad_array_new_length::~bad_array_new_length
PUBLIC	??0bad_array_new_length@std@@QEAA@AEBV01@@Z	; std::bad_array_new_length::bad_array_new_length
PUBLIC	??_Gbad_array_new_length@std@@UEAAPEAXI@Z	; std::bad_array_new_length::`scalar deleting destructor'
PUBLIC	?_Throw_bad_array_new_length@std@@YAXXZ		; std::_Throw_bad_array_new_length
PUBLIC	?_Allocate@_Default_allocate_traits@std@@SAPEAX_K@Z ; std::_Default_allocate_traits::_Allocate
PUBLIC	?_Adjust_manually_vector_aligned@std@@YAXAEAPEAXAEA_K@Z ; std::_Adjust_manually_vector_aligned
PUBLIC	??0_Container_proxy@std@@QEAA@PEAU_Container_base12@1@@Z ; std::_Container_proxy::_Container_proxy
PUBLIC	??0_Container_base12@std@@QEAA@XZ		; std::_Container_base12::_Container_base12
PUBLIC	?_Orphan_all@_Container_base12@std@@QEAAXXZ	; std::_Container_base12::_Orphan_all
PUBLIC	?_Orphan_all_unlocked_v3@_Container_base12@std@@AEAAXXZ ; std::_Container_base12::_Orphan_all_unlocked_v3
PUBLIC	?_Orphan_all_locked_v3@_Container_base12@std@@AEAAXXZ ; std::_Container_base12::_Orphan_all_locked_v3
PUBLIC	?_Release@_Basic_container_proxy_ptr12@std@@QEAAXXZ ; std::_Basic_container_proxy_ptr12::_Release
PUBLIC	??0_Basic_container_proxy_ptr12@std@@IEAA@XZ	; std::_Basic_container_proxy_ptr12::_Basic_container_proxy_ptr12
PUBLIC	??$addressof@U_Container_base12@std@@@std@@YAPEAU_Container_base12@0@AEAU10@@Z ; std::addressof<std::_Container_base12>
PUBLIC	??$_Construct_in_place@U_Container_proxy@std@@PEAU_Container_base12@2@@std@@YAXAEAU_Container_proxy@0@$$QEAPEAU_Container_base12@0@@Z ; std::_Construct_in_place<std::_Container_proxy,std::_Container_base12 *>
PUBLIC	?copy@?$_Char_traits@DH@std@@SAPEADQEADQEBD_K@Z	; std::_Char_traits<char,int>::copy
PUBLIC	?move@?$_Char_traits@DH@std@@SAPEADQEADQEBD_K@Z	; std::_Char_traits<char,int>::move
PUBLIC	?assign@?$_Char_traits@DH@std@@SAPEADQEAD_KD@Z	; std::_Char_traits<char,int>::assign
PUBLIC	?length@?$_Narrow_char_traits@DH@std@@SA_KQEBD@Z ; std::_Narrow_char_traits<char,int>::length
PUBLIC	?assign@?$_Narrow_char_traits@DH@std@@SAPEADQEAD_KD@Z ; std::_Narrow_char_traits<char,int>::assign
PUBLIC	?assign@?$_Narrow_char_traits@DH@std@@SAXAEADAEBD@Z ; std::_Narrow_char_traits<char,int>::assign
PUBLIC	?eq_int_type@?$_Narrow_char_traits@DH@std@@SA_NAEBH0@Z ; std::_Narrow_char_traits<char,int>::eq_int_type
PUBLIC	?eof@?$_Narrow_char_traits@DH@std@@SAHXZ	; std::_Narrow_char_traits<char,int>::eof
PUBLIC	?_Xlen_string@std@@YAXXZ			; std::_Xlen_string
PUBLIC	??0?$allocator@D@std@@QEAA@XZ			; std::allocator<char>::allocator<char>
PUBLIC	?deallocate@?$allocator@D@std@@QEAAXQEAD_K@Z	; std::allocator<char>::deallocate
PUBLIC	?allocate@?$allocator@D@std@@QEAAPEAD_K@Z	; std::allocator<char>::allocate
PUBLIC	?max_size@?$_Default_allocator_traits@V?$allocator@D@std@@@std@@SA_KAEBV?$allocator@D@2@@Z ; std::_Default_allocator_traits<std::allocator<char> >::max_size
PUBLIC	??0?$_String_val@U?$_Simple_types@D@std@@@std@@QEAA@XZ ; std::_String_val<std::_Simple_types<char> >::_String_val<std::_Simple_types<char> >
PUBLIC	?_Myptr@?$_String_val@U?$_Simple_types@D@std@@@std@@QEAAPEADXZ ; std::_String_val<std::_Simple_types<char> >::_Myptr
PUBLIC	?_Myptr@?$_String_val@U?$_Simple_types@D@std@@@std@@QEBAPEBDXZ ; std::_String_val<std::_Simple_types<char> >::_Myptr
PUBLIC	?_Large_string_engaged@?$_String_val@U?$_Simple_types@D@std@@@std@@QEBA_NXZ ; std::_String_val<std::_Simple_types<char> >::_Large_string_engaged
PUBLIC	??0_Bxty@?$_String_val@U?$_Simple_types@D@std@@@std@@QEAA@XZ ; std::_String_val<std::_Simple_types<char> >::_Bxty::_Bxty
PUBLIC	??1_Bxty@?$_String_val@U?$_Simple_types@D@std@@@std@@QEAA@XZ ; std::_String_val<std::_Simple_types<char> >::_Bxty::~_Bxty
PUBLIC	??1?$_String_val@U?$_Simple_types@D@std@@@std@@QEAA@XZ ; std::_String_val<std::_Simple_types<char> >::~_String_val<std::_Simple_types<char> >
PUBLIC	??0?$basic_string@DU?$char_traits@D@std@@V?$allocator@D@2@@std@@QEAA@XZ ; std::basic_string<char,std::char_traits<char>,std::allocator<char> >::basic_string<char,std::char_traits<char>,std::allocator<char> >
PUBLIC	??0?$basic_string@DU?$char_traits@D@std@@V?$allocator@D@2@@std@@QEAA@QEBD@Z ; std::basic_string<char,std::char_traits<char>,std::allocator<char> >::basic_string<char,std::char_traits<char>,std::allocator<char> >
PUBLIC	??1?$basic_string@DU?$char_traits@D@std@@V?$allocator@D@2@@std@@QEAA@XZ ; std::basic_string<char,std::char_traits<char>,std::allocator<char> >::~basic_string<char,std::char_traits<char>,std::allocator<char> >
PUBLIC	??4?$basic_string@DU?$char_traits@D@std@@V?$allocator@D@2@@std@@QEAAAEAV01@AEBV01@@Z ; std::basic_string<char,std::char_traits<char>,std::allocator<char> >::operator=
PUBLIC	??4?$basic_string@DU?$char_traits@D@std@@V?$allocator@D@2@@std@@QEAAAEAV01@QEBD@Z ; std::basic_string<char,std::char_traits<char>,std::allocator<char> >::operator=
PUBLIC	?assign@?$basic_string@DU?$char_traits@D@std@@V?$allocator@D@2@@std@@QEAAAEAV12@QEBD_K@Z ; std::basic_string<char,std::char_traits<char>,std::allocator<char> >::assign
PUBLIC	?assign@?$basic_string@DU?$char_traits@D@std@@V?$allocator@D@2@@std@@QEAAAEAV12@QEBD@Z ; std::basic_string<char,std::char_traits<char>,std::allocator<char> >::assign
PUBLIC	?data@?$basic_string@DU?$char_traits@D@std@@V?$allocator@D@2@@std@@QEBAPEBDXZ ; std::basic_string<char,std::char_traits<char>,std::allocator<char> >::data
PUBLIC	?size@?$basic_string@DU?$char_traits@D@std@@V?$allocator@D@2@@std@@QEBA_KXZ ; std::basic_string<char,std::char_traits<char>,std::allocator<char> >::size
PUBLIC	?max_size@?$basic_string@DU?$char_traits@D@std@@V?$allocator@D@2@@std@@QEBA_KXZ ; std::basic_string<char,std::char_traits<char>,std::allocator<char> >::max_size
PUBLIC	?_Calculate_growth@?$basic_string@DU?$char_traits@D@std@@V?$allocator@D@2@@std@@CA_K_K00@Z ; std::basic_string<char,std::char_traits<char>,std::allocator<char> >::_Calculate_growth
PUBLIC	?_Calculate_growth@?$basic_string@DU?$char_traits@D@std@@V?$allocator@D@2@@std@@AEBA_K_K@Z ; std::basic_string<char,std::char_traits<char>,std::allocator<char> >::_Calculate_growth
PUBLIC	?_Tidy_init@?$basic_string@DU?$char_traits@D@std@@V?$allocator@D@2@@std@@AEAAXXZ ; std::basic_string<char,std::char_traits<char>,std::allocator<char> >::_Tidy_init
PUBLIC	?_Tidy_deallocate@?$basic_string@DU?$char_traits@D@std@@V?$allocator@D@2@@std@@AEAAXXZ ; std::basic_string<char,std::char_traits<char>,std::allocator<char> >::_Tidy_deallocate
PUBLIC	?_Getal@?$basic_string@DU?$char_traits@D@std@@V?$allocator@D@2@@std@@AEAAAEAV?$allocator@D@2@XZ ; std::basic_string<char,std::char_traits<char>,std::allocator<char> >::_Getal
PUBLIC	?_Getal@?$basic_string@DU?$char_traits@D@std@@V?$allocator@D@2@@std@@AEBAAEBV?$allocator@D@2@XZ ; std::basic_string<char,std::char_traits<char>,std::allocator<char> >::_Getal
PUBLIC	?_Get_first@?$_Compressed_pair@V?$allocator@D@std@@V?$_String_val@U?$_Simple_types@D@std@@@2@$00@std@@QEAAAEAV?$allocator@D@2@XZ ; std::_Compressed_pair<std::allocator<char>,std::_String_val<std::_Simple_types<char> >,1>::_Get_first
PUBLIC	?_Get_first@?$_Compressed_pair@V?$allocator@D@std@@V?$_String_val@U?$_Simple_types@D@std@@@2@$00@std@@QEBAAEBV?$allocator@D@2@XZ ; std::_Compressed_pair<std::allocator<char>,std::_String_val<std::_Simple_types<char> >,1>::_Get_first
PUBLIC	??1?$_Compressed_pair@V?$allocator@D@std@@V?$_String_val@U?$_Simple_types@D@std@@@2@$00@std@@QEAA@XZ ; std::_Compressed_pair<std::allocator<char>,std::_String_val<std::_Simple_types<char> >,1>::~_Compressed_pair<std::allocator<char>,std::_String_val<std::_Simple_types<char> >,1>
PUBLIC	??_E?$basic_string@DU?$char_traits@D@std@@V?$allocator@D@2@@std@@QEAAPEAXI@Z ; std::basic_string<char,std::char_traits<char>,std::allocator<char> >::`vector deleting destructor'
PUBLIC	??$?6U?$char_traits@D@std@@@std@@YAAEAV?$basic_ostream@DU?$char_traits@D@std@@@0@AEAV10@PEBD@Z ; std::operator<<<std::char_traits<char> >
PUBLIC	main
PUBLIC	??$endl@DU?$char_traits@D@std@@@std@@YAAEAV?$basic_ostream@DU?$char_traits@D@std@@@0@AEAV10@@Z ; std::endl<char,std::char_traits<char> >
PUBLIC	??0?$allocator@H@std@@QEAA@XZ			; std::allocator<int>::allocator<int>
PUBLIC	?deallocate@?$allocator@H@std@@QEAAXQEAH_K@Z	; std::allocator<int>::deallocate
PUBLIC	?allocate@?$allocator@H@std@@QEAAPEAH_K@Z	; std::allocator<int>::allocate
PUBLIC	?max_size@?$_Default_allocator_traits@V?$allocator@H@std@@@std@@SA_KAEBV?$allocator@H@2@@Z ; std::_Default_allocator_traits<std::allocator<int> >::max_size
PUBLIC	??0?$vector@HV?$allocator@H@std@@@std@@QEAA@XZ	; std::vector<int,std::allocator<int> >::vector<int,std::allocator<int> >
PUBLIC	??1?$vector@HV?$allocator@H@std@@@std@@QEAA@XZ	; std::vector<int,std::allocator<int> >::~vector<int,std::allocator<int> >
PUBLIC	?push_back@?$vector@HV?$allocator@H@std@@@std@@QEAAX$$QEAH@Z ; std::vector<int,std::allocator<int> >::push_back
PUBLIC	?max_size@?$vector@HV?$allocator@H@std@@@std@@QEBA_KXZ ; std::vector<int,std::allocator<int> >::max_size
PUBLIC	?capacity@?$vector@HV?$allocator@H@std@@@std@@QEBA_KXZ ; std::vector<int,std::allocator<int> >::capacity
PUBLIC	??A?$vector@HV?$allocator@H@std@@@std@@QEAAAEAH_K@Z ; std::vector<int,std::allocator<int> >::operator[]
PUBLIC	?_Calculate_growth@?$vector@HV?$allocator@H@std@@@std@@AEBA_K_K@Z ; std::vector<int,std::allocator<int> >::_Calculate_growth
PUBLIC	?_Change_array@?$vector@HV?$allocator@H@std@@@std@@AEAAXQEAH_K1@Z ; std::vector<int,std::allocator<int> >::_Change_array
PUBLIC	?_Tidy@?$vector@HV?$allocator@H@std@@@std@@AEAAXXZ ; std::vector<int,std::allocator<int> >::_Tidy
PUBLIC	?_Xlength@?$vector@HV?$allocator@H@std@@@std@@CAXXZ ; std::vector<int,std::allocator<int> >::_Xlength
PUBLIC	?_Orphan_range_unlocked@?$vector@HV?$allocator@H@std@@@std@@AEBAXPEAH0@Z ; std::vector<int,std::allocator<int> >::_Orphan_range_unlocked
PUBLIC	?_Orphan_range_locked@?$vector@HV?$allocator@H@std@@@std@@AEBAXPEAH0@Z ; std::vector<int,std::allocator<int> >::_Orphan_range_locked
PUBLIC	?_Orphan_range@?$vector@HV?$allocator@H@std@@@std@@AEBAXPEAH0@Z ; std::vector<int,std::allocator<int> >::_Orphan_range
PUBLIC	?_Getal@?$vector@HV?$allocator@H@std@@@std@@AEAAAEAV?$allocator@H@2@XZ ; std::vector<int,std::allocator<int> >::_Getal
PUBLIC	?_Getal@?$vector@HV?$allocator@H@std@@@std@@AEBAAEBV?$allocator@H@2@XZ ; std::vector<int,std::allocator<int> >::_Getal
PUBLIC	??0?$_Vector_val@U?$_Simple_types@H@std@@@std@@QEAA@XZ ; std::_Vector_val<std::_Simple_types<int> >::_Vector_val<std::_Simple_types<int> >
PUBLIC	?_Get_first@?$_Compressed_pair@V?$allocator@H@std@@V?$_Vector_val@U?$_Simple_types@H@std@@@2@$00@std@@QEAAAEAV?$allocator@H@2@XZ ; std::_Compressed_pair<std::allocator<int>,std::_Vector_val<std::_Simple_types<int> >,1>::_Get_first
PUBLIC	?_Get_first@?$_Compressed_pair@V?$allocator@H@std@@V?$_Vector_val@U?$_Simple_types@H@std@@@2@$00@std@@QEBAAEBV?$allocator@H@2@XZ ; std::_Compressed_pair<std::allocator<int>,std::_Vector_val<std::_Simple_types<int> >,1>::_Get_first
PUBLIC	?__autoclassinit2@?$vector@HV?$allocator@H@std@@@std@@QEAAX_K@Z ; std::vector<int,std::allocator<int> >::__autoclassinit2
PUBLIC	??0?$Array@V?$basic_string@DU?$char_traits@D@std@@V?$allocator@D@2@@std@@$01@@QEAA@XZ ; Array<std::basic_string<char,std::char_traits<char>,std::allocator<char> >,2>::Array<std::basic_string<char,std::char_traits<char>,std::allocator<char> >,2>
PUBLIC	??A?$Array@V?$basic_string@DU?$char_traits@D@std@@V?$allocator@D@2@@std@@$01@@QEAAAEAV?$basic_string@DU?$char_traits@D@std@@V?$allocator@D@2@@std@@_K@Z ; Array<std::basic_string<char,std::char_traits<char>,std::allocator<char> >,2>::operator[]
PUBLIC	??1?$Array@V?$basic_string@DU?$char_traits@D@std@@V?$allocator@D@2@@std@@$01@@QEAA@XZ ; Array<std::basic_string<char,std::char_traits<char>,std::allocator<char> >,2>::~Array<std::basic_string<char,std::char_traits<char>,std::allocator<char> >,2>
PUBLIC	??$?6DU?$char_traits@D@std@@V?$allocator@D@1@@std@@YAAEAV?$basic_ostream@DU?$char_traits@D@std@@@0@AEAV10@AEBV?$basic_string@DU?$char_traits@D@std@@V?$allocator@D@2@@0@@Z ; std::operator<<<char,std::char_traits<char>,std::allocator<char> >
PUBLIC	??0?$Vector@V?$basic_string@DU?$char_traits@D@std@@V?$allocator@D@2@@std@@@@QEAA@XZ ; Vector<std::basic_string<char,std::char_traits<char>,std::allocator<char> > >::Vector<std::basic_string<char,std::char_traits<char>,std::allocator<char> > >
PUBLIC	?PushBack@?$Vector@V?$basic_string@DU?$char_traits@D@std@@V?$allocator@D@2@@std@@@@QEAAXAEBV?$basic_string@DU?$char_traits@D@std@@V?$allocator@D@2@@std@@@Z ; Vector<std::basic_string<char,std::char_traits<char>,std::allocator<char> > >::PushBack
PUBLIC	??A?$Vector@V?$basic_string@DU?$char_traits@D@std@@V?$allocator@D@2@@std@@@@QEBAAEBV?$basic_string@DU?$char_traits@D@std@@V?$allocator@D@2@@std@@_K@Z ; Vector<std::basic_string<char,std::char_traits<char>,std::allocator<char> > >::operator[]
PUBLIC	?Size@?$Vector@V?$basic_string@DU?$char_traits@D@std@@V?$allocator@D@2@@std@@@@QEBA_KXZ ; Vector<std::basic_string<char,std::char_traits<char>,std::allocator<char> > >::Size
PUBLIC	?ReAlloc@?$Vector@V?$basic_string@DU?$char_traits@D@std@@V?$allocator@D@2@@std@@@@AEAAX_K@Z ; Vector<std::basic_string<char,std::char_traits<char>,std::allocator<char> > >::ReAlloc
PUBLIC	?__autoclassinit2@?$Vector@V?$basic_string@DU?$char_traits@D@std@@V?$allocator@D@2@@std@@@@QEAAX_K@Z ; Vector<std::basic_string<char,std::char_traits<char>,std::allocator<char> > >::__autoclassinit2
PUBLIC	??$PrintVector@V?$basic_string@DU?$char_traits@D@std@@V?$allocator@D@2@@std@@@@YAXAEBV?$Vector@V?$basic_string@DU?$char_traits@D@std@@V?$allocator@D@2@@std@@@@@Z ; PrintVector<std::basic_string<char,std::char_traits<char>,std::allocator<char> > >
PUBLIC	??$move@AEAH@std@@YA$$QEAHAEAH@Z		; std::move<int &>
PUBLIC	??$emplace_back@H@?$vector@HV?$allocator@H@std@@@std@@QEAA?A_T$$QEAH@Z ; std::vector<int,std::allocator<int> >::emplace_back<int>
PUBLIC	??$forward@H@std@@YA$$QEAHAEAH@Z		; std::forward<int>
PUBLIC	??$_Emplace_back_with_unused_capacity@H@?$vector@HV?$allocator@H@std@@@std@@AEAA?A_T$$QEAH@Z ; std::vector<int,std::allocator<int> >::_Emplace_back_with_unused_capacity<int>
PUBLIC	??$_Unfancy@H@std@@YAPEAHPEAH@Z			; std::_Unfancy<int>
PUBLIC	??$construct@HH@?$_Default_allocator_traits@V?$allocator@H@std@@@std@@SAXAEAV?$allocator@H@1@QEAH$$QEAH@Z ; std::_Default_allocator_traits<std::allocator<int> >::construct<int,int>
PUBLIC	??$_Emplace_reallocate@H@?$vector@HV?$allocator@H@std@@@std@@QEAAPEAHQEAH$$QEAH@Z ; std::vector<int,std::allocator<int> >::_Emplace_reallocate<int>
PUBLIC	?deallocate@?$allocator@U_Container_proxy@std@@@std@@QEAAXQEAU_Container_proxy@2@_K@Z ; std::allocator<std::_Container_proxy>::deallocate
PUBLIC	?allocate@?$allocator@U_Container_proxy@std@@@std@@QEAAPEAU_Container_proxy@2@_K@Z ; std::allocator<std::_Container_proxy>::allocate
PUBLIC	??$?0H@?$allocator@U_Container_proxy@std@@@std@@QEAA@AEBV?$allocator@H@1@@Z ; std::allocator<std::_Container_proxy>::allocator<std::_Container_proxy><int>
PUBLIC	??$exchange@PEAU_Container_proxy@std@@$$T@std@@YAPEAU_Container_proxy@0@AEAPEAU10@$$QEA$$T@Z ; std::exchange<std::_Container_proxy *,std::nullptr_t>
PUBLIC	??$_Delete_plain_internal@V?$allocator@U_Container_proxy@std@@@std@@@std@@YAXAEAV?$allocator@U_Container_proxy@std@@@0@QEAU_Container_proxy@0@@Z ; std::_Delete_plain_internal<std::allocator<std::_Container_proxy> >
PUBLIC	??$?0$$V@?$_Compressed_pair@V?$allocator@H@std@@V?$_Vector_val@U?$_Simple_types@H@std@@@2@$00@std@@QEAA@U_Zero_then_variadic_args_t@1@@Z ; std::_Compressed_pair<std::allocator<int>,std::_Vector_val<std::_Simple_types<int> >,1>::_Compressed_pair<std::allocator<int>,std::_Vector_val<std::_Simple_types<int> >,1><>
PUBLIC	??$_Alloc_proxy@V?$allocator@U_Container_proxy@std@@@std@@@_Container_base12@std@@QEAAX$$QEAV?$allocator@U_Container_proxy@std@@@1@@Z ; std::_Container_base12::_Alloc_proxy<std::allocator<std::_Container_proxy> >
PUBLIC	??0_Sentry_base@?$basic_ostream@DU?$char_traits@D@std@@@std@@QEAA@AEAV12@@Z ; std::basic_ostream<char,std::char_traits<char> >::_Sentry_base::_Sentry_base
PUBLIC	??1_Sentry_base@?$basic_ostream@DU?$char_traits@D@std@@@std@@QEAA@XZ ; std::basic_ostream<char,std::char_traits<char> >::_Sentry_base::~_Sentry_base
PUBLIC	??0sentry@?$basic_ostream@DU?$char_traits@D@std@@@std@@QEAA@AEAV12@@Z ; std::basic_ostream<char,std::char_traits<char> >::sentry::sentry
PUBLIC	??1sentry@?$basic_ostream@DU?$char_traits@D@std@@@std@@QEAA@XZ ; std::basic_ostream<char,std::char_traits<char> >::sentry::~sentry
PUBLIC	??Bsentry@?$basic_ostream@DU?$char_traits@D@std@@@std@@QEBA_NXZ ; std::basic_ostream<char,std::char_traits<char> >::sentry::operator bool
PUBLIC	??$min@_K@std@@YAAEB_KAEB_K0@Z			; std::min<unsigned __int64>
PUBLIC	??0?$_Container_proxy_ptr12@V?$allocator@U_Container_proxy@std@@@std@@@std@@QEAA@AEAV?$allocator@U_Container_proxy@std@@@1@AEAU_Container_base12@1@@Z ; std::_Container_proxy_ptr12<std::allocator<std::_Container_proxy> >::_Container_proxy_ptr12<std::allocator<std::_Container_proxy> >
PUBLIC	??1?$_Container_proxy_ptr12@V?$allocator@U_Container_proxy@std@@@std@@@std@@QEAA@XZ ; std::_Container_proxy_ptr12<std::allocator<std::_Container_proxy> >::~_Container_proxy_ptr12<std::allocator<std::_Container_proxy> >
PUBLIC	??$_Convert_size@_K@std@@YA_K_K@Z		; std::_Convert_size<unsigned __int64>
PUBLIC	??$?0D@?$allocator@U_Container_proxy@std@@@std@@QEAA@AEBV?$allocator@D@1@@Z ; std::allocator<std::_Container_proxy>::allocator<std::_Container_proxy><char>
PUBLIC	??$?0$$V@?$_Compressed_pair@V?$allocator@D@std@@V?$_String_val@U?$_Simple_types@D@std@@@2@$00@std@@QEAA@U_Zero_then_variadic_args_t@1@@Z ; std::_Compressed_pair<std::allocator<char>,std::_String_val<std::_Simple_types<char> >,1>::_Compressed_pair<std::allocator<char>,std::_String_val<std::_Simple_types<char> >,1><>
PUBLIC	??$_Unfancy@U_Container_proxy@std@@@std@@YAPEAU_Container_proxy@0@PEAU10@@Z ; std::_Unfancy<std::_Container_proxy>
PUBLIC	??$_Destroy_range@V?$allocator@H@std@@@std@@YAXPEAHQEAHAEAV?$allocator@H@0@@Z ; std::_Destroy_range<std::allocator<int> >
PUBLIC	??$_Destroy_in_place@PEAD@std@@YAXAEAPEAD@Z	; std::_Destroy_in_place<char *>
PUBLIC	??$_Unfancy@D@std@@YAPEADPEAD@Z			; std::_Unfancy<char>
PUBLIC	??R<lambda_1>@?1??assign@?$basic_string@DU?$char_traits@D@std@@V?$allocator@D@2@@std@@QEAAAEAV23@QEBD_K@Z@QEBA@QEAD10@Z ; `std::basic_string<char,std::char_traits<char>,std::allocator<char> >::assign'::`2'::<lambda_1>::operator()
PUBLIC	??$_Reallocate_for@V<lambda_1>@?1??assign@?$basic_string@DU?$char_traits@D@std@@V?$allocator@D@2@@std@@QEAAAEAV34@QEBD_K@Z@PEBD@?$basic_string@DU?$char_traits@D@std@@V?$allocator@D@2@@std@@AEAAAEAV01@_KV<lambda_1>@?1??assign@01@QEAAAEAV01@QEBD0@Z@PEBD@Z ; std::basic_string<char,std::char_traits<char>,std::allocator<char> >::_Reallocate_for<`std::basic_string<char,std::char_traits<char>,std::allocator<char> >::assign'::`2'::<lambda_1>,char const *>
PUBLIC	??$addressof@$$CBV?$basic_string@DU?$char_traits@D@std@@V?$allocator@D@2@@std@@@std@@YAPEBV?$basic_string@DU?$char_traits@D@std@@V?$allocator@D@2@@0@AEBV10@@Z ; std::addressof<std::basic_string<char,std::char_traits<char>,std::allocator<char> > const >
PUBLIC	??$_Pocca@V?$allocator@D@std@@@std@@YAXAEAV?$allocator@D@0@AEBV10@@Z ; std::_Pocca<std::allocator<char> >
PUBLIC	??$_Construct_in_place@PEADAEBQEAD@std@@YAXAEAPEADAEBQEAD@Z ; std::_Construct_in_place<char *,char * const &>
PUBLIC	??$max@_K@std@@YAAEB_KAEB_K0@Z			; std::max<unsigned __int64>
PUBLIC	??$_Get_size_of_n@$0BA@@std@@YA_K_K@Z		; std::_Get_size_of_n<16>
PUBLIC	??$_Allocate@$0BA@U_Default_allocate_traits@std@@$0A@@std@@YAPEAX_K@Z ; std::_Allocate<16,std::_Default_allocate_traits,0>
PUBLIC	??$_Deallocate@$0BA@$0A@@std@@YAXPEAX_K@Z	; std::_Deallocate<16,0>
PUBLIC	??$_Get_size_of_n@$03@std@@YA_K_K@Z		; std::_Get_size_of_n<4>
PUBLIC	??$_Get_size_of_n@$00@std@@YA_K_K@Z		; std::_Get_size_of_n<1>
PUBLIC	??$construct_at@DAEBDX@std@@YAPEADQEADAEBD@Z	; std::construct_at<char,char const &,void>
PUBLIC	??$_Voidify_iter@PEAD@std@@YAPEAXPEAD@Z		; std::_Voidify_iter<char *>
PUBLIC	??$forward@AEBD@std@@YAAEBDAEBD@Z		; std::forward<char const &>
PUBLIC	??$addressof@U_Container_proxy@std@@@std@@YAPEAU_Container_proxy@0@AEAU10@@Z ; std::addressof<std::_Container_proxy>
PUBLIC	??$_Voidify_iter@PEAU_Container_proxy@std@@@std@@YAPEAXPEAU_Container_proxy@0@@Z ; std::_Voidify_iter<std::_Container_proxy *>
PUBLIC	??$forward@PEAU_Container_base12@std@@@std@@YA$$QEAPEAU_Container_base12@0@AEAPEAU10@@Z ; std::forward<std::_Container_base12 *>
PUBLIC	??$construct_at@U_Container_proxy@std@@PEAU_Container_base12@2@X@std@@YAPEAU_Container_proxy@0@QEAU10@$$QEAPEAU_Container_base12@0@@Z ; std::construct_at<std::_Container_proxy,std::_Container_base12 *,void>
PUBLIC	??$_Insert_string@DU?$char_traits@D@std@@_K@std@@YAAEAV?$basic_ostream@DU?$char_traits@D@std@@@0@AEAV10@QEBD_K@Z ; std::_Insert_string<char,std::char_traits<char>,unsigned __int64>
PUBLIC	??$construct_at@HHX@std@@YAPEAHQEAH$$QEAH@Z	; std::construct_at<int,int,void>
PUBLIC	??$_Voidify_iter@PEAH@std@@YAPEAXPEAH@Z		; std::_Voidify_iter<int *>
PUBLIC	??$_Uninitialized_move@PEAHV?$allocator@H@std@@@std@@YAPEAHQEAH0PEAHAEAV?$allocator@H@0@@Z ; std::_Uninitialized_move<int *,std::allocator<int> >
PUBLIC	??$_Deallocate_plain@V?$allocator@U_Container_proxy@std@@@std@@@std@@YAXAEAV?$allocator@U_Container_proxy@std@@@0@QEAU_Container_proxy@0@@Z ; std::_Deallocate_plain<std::allocator<std::_Container_proxy> >
PUBLIC	??$addressof@PEAD@std@@YAPEAPEADAEAPEAD@Z	; std::addressof<char *>
PUBLIC	??$forward@AEBQEAD@std@@YAAEBQEADAEBQEAD@Z	; std::forward<char * const &>
PUBLIC	??$construct_at@PEADAEBQEADX@std@@YAPEAPEADQEAPEADAEBQEAD@Z ; std::construct_at<char *,char * const &,void>
PUBLIC	??$_Voidify_iter@PEAPEAD@std@@YAPEAXPEAPEAD@Z	; std::_Voidify_iter<char * *>
PUBLIC	??$_Allocate_manually_vector_aligned@U_Default_allocate_traits@std@@@std@@YAPEAX_K@Z ; std::_Allocate_manually_vector_aligned<std::_Default_allocate_traits>
PUBLIC	??$_Get_unwrapped@AEBQEAH@std@@YA?A_TAEBQEAH@Z	; std::_Get_unwrapped<int * const &>
PUBLIC	??$to_address@H@std@@YAPEAHQEAH@Z		; std::to_address<int>
PUBLIC	??$_Copy_memmove@PEAHPEAH@std@@YAPEAHPEAH00@Z	; std::_Copy_memmove<int *,int *>
PUBLIC	??0?$_Uninitialized_backout_al@V?$allocator@H@std@@@std@@QEAA@PEAHAEAV?$allocator@H@1@@Z ; std::_Uninitialized_backout_al<std::allocator<int> >::_Uninitialized_backout_al<std::allocator<int> >
PUBLIC	??1?$_Uninitialized_backout_al@V?$allocator@H@std@@@std@@QEAA@XZ ; std::_Uninitialized_backout_al<std::allocator<int> >::~_Uninitialized_backout_al<std::allocator<int> >
PUBLIC	?_Release@?$_Uninitialized_backout_al@V?$allocator@H@std@@@std@@QEAAPEAHXZ ; std::_Uninitialized_backout_al<std::allocator<int> >::_Release
PUBLIC	?__autoclassinit2@?$_Uninitialized_backout_al@V?$allocator@H@std@@@std@@QEAAX_K@Z ; std::_Uninitialized_backout_al<std::allocator<int> >::__autoclassinit2
PUBLIC	??$_Emplace_back@H@?$_Uninitialized_backout_al@V?$allocator@H@std@@@std@@QEAAX$$QEAH@Z ; std::_Uninitialized_backout_al<std::allocator<int> >::_Emplace_back<int>
PUBLIC	?deallocate@?$_Default_allocator_traits@V?$allocator@U_Container_proxy@std@@@std@@@std@@SAXAEAV?$allocator@U_Container_proxy@std@@@2@QEAU_Container_proxy@2@_K@Z ; std::_Default_allocator_traits<std::allocator<std::_Container_proxy> >::deallocate
PUBLIC	??$_To_address@PEAH@std@@YA?A_PAEBQEAH@Z	; std::_To_address<int *>
PUBLIC	__JustMyCode_Default
PUBLIC	??_7exception@std@@6B@				; std::exception::`vftable'
PUBLIC	??_C@_0BC@EOODALEL@Unknown?5exception@		; `string'
PUBLIC	??_7bad_alloc@std@@6B@				; std::bad_alloc::`vftable'
PUBLIC	??_7bad_array_new_length@std@@6B@		; std::bad_array_new_length::`vftable'
PUBLIC	??_C@_0BF@KINCDENJ@bad?5array?5new?5length@	; `string'
PUBLIC	_TI3?AVbad_array_new_length@std@@
PUBLIC	_CTA3?AVbad_array_new_length@std@@
PUBLIC	??_R0?AVbad_array_new_length@std@@@8		; std::bad_array_new_length `RTTI Type Descriptor'
PUBLIC	_CT??_R0?AVbad_array_new_length@std@@@8??0bad_array_new_length@std@@QEAA@AEBV01@@Z24
PUBLIC	??_R0?AVbad_alloc@std@@@8			; std::bad_alloc `RTTI Type Descriptor'
PUBLIC	_CT??_R0?AVbad_alloc@std@@@8??0bad_alloc@std@@QEAA@AEBV01@@Z24
PUBLIC	??_R0?AVexception@std@@@8			; std::exception `RTTI Type Descriptor'
PUBLIC	_CT??_R0?AVexception@std@@@8??0exception@std@@QEAA@AEBV01@@Z24
PUBLIC	?__LINE__Var@?0??_Adjust_manually_vector_aligned@std@@YAXAEAPEAXAEA_K@Z@4JA ; `std::_Adjust_manually_vector_aligned'::`1'::__LINE__Var
PUBLIC	??_C@_0BB@FCMFBGOM@invalid?5argument@		; `string'
PUBLIC	??_C@_02DKCKIIND@?$CFs@				; `string'
PUBLIC	??_C@_0GC@DLMJMPBP@C?3?2Program?5Files?2Microsoft?5Visu@ ; `string'
PUBLIC	??_C@_1ME@MKDMFCMA@?$AAC?$AA?3?$AA?2?$AAP?$AAr?$AAo?$AAg?$AAr?$AAa?$AAm?$AA?5?$AAF?$AAi?$AAl?$AAe@ ; `string'
PUBLIC	??_C@_11LOCGONAA@@				; `string'
PUBLIC	??_C@_1CG@JNLFBNGN@?$AA?$CC?$AAi?$AAn?$AAv?$AAa?$AAl?$AAi?$AAd?$AA?5?$AAa?$AAr?$AAg?$AAu?$AAm?$AAe@ ; `string'
PUBLIC	??_C@_0BA@JFNIOLAK@string?5too?5long@		; `string'
PUBLIC	??_C@_0BD@NLIPEFAP@These?5are?5integers@	; `string'
PUBLIC	??_C@_0BB@JGKPHEKI@These?5are?5vector@		; `string'
PUBLIC	??_C@_0BA@DKBEKLFN@These?5are?5array@		; `string'
PUBLIC	??_C@_06CDFKILBB@Howell@			; `string'
PUBLIC	??_C@_01FAMBOPH@4@				; `string'
PUBLIC	??_C@_0BK@FMKGFFM@These?5are?5Vector?$CIheader?$CJ?3@ ; `string'
PUBLIC	??_C@_03BFHCIDFI@C?$CL?$CL@			; `string'
PUBLIC	??_C@_0BO@PFKOHNJC@vector?5subscript?5out?5of?5range@ ; `string'
PUBLIC	??_C@_0GB@JAALAKDN@C?3?2Program?5Files?2Microsoft?5Visu@ ; `string'
PUBLIC	??_C@_1MC@BOBIJOFG@?$AAC?$AA?3?$AA?2?$AAP?$AAr?$AAo?$AAg?$AAr?$AAa?$AAm?$AA?5?$AAF?$AAi?$AAl?$AAe@ ; `string'
PUBLIC	??_C@_1EA@LEKOKFNB@?$AA?$CC?$AAv?$AAe?$AAc?$AAt?$AAo?$AAr?$AA?5?$AAs?$AAu?$AAb?$AAs?$AAc?$AAr?$AAi@ ; `string'
PUBLIC	??_C@_0BL@EGNBEPHB@?9?9?9?9?9?9?9?9?9?9?9?9?9?9?9?9?9?9?9?9?9?9?9?9?9?6@ ; `string'
PUBLIC	??_C@_0BA@FOIKENOD@vector?5too?5long@		; `string'
PUBLIC	??_R4exception@std@@6B@				; std::exception::`RTTI Complete Object Locator'
PUBLIC	??_R3exception@std@@8				; std::exception::`RTTI Class Hierarchy Descriptor'
PUBLIC	??_R2exception@std@@8				; std::exception::`RTTI Base Class Array'
PUBLIC	??_R1A@?0A@EA@exception@std@@8			; std::exception::`RTTI Base Class Descriptor at (0,-1,0,64)'
PUBLIC	??_R4bad_alloc@std@@6B@				; std::bad_alloc::`RTTI Complete Object Locator'
PUBLIC	??_R3bad_alloc@std@@8				; std::bad_alloc::`RTTI Class Hierarchy Descriptor'
PUBLIC	??_R2bad_alloc@std@@8				; std::bad_alloc::`RTTI Base Class Array'
PUBLIC	??_R1A@?0A@EA@bad_alloc@std@@8			; std::bad_alloc::`RTTI Base Class Descriptor at (0,-1,0,64)'
PUBLIC	??_R4bad_array_new_length@std@@6B@		; std::bad_array_new_length::`RTTI Complete Object Locator'
PUBLIC	??_R3bad_array_new_length@std@@8		; std::bad_array_new_length::`RTTI Class Hierarchy Descriptor'
PUBLIC	??_R2bad_array_new_length@std@@8		; std::bad_array_new_length::`RTTI Base Class Array'
PUBLIC	??_R1A@?0A@EA@bad_array_new_length@std@@8	; std::bad_array_new_length::`RTTI Base Class Descriptor at (0,-1,0,64)'
EXTRN	??_L@YAXPEAX_K1P6AX0@Z2@Z:PROC			; `eh vector constructor iterator'
EXTRN	??_M@YAXPEAX_K1P6AX0@Z@Z:PROC			; `eh vector destructor iterator'
EXTRN	??2@YAPEAX_K@Z:PROC				; operator new
EXTRN	??3@YAXPEAX@Z:PROC				; operator delete
EXTRN	??3@YAXPEAX_K@Z:PROC				; operator delete
EXTRN	??_U@YAPEAX_K@Z:PROC				; operator new[]
EXTRN	??_V@YAXPEAX_K@Z:PROC				; operator delete[]
EXTRN	__imp__invalid_parameter:PROC
EXTRN	__imp__CrtDbgReport:PROC
EXTRN	__imp_??0_Lockit@std@@QEAA@H@Z:PROC
EXTRN	__imp_??1_Lockit@std@@QEAA@XZ:PROC
EXTRN	memcpy:PROC
EXTRN	memmove:PROC
EXTRN	memset:PROC
EXTRN	?_Xlength_error@std@@YAXPEBD@Z:PROC		; std::_Xlength_error
EXTRN	?uncaught_exceptions@std@@YAHXZ:PROC		; std::uncaught_exceptions
EXTRN	__std_exception_copy:PROC
EXTRN	__std_exception_destroy:PROC
EXTRN	??_Eexception@std@@UEAAPEAXI@Z:PROC		; std::exception::`vector deleting destructor'
EXTRN	??_Ebad_alloc@std@@UEAAPEAXI@Z:PROC		; std::bad_alloc::`vector deleting destructor'
EXTRN	??_Ebad_array_new_length@std@@UEAAPEAXI@Z:PROC	; std::bad_array_new_length::`vector deleting destructor'
EXTRN	__imp_?good@ios_base@std@@QEBA_NXZ:PROC
EXTRN	__imp_?flags@ios_base@std@@QEBAHXZ:PROC
EXTRN	__imp_?width@ios_base@std@@QEBA_JXZ:PROC
EXTRN	__imp_?width@ios_base@std@@QEAA_J_J@Z:PROC
EXTRN	__imp_?sputc@?$basic_streambuf@DU?$char_traits@D@std@@@std@@QEAAHD@Z:PROC
EXTRN	__imp_?sputn@?$basic_streambuf@DU?$char_traits@D@std@@@std@@QEAA_JPEBD_J@Z:PROC
EXTRN	__imp_?setstate@?$basic_ios@DU?$char_traits@D@std@@@std@@QEAAXH_N@Z:PROC
EXTRN	__imp_?tie@?$basic_ios@DU?$char_traits@D@std@@@std@@QEBAPEAV?$basic_ostream@DU?$char_traits@D@std@@@2@XZ:PROC
EXTRN	__imp_?rdbuf@?$basic_ios@DU?$char_traits@D@std@@@std@@QEBAPEAV?$basic_streambuf@DU?$char_traits@D@std@@@2@XZ:PROC
EXTRN	__imp_?fill@?$basic_ios@DU?$char_traits@D@std@@@std@@QEBADXZ:PROC
EXTRN	__imp_?widen@?$basic_ios@DU?$char_traits@D@std@@@std@@QEBADD@Z:PROC
EXTRN	__imp_?_Osfx@?$basic_ostream@DU?$char_traits@D@std@@@std@@QEAAXXZ:PROC
EXTRN	__imp_??6?$basic_ostream@DU?$char_traits@D@std@@@std@@QEAAAEAV01@P6AAEAV01@AEAV01@@Z@Z:PROC
EXTRN	__imp_??6?$basic_ostream@DU?$char_traits@D@std@@@std@@QEAAAEAV01@H@Z:PROC
EXTRN	__imp_?put@?$basic_ostream@DU?$char_traits@D@std@@@std@@QEAAAEAV12@D@Z:PROC
EXTRN	__imp_?flush@?$basic_ostream@DU?$char_traits@D@std@@@std@@QEAAAEAV12@XZ:PROC
EXTRN	_CxxThrowException:PROC
EXTRN	_RTC_CheckStackVars:PROC
EXTRN	_RTC_InitBase:PROC
EXTRN	_RTC_Shutdown:PROC
EXTRN	__CheckForDebuggerJustMyCode:PROC
EXTRN	__CxxFrameHandler4:PROC
EXTRN	__GSHandlerCheck:PROC
EXTRN	__GSHandlerCheck_EH4:PROC
EXTRN	__security_check_cookie:PROC
EXTRN	??_7type_info@@6B@:BYTE				; type_info::`vftable'
EXTRN	__imp_?cout@std@@3V?$basic_ostream@DU?$char_traits@D@std@@@1@A:BYTE
EXTRN	__security_cookie:QWORD
;	COMDAT pdata
pdata	SEGMENT
$pdata$?__empty_global_delete@@YAXPEAX@Z DD imagerel $LN3
	DD	imagerel $LN3+41
	DD	imagerel $unwind$?__empty_global_delete@@YAXPEAX@Z
pdata	ENDS
;	COMDAT pdata
pdata	SEGMENT
$pdata$?__empty_global_delete@@YAXPEAX_K@Z DD imagerel $LN3
	DD	imagerel $LN3+46
	DD	imagerel $unwind$?__empty_global_delete@@YAXPEAX_K@Z
pdata	ENDS
;	COMDAT pdata
pdata	SEGMENT
$pdata$?__empty_global_delete@@YAXPEAXW4align_val_t@std@@@Z DD imagerel $LN3
	DD	imagerel $LN3+46
	DD	imagerel $unwind$?__empty_global_delete@@YAXPEAXW4align_val_t@std@@@Z
pdata	ENDS
;	COMDAT pdata
pdata	SEGMENT
$pdata$?__empty_global_delete@@YAXPEAX_KW4align_val_t@std@@@Z DD imagerel $LN3
	DD	imagerel $LN3+51
	DD	imagerel $unwind$?__empty_global_delete@@YAXPEAX_KW4align_val_t@std@@@Z
pdata	ENDS
;	COMDAT pdata
pdata	SEGMENT
$pdata$??2@YAPEAX_KPEAX@Z DD imagerel $LN3
	DD	imagerel $LN3+53
	DD	imagerel $unwind$??2@YAPEAX_KPEAX@Z
pdata	ENDS
;	COMDAT pdata
pdata	SEGMENT
$pdata$?is_constant_evaluated@std@@YA_NXZ DD imagerel $LN3
	DD	imagerel $LN3+39
	DD	imagerel $unwind$?is_constant_evaluated@std@@YA_NXZ
pdata	ENDS
;	COMDAT pdata
pdata	SEGMENT
$pdata$?max@?$numeric_limits@_J@std@@SA_JXZ DD imagerel $LN3
	DD	imagerel $LN3+47
	DD	imagerel $unwind$?max@?$numeric_limits@_J@std@@SA_JXZ
pdata	ENDS
;	COMDAT pdata
pdata	SEGMENT
$pdata$??0exception@std@@QEAA@QEBDH@Z DD imagerel $LN3
	DD	imagerel $LN3+116
	DD	imagerel $unwind$??0exception@std@@QEAA@QEBDH@Z
pdata	ENDS
;	COMDAT pdata
pdata	SEGMENT
$pdata$??0exception@std@@QEAA@AEBV01@@Z DD imagerel $LN3
	DD	imagerel $LN3+123
	DD	imagerel $unwind$??0exception@std@@QEAA@AEBV01@@Z
pdata	ENDS
;	COMDAT pdata
pdata	SEGMENT
$pdata$??1exception@std@@UEAA@XZ DD imagerel $LN3
	DD	imagerel $LN3+77
	DD	imagerel $unwind$??1exception@std@@UEAA@XZ
pdata	ENDS
;	COMDAT pdata
pdata	SEGMENT
$pdata$?what@exception@std@@UEBAPEBDXZ DD imagerel $LN5
	DD	imagerel $LN5+96
	DD	imagerel $unwind$?what@exception@std@@UEBAPEBDXZ
pdata	ENDS
;	COMDAT pdata
pdata	SEGMENT
$pdata$??_Gexception@std@@UEAAPEAXI@Z DD imagerel $LN4
	DD	imagerel $LN4+82
	DD	imagerel $unwind$??_Gexception@std@@UEAAPEAXI@Z
pdata	ENDS
;	COMDAT pdata
pdata	SEGMENT
$pdata$??0bad_alloc@std@@AEAA@QEBD@Z DD imagerel $LN3
	DD	imagerel $LN3+95
	DD	imagerel $unwind$??0bad_alloc@std@@AEAA@QEBD@Z
pdata	ENDS
;	COMDAT pdata
pdata	SEGMENT
$pdata$??1bad_alloc@std@@UEAA@XZ DD imagerel $LN3
	DD	imagerel $LN3+41
	DD	imagerel $unwind$??1bad_alloc@std@@UEAA@XZ
pdata	ENDS
;	COMDAT pdata
pdata	SEGMENT
$pdata$??0bad_alloc@std@@QEAA@AEBV01@@Z DD imagerel $LN3
	DD	imagerel $LN3+77
	DD	imagerel $unwind$??0bad_alloc@std@@QEAA@AEBV01@@Z
pdata	ENDS
;	COMDAT pdata
pdata	SEGMENT
$pdata$??_Gbad_alloc@std@@UEAAPEAXI@Z DD imagerel $LN4
	DD	imagerel $LN4+82
	DD	imagerel $unwind$??_Gbad_alloc@std@@UEAAPEAXI@Z
pdata	ENDS
;	COMDAT pdata
pdata	SEGMENT
$pdata$??0bad_array_new_length@std@@QEAA@XZ DD imagerel $LN3
	DD	imagerel $LN3+84
	DD	imagerel $unwind$??0bad_array_new_length@std@@QEAA@XZ
pdata	ENDS
;	COMDAT pdata
pdata	SEGMENT
$pdata$??1bad_array_new_length@std@@UEAA@XZ DD imagerel $LN3
	DD	imagerel $LN3+41
	DD	imagerel $unwind$??1bad_array_new_length@std@@UEAA@XZ
pdata	ENDS
;	COMDAT pdata
pdata	SEGMENT
$pdata$??0bad_array_new_length@std@@QEAA@AEBV01@@Z DD imagerel $LN3
	DD	imagerel $LN3+77
	DD	imagerel $unwind$??0bad_array_new_length@std@@QEAA@AEBV01@@Z
pdata	ENDS
;	COMDAT pdata
pdata	SEGMENT
$pdata$??_Gbad_array_new_length@std@@UEAAPEAXI@Z DD imagerel $LN4
	DD	imagerel $LN4+82
	DD	imagerel $unwind$??_Gbad_array_new_length@std@@UEAAPEAXI@Z
pdata	ENDS
;	COMDAT pdata
pdata	SEGMENT
$pdata$?_Throw_bad_array_new_length@std@@YAXXZ DD imagerel $LN3
	DD	imagerel $LN3+68
	DD	imagerel $unwind$?_Throw_bad_array_new_length@std@@YAXXZ
pdata	ENDS
;	COMDAT pdata
pdata	SEGMENT
$pdata$?_Allocate@_Default_allocate_traits@std@@SAPEAX_K@Z DD imagerel $LN3
	DD	imagerel $LN3+53
	DD	imagerel $unwind$?_Allocate@_Default_allocate_traits@std@@SAPEAX_K@Z
pdata	ENDS
;	COMDAT pdata
pdata	SEGMENT
$pdata$?_Adjust_manually_vector_aligned@std@@YAXAEAPEAXAEA_K@Z DD imagerel $LN21
	DD	imagerel $LN21+453
	DD	imagerel $unwind$?_Adjust_manually_vector_aligned@std@@YAXAEAPEAXAEA_K@Z
pdata	ENDS
;	COMDAT pdata
pdata	SEGMENT
$pdata$??0_Container_proxy@std@@QEAA@PEAU_Container_base12@1@@Z DD imagerel $LN3
	DD	imagerel $LN3+85
	DD	imagerel $unwind$??0_Container_proxy@std@@QEAA@PEAU_Container_base12@1@@Z
pdata	ENDS
;	COMDAT pdata
pdata	SEGMENT
$pdata$??0_Container_base12@std@@QEAA@XZ DD imagerel $LN3
	DD	imagerel $LN3+62
	DD	imagerel $unwind$??0_Container_base12@std@@QEAA@XZ
pdata	ENDS
;	COMDAT pdata
pdata	SEGMENT
$pdata$?_Orphan_all@_Container_base12@std@@QEAAXXZ DD imagerel $LN5
	DD	imagerel $LN5+79
	DD	imagerel $unwind$?_Orphan_all@_Container_base12@std@@QEAAXXZ
pdata	ENDS
;	COMDAT pdata
pdata	SEGMENT
$pdata$?_Orphan_all_unlocked_v3@_Container_base12@std@@AEAAXXZ DD imagerel $LN7
	DD	imagerel $LN7+138
	DD	imagerel $unwind$?_Orphan_all_unlocked_v3@_Container_base12@std@@AEAAXXZ
pdata	ENDS
;	COMDAT pdata
pdata	SEGMENT
$pdata$?_Orphan_all_locked_v3@_Container_base12@std@@AEAAXXZ DD imagerel $LN3
	DD	imagerel $LN3+151
	DD	imagerel $unwind$?_Orphan_all_locked_v3@_Container_base12@std@@AEAAXXZ
pdata	ENDS
;	COMDAT pdata
pdata	SEGMENT
$pdata$?_Release@_Basic_container_proxy_ptr12@std@@QEAAXXZ DD imagerel $LN3
	DD	imagerel $LN3+55
	DD	imagerel $unwind$?_Release@_Basic_container_proxy_ptr12@std@@QEAAXXZ
pdata	ENDS
;	COMDAT pdata
pdata	SEGMENT
$pdata$??0_Basic_container_proxy_ptr12@std@@IEAA@XZ DD imagerel $LN3
	DD	imagerel $LN3+62
	DD	imagerel $unwind$??0_Basic_container_proxy_ptr12@std@@IEAA@XZ
pdata	ENDS
;	COMDAT pdata
pdata	SEGMENT
$pdata$??$addressof@U_Container_base12@std@@@std@@YAPEAU_Container_base12@0@AEAU10@@Z DD imagerel $LN3
	DD	imagerel $LN3+48
	DD	imagerel $unwind$??$addressof@U_Container_base12@std@@@std@@YAPEAU_Container_base12@0@AEAU10@@Z
pdata	ENDS
;	COMDAT pdata
pdata	SEGMENT
$pdata$??$_Construct_in_place@U_Container_proxy@std@@PEAU_Container_base12@2@@std@@YAXAEAU_Container_proxy@0@$$QEAPEAU_Container_base12@0@@Z DD imagerel $LN5
	DD	imagerel $LN5+198
	DD	imagerel $unwind$??$_Construct_in_place@U_Container_proxy@std@@PEAU_Container_base12@2@@std@@YAXAEAU_Container_proxy@0@$$QEAPEAU_Container_base12@0@@Z
pdata	ENDS
;	COMDAT pdata
pdata	SEGMENT
$pdata$?copy@?$_Char_traits@DH@std@@SAPEADQEADQEBD_K@Z DD imagerel $LN7
	DD	imagerel $LN7+180
	DD	imagerel $unwind$?copy@?$_Char_traits@DH@std@@SAPEADQEADQEBD_K@Z
pdata	ENDS
;	COMDAT pdata
pdata	SEGMENT
$pdata$?move@?$_Char_traits@DH@std@@SAPEADQEADQEBD_K@Z DD imagerel $LN16
	DD	imagerel $LN16+343
	DD	imagerel $unwind$?move@?$_Char_traits@DH@std@@SAPEADQEADQEBD_K@Z
pdata	ENDS
;	COMDAT pdata
pdata	SEGMENT
$pdata$?assign@?$_Char_traits@DH@std@@SAPEADQEAD_KD@Z DD imagerel $LN11
	DD	imagerel $LN11+207
	DD	imagerel $unwind$?assign@?$_Char_traits@DH@std@@SAPEADQEAD_KD@Z
pdata	ENDS
;	COMDAT pdata
pdata	SEGMENT
$pdata$?length@?$_Narrow_char_traits@DH@std@@SA_KQEBD@Z DD imagerel $LN4
	DD	imagerel $LN4+100
	DD	imagerel $unwind$?length@?$_Narrow_char_traits@DH@std@@SA_KQEBD@Z
pdata	ENDS
;	COMDAT pdata
pdata	SEGMENT
$pdata$?assign@?$_Narrow_char_traits@DH@std@@SAPEADQEAD_KD@Z DD imagerel $LN4
	DD	imagerel $LN4+120
	DD	imagerel $unwind$?assign@?$_Narrow_char_traits@DH@std@@SAPEADQEAD_KD@Z
pdata	ENDS
;	COMDAT pdata
pdata	SEGMENT
$pdata$?assign@?$_Narrow_char_traits@DH@std@@SAXAEADAEBD@Z DD imagerel $LN3
	DD	imagerel $LN3+65
	DD	imagerel $unwind$?assign@?$_Narrow_char_traits@DH@std@@SAXAEADAEBD@Z
pdata	ENDS
;	COMDAT pdata
pdata	SEGMENT
$pdata$?eq_int_type@?$_Narrow_char_traits@DH@std@@SA_NAEBH0@Z DD imagerel $LN5
	DD	imagerel $LN5+95
	DD	imagerel $unwind$?eq_int_type@?$_Narrow_char_traits@DH@std@@SA_NAEBH0@Z
pdata	ENDS
;	COMDAT pdata
pdata	SEGMENT
$pdata$?eof@?$_Narrow_char_traits@DH@std@@SAHXZ DD imagerel $LN3
	DD	imagerel $LN3+42
	DD	imagerel $unwind$?eof@?$_Narrow_char_traits@DH@std@@SAHXZ
pdata	ENDS
;	COMDAT pdata
pdata	SEGMENT
$pdata$?_Xlen_string@std@@YAXXZ DD imagerel $LN3
	DD	imagerel $LN3+49
	DD	imagerel $unwind$?_Xlen_string@std@@YAXXZ
pdata	ENDS
;	COMDAT pdata
pdata	SEGMENT
$pdata$??0?$allocator@D@std@@QEAA@XZ DD imagerel $LN3
	DD	imagerel $LN3+48
	DD	imagerel $unwind$??0?$allocator@D@std@@QEAA@XZ
pdata	ENDS
;	COMDAT pdata
pdata	SEGMENT
$pdata$?deallocate@?$allocator@D@std@@QEAAXQEAD_K@Z DD imagerel $LN3
	DD	imagerel $LN3+70
	DD	imagerel $unwind$?deallocate@?$allocator@D@std@@QEAAXQEAD_K@Z
pdata	ENDS
;	COMDAT pdata
pdata	SEGMENT
$pdata$?allocate@?$allocator@D@std@@QEAAPEAD_K@Z DD imagerel $LN3
	DD	imagerel $LN3+66
	DD	imagerel $unwind$?allocate@?$allocator@D@std@@QEAAPEAD_K@Z
pdata	ENDS
;	COMDAT pdata
pdata	SEGMENT
$pdata$?max_size@?$_Default_allocator_traits@V?$allocator@D@std@@@std@@SA_KAEBV?$allocator@D@2@@Z DD imagerel $LN3
	DD	imagerel $LN3+48
	DD	imagerel $unwind$?max_size@?$_Default_allocator_traits@V?$allocator@D@std@@@std@@SA_KAEBV?$allocator@D@2@@Z
pdata	ENDS
;	COMDAT pdata
pdata	SEGMENT
$pdata$??0?$_String_val@U?$_Simple_types@D@std@@@std@@QEAA@XZ DD imagerel $LN3
	DD	imagerel $LN3+109
	DD	imagerel $unwind$??0?$_String_val@U?$_Simple_types@D@std@@@std@@QEAA@XZ
pdata	ENDS
;	COMDAT pdata
pdata	SEGMENT
$pdata$?_Myptr@?$_String_val@U?$_Simple_types@D@std@@@std@@QEAAPEADXZ DD imagerel $LN4
	DD	imagerel $LN4+99
	DD	imagerel $unwind$?_Myptr@?$_String_val@U?$_Simple_types@D@std@@@std@@QEAAPEADXZ
pdata	ENDS
;	COMDAT pdata
pdata	SEGMENT
$pdata$?_Myptr@?$_String_val@U?$_Simple_types@D@std@@@std@@QEBAPEBDXZ DD imagerel $LN4
	DD	imagerel $LN4+99
	DD	imagerel $unwind$?_Myptr@?$_String_val@U?$_Simple_types@D@std@@@std@@QEBAPEBDXZ
pdata	ENDS
;	COMDAT pdata
pdata	SEGMENT
$pdata$?_Large_string_engaged@?$_String_val@U?$_Simple_types@D@std@@@std@@QEBA_NXZ DD imagerel $LN6
	DD	imagerel $LN6+100
	DD	imagerel $unwind$?_Large_string_engaged@?$_String_val@U?$_Simple_types@D@std@@@std@@QEBA_NXZ
pdata	ENDS
;	COMDAT pdata
pdata	SEGMENT
$pdata$??0_Bxty@?$_String_val@U?$_Simple_types@D@std@@@std@@QEAA@XZ DD imagerel $LN3
	DD	imagerel $LN3+62
	DD	imagerel $unwind$??0_Bxty@?$_String_val@U?$_Simple_types@D@std@@@std@@QEAA@XZ
pdata	ENDS
;	COMDAT pdata
pdata	SEGMENT
$pdata$??1_Bxty@?$_String_val@U?$_Simple_types@D@std@@@std@@QEAA@XZ DD imagerel $LN3
	DD	imagerel $LN3+41
	DD	imagerel $unwind$??1_Bxty@?$_String_val@U?$_Simple_types@D@std@@@std@@QEAA@XZ
pdata	ENDS
;	COMDAT pdata
pdata	SEGMENT
$pdata$??1?$_String_val@U?$_Simple_types@D@std@@@std@@QEAA@XZ DD imagerel $LN3
	DD	imagerel $LN3+48
	DD	imagerel $unwind$??1?$_String_val@U?$_Simple_types@D@std@@@std@@QEAA@XZ
pdata	ENDS
;	COMDAT pdata
pdata	SEGMENT
$pdata$??0?$basic_string@DU?$char_traits@D@std@@V?$allocator@D@2@@std@@QEAA@XZ DD imagerel $LN3
	DD	imagerel $LN3+149
	DD	imagerel $unwind$??0?$basic_string@DU?$char_traits@D@std@@V?$allocator@D@2@@std@@QEAA@XZ
pdata	ENDS
;	COMDAT pdata
pdata	SEGMENT
$pdata$??0?$basic_string@DU?$char_traits@D@std@@V?$allocator@D@2@@std@@QEAA@QEBD@Z DD imagerel $LN5
	DD	imagerel $LN5+273
	DD	imagerel $unwind$??0?$basic_string@DU?$char_traits@D@std@@V?$allocator@D@2@@std@@QEAA@QEBD@Z
pdata	ENDS
;	COMDAT pdata
pdata	SEGMENT
$pdata$?dtor$0@?0???0?$basic_string@DU?$char_traits@D@std@@V?$allocator@D@2@@std@@QEAA@QEBD@Z@4HA DD imagerel ?dtor$0@?0???0?$basic_string@DU?$char_traits@D@std@@V?$allocator@D@2@@std@@QEAA@QEBD@Z@4HA
	DD	imagerel ?dtor$0@?0???0?$basic_string@DU?$char_traits@D@std@@V?$allocator@D@2@@std@@QEAA@QEBD@Z@4HA+39
	DD	imagerel $unwind$?dtor$0@?0???0?$basic_string@DU?$char_traits@D@std@@V?$allocator@D@2@@std@@QEAA@QEBD@Z@4HA
pdata	ENDS
;	COMDAT pdata
pdata	SEGMENT
$pdata$?dtor$1@?0???0?$basic_string@DU?$char_traits@D@std@@V?$allocator@D@2@@std@@QEAA@QEBD@Z@4HA DD imagerel ?dtor$1@?0???0?$basic_string@DU?$char_traits@D@std@@V?$allocator@D@2@@std@@QEAA@QEBD@Z@4HA
	DD	imagerel ?dtor$1@?0???0?$basic_string@DU?$char_traits@D@std@@V?$allocator@D@2@@std@@QEAA@QEBD@Z@4HA+36
	DD	imagerel $unwind$?dtor$1@?0???0?$basic_string@DU?$char_traits@D@std@@V?$allocator@D@2@@std@@QEAA@QEBD@Z@4HA
pdata	ENDS
;	COMDAT pdata
pdata	SEGMENT
$pdata$??1?$basic_string@DU?$char_traits@D@std@@V?$allocator@D@2@@std@@QEAA@XZ DD imagerel $LN3
	DD	imagerel $LN3+214
	DD	imagerel $unwind$??1?$basic_string@DU?$char_traits@D@std@@V?$allocator@D@2@@std@@QEAA@XZ
pdata	ENDS
;	COMDAT pdata
pdata	SEGMENT
$pdata$??4?$basic_string@DU?$char_traits@D@std@@V?$allocator@D@2@@std@@QEAAAEAV01@AEBV01@@Z DD imagerel $LN4
	DD	imagerel $LN4+194
	DD	imagerel $unwind$??4?$basic_string@DU?$char_traits@D@std@@V?$allocator@D@2@@std@@QEAAAEAV01@AEBV01@@Z
pdata	ENDS
;	COMDAT pdata
pdata	SEGMENT
$pdata$??4?$basic_string@DU?$char_traits@D@std@@V?$allocator@D@2@@std@@QEAAAEAV01@QEBD@Z DD imagerel $LN3
	DD	imagerel $LN3+65
	DD	imagerel $unwind$??4?$basic_string@DU?$char_traits@D@std@@V?$allocator@D@2@@std@@QEAAAEAV01@QEBD@Z
pdata	ENDS
;	COMDAT pdata
pdata	SEGMENT
$pdata$?assign@?$basic_string@DU?$char_traits@D@std@@V?$allocator@D@2@@std@@QEAAAEAV12@QEBD_K@Z DD imagerel $LN4
	DD	imagerel $LN4+213
	DD	imagerel $unwind$?assign@?$basic_string@DU?$char_traits@D@std@@V?$allocator@D@2@@std@@QEAAAEAV12@QEBD_K@Z
pdata	ENDS
;	COMDAT pdata
pdata	SEGMENT
$pdata$?assign@?$basic_string@DU?$char_traits@D@std@@V?$allocator@D@2@@std@@QEAAAEAV12@QEBD@Z DD imagerel $LN3
	DD	imagerel $LN3+88
	DD	imagerel $unwind$?assign@?$basic_string@DU?$char_traits@D@std@@V?$allocator@D@2@@std@@QEAAAEAV12@QEBD@Z
pdata	ENDS
;	COMDAT pdata
pdata	SEGMENT
$pdata$?data@?$basic_string@DU?$char_traits@D@std@@V?$allocator@D@2@@std@@QEBAPEBDXZ DD imagerel $LN3
	DD	imagerel $LN3+56
	DD	imagerel $unwind$?data@?$basic_string@DU?$char_traits@D@std@@V?$allocator@D@2@@std@@QEBAPEBDXZ
pdata	ENDS
;	COMDAT pdata
pdata	SEGMENT
$pdata$?size@?$basic_string@DU?$char_traits@D@std@@V?$allocator@D@2@@std@@QEBA_KXZ DD imagerel $LN3
	DD	imagerel $LN3+52
	DD	imagerel $unwind$?size@?$basic_string@DU?$char_traits@D@std@@V?$allocator@D@2@@std@@QEBA_KXZ
pdata	ENDS
;	COMDAT pdata
pdata	SEGMENT
$pdata$?max_size@?$basic_string@DU?$char_traits@D@std@@V?$allocator@D@2@@std@@QEBA_KXZ DD imagerel $LN3
	DD	imagerel $LN3+226
	DD	imagerel $unwind$?max_size@?$basic_string@DU?$char_traits@D@std@@V?$allocator@D@2@@std@@QEBA_KXZ
pdata	ENDS
;	COMDAT pdata
pdata	SEGMENT
$pdata$?_Calculate_growth@?$basic_string@DU?$char_traits@D@std@@V?$allocator@D@2@@std@@CA_K_K00@Z DD imagerel $LN5
	DD	imagerel $LN5+271
	DD	imagerel $unwind$?_Calculate_growth@?$basic_string@DU?$char_traits@D@std@@V?$allocator@D@2@@std@@CA_K_K00@Z
pdata	ENDS
;	COMDAT pdata
pdata	SEGMENT
$pdata$?_Calculate_growth@?$basic_string@DU?$char_traits@D@std@@V?$allocator@D@2@@std@@AEBA_K_K@Z DD imagerel $LN3
	DD	imagerel $LN3+109
	DD	imagerel $unwind$?_Calculate_growth@?$basic_string@DU?$char_traits@D@std@@V?$allocator@D@2@@std@@AEBA_K_K@Z
pdata	ENDS
;	COMDAT pdata
pdata	SEGMENT
$pdata$?_Tidy_init@?$basic_string@DU?$char_traits@D@std@@V?$allocator@D@2@@std@@AEAAXXZ DD imagerel $LN5
	DD	imagerel $LN5+219
	DD	imagerel $unwind$?_Tidy_init@?$basic_string@DU?$char_traits@D@std@@V?$allocator@D@2@@std@@AEAAXXZ
pdata	ENDS
;	COMDAT pdata
pdata	SEGMENT
$pdata$?_Tidy_deallocate@?$basic_string@DU?$char_traits@D@std@@V?$allocator@D@2@@std@@AEAAXXZ DD imagerel $LN6
	DD	imagerel $LN6+291
	DD	imagerel $unwind$?_Tidy_deallocate@?$basic_string@DU?$char_traits@D@std@@V?$allocator@D@2@@std@@AEAAXXZ
pdata	ENDS
;	COMDAT pdata
pdata	SEGMENT
$pdata$?_Getal@?$basic_string@DU?$char_traits@D@std@@V?$allocator@D@2@@std@@AEAAAEAV?$allocator@D@2@XZ DD imagerel $LN3
	DD	imagerel $LN3+56
	DD	imagerel $unwind$?_Getal@?$basic_string@DU?$char_traits@D@std@@V?$allocator@D@2@@std@@AEAAAEAV?$allocator@D@2@XZ
pdata	ENDS
;	COMDAT pdata
pdata	SEGMENT
$pdata$?_Getal@?$basic_string@DU?$char_traits@D@std@@V?$allocator@D@2@@std@@AEBAAEBV?$allocator@D@2@XZ DD imagerel $LN3
	DD	imagerel $LN3+56
	DD	imagerel $unwind$?_Getal@?$basic_string@DU?$char_traits@D@std@@V?$allocator@D@2@@std@@AEBAAEBV?$allocator@D@2@XZ
pdata	ENDS
;	COMDAT pdata
pdata	SEGMENT
$pdata$?_Get_first@?$_Compressed_pair@V?$allocator@D@std@@V?$_String_val@U?$_Simple_types@D@std@@@2@$00@std@@QEAAAEAV?$allocator@D@2@XZ DD imagerel $LN3
	DD	imagerel $LN3+48
	DD	imagerel $unwind$?_Get_first@?$_Compressed_pair@V?$allocator@D@std@@V?$_String_val@U?$_Simple_types@D@std@@@2@$00@std@@QEAAAEAV?$allocator@D@2@XZ
pdata	ENDS
;	COMDAT pdata
pdata	SEGMENT
$pdata$?_Get_first@?$_Compressed_pair@V?$allocator@D@std@@V?$_String_val@U?$_Simple_types@D@std@@@2@$00@std@@QEBAAEBV?$allocator@D@2@XZ DD imagerel $LN3
	DD	imagerel $LN3+48
	DD	imagerel $unwind$?_Get_first@?$_Compressed_pair@V?$allocator@D@std@@V?$_String_val@U?$_Simple_types@D@std@@@2@$00@std@@QEBAAEBV?$allocator@D@2@XZ
pdata	ENDS
;	COMDAT pdata
pdata	SEGMENT
$pdata$??1?$_Compressed_pair@V?$allocator@D@std@@V?$_String_val@U?$_Simple_types@D@std@@@2@$00@std@@QEAA@XZ DD imagerel $LN3
	DD	imagerel $LN3+44
	DD	imagerel $unwind$??1?$_Compressed_pair@V?$allocator@D@std@@V?$_String_val@U?$_Simple_types@D@std@@@2@$00@std@@QEAA@XZ
pdata	ENDS
;	COMDAT pdata
pdata	SEGMENT
$pdata$??_E?$basic_string@DU?$char_traits@D@std@@V?$allocator@D@2@@std@@QEAAPEAXI@Z DD imagerel $LN6
	DD	imagerel $LN6+191
	DD	imagerel $unwind$??_E?$basic_string@DU?$char_traits@D@std@@V?$allocator@D@2@@std@@QEAAPEAXI@Z
pdata	ENDS
;	COMDAT pdata
pdata	SEGMENT
$pdata$??$?6U?$char_traits@D@std@@@std@@YAAEAV?$basic_ostream@DU?$char_traits@D@std@@@0@AEAV10@PEBD@Z DD imagerel $LN25
	DD	imagerel $LN25+1126
	DD	imagerel $unwind$??$?6U?$char_traits@D@std@@@std@@YAAEAV?$basic_ostream@DU?$char_traits@D@std@@@0@AEAV10@PEBD@Z
pdata	ENDS
;	COMDAT pdata
pdata	SEGMENT
$pdata$?dtor$0@?0???$?6U?$char_traits@D@std@@@std@@YAAEAV?$basic_ostream@DU?$char_traits@D@std@@@0@AEAV10@PEBD@Z@4HA DD imagerel ?dtor$0@?0???$?6U?$char_traits@D@std@@@std@@YAAEAV?$basic_ostream@DU?$char_traits@D@std@@@0@AEAV10@PEBD@Z@4HA
	DD	imagerel ?dtor$0@?0???$?6U?$char_traits@D@std@@@std@@YAAEAV?$basic_ostream@DU?$char_traits@D@std@@@0@AEAV10@PEBD@Z@4HA+36
	DD	imagerel $unwind$?dtor$0@?0???$?6U?$char_traits@D@std@@@std@@YAAEAV?$basic_ostream@DU?$char_traits@D@std@@@0@AEAV10@PEBD@Z@4HA
pdata	ENDS
;	COMDAT pdata
pdata	SEGMENT
$pdata$?catch$1@?0???$?6U?$char_traits@D@std@@@std@@YAAEAV?$basic_ostream@DU?$char_traits@D@std@@@0@AEAV10@PEBD@Z@4HA DD imagerel ?catch$1@?0???$?6U?$char_traits@D@std@@@std@@YAAEAV?$basic_ostream@DU?$char_traits@D@std@@@0@AEAV10@PEBD@Z@4HA
	DD	imagerel ?catch$1@?0???$?6U?$char_traits@D@std@@@std@@YAAEAV?$basic_ostream@DU?$char_traits@D@std@@@0@AEAV10@PEBD@Z@4HA+91
	DD	imagerel $unwind$?catch$1@?0???$?6U?$char_traits@D@std@@@std@@YAAEAV?$basic_ostream@DU?$char_traits@D@std@@@0@AEAV10@PEBD@Z@4HA
pdata	ENDS
;	COMDAT pdata
pdata	SEGMENT
$pdata$main DD	imagerel $LN7
	DD	imagerel $LN7+1303
	DD	imagerel $unwind$main
pdata	ENDS
;	COMDAT pdata
pdata	SEGMENT
$pdata$main$dtor$0 DD imagerel main$dtor$0
	DD	imagerel main$dtor$0+36
	DD	imagerel $unwind$main$dtor$0
pdata	ENDS
;	COMDAT pdata
pdata	SEGMENT
$pdata$main$dtor$1 DD imagerel main$dtor$1
	DD	imagerel main$dtor$1+39
	DD	imagerel $unwind$main$dtor$1
pdata	ENDS
;	COMDAT pdata
pdata	SEGMENT
$pdata$main$dtor$2 DD imagerel main$dtor$2
	DD	imagerel main$dtor$2+39
	DD	imagerel $unwind$main$dtor$2
pdata	ENDS
;	COMDAT pdata
pdata	SEGMENT
$pdata$main$dtor$3 DD imagerel main$dtor$3
	DD	imagerel main$dtor$3+39
	DD	imagerel $unwind$main$dtor$3
pdata	ENDS
;	COMDAT pdata
pdata	SEGMENT
$pdata$??$endl@DU?$char_traits@D@std@@@std@@YAAEAV?$basic_ostream@DU?$char_traits@D@std@@@0@AEAV10@@Z DD imagerel $LN3
	DD	imagerel $LN3+126
	DD	imagerel $unwind$??$endl@DU?$char_traits@D@std@@@std@@YAAEAV?$basic_ostream@DU?$char_traits@D@std@@@0@AEAV10@@Z
pdata	ENDS
;	COMDAT pdata
pdata	SEGMENT
$pdata$??0?$allocator@H@std@@QEAA@XZ DD imagerel $LN3
	DD	imagerel $LN3+48
	DD	imagerel $unwind$??0?$allocator@H@std@@QEAA@XZ
pdata	ENDS
;	COMDAT pdata
pdata	SEGMENT
$pdata$?deallocate@?$allocator@H@std@@QEAAXQEAH_K@Z DD imagerel $LN3
	DD	imagerel $LN3+77
	DD	imagerel $unwind$?deallocate@?$allocator@H@std@@QEAAXQEAH_K@Z
pdata	ENDS
;	COMDAT pdata
pdata	SEGMENT
$pdata$?allocate@?$allocator@H@std@@QEAAPEAH_K@Z DD imagerel $LN3
	DD	imagerel $LN3+66
	DD	imagerel $unwind$?allocate@?$allocator@H@std@@QEAAPEAH_K@Z
pdata	ENDS
;	COMDAT pdata
pdata	SEGMENT
$pdata$?max_size@?$_Default_allocator_traits@V?$allocator@H@std@@@std@@SA_KAEBV?$allocator@H@2@@Z DD imagerel $LN3
	DD	imagerel $LN3+51
	DD	imagerel $unwind$?max_size@?$_Default_allocator_traits@V?$allocator@H@std@@@std@@SA_KAEBV?$allocator@H@2@@Z
pdata	ENDS
;	COMDAT pdata
pdata	SEGMENT
$pdata$??0?$vector@HV?$allocator@H@std@@@std@@QEAA@XZ DD imagerel $LN3
	DD	imagerel $LN3+137
	DD	imagerel $unwind$??0?$vector@HV?$allocator@H@std@@@std@@QEAA@XZ
pdata	ENDS
;	COMDAT pdata
pdata	SEGMENT
$pdata$??1?$vector@HV?$allocator@H@std@@@std@@QEAA@XZ DD imagerel $LN3
	DD	imagerel $LN3+203
	DD	imagerel $unwind$??1?$vector@HV?$allocator@H@std@@@std@@QEAA@XZ
pdata	ENDS
;	COMDAT pdata
pdata	SEGMENT
$pdata$?push_back@?$vector@HV?$allocator@H@std@@@std@@QEAAX$$QEAH@Z DD imagerel $LN3
	DD	imagerel $LN3+73
	DD	imagerel $unwind$?push_back@?$vector@HV?$allocator@H@std@@@std@@QEAAX$$QEAH@Z
pdata	ENDS
;	COMDAT pdata
pdata	SEGMENT
$pdata$?max_size@?$vector@HV?$allocator@H@std@@@std@@QEBA_KXZ DD imagerel $LN3
	DD	imagerel $LN3+102
	DD	imagerel $unwind$?max_size@?$vector@HV?$allocator@H@std@@@std@@QEBA_KXZ
pdata	ENDS
;	COMDAT pdata
pdata	SEGMENT
$pdata$?capacity@?$vector@HV?$allocator@H@std@@@std@@QEBA_KXZ DD imagerel $LN3
	DD	imagerel $LN3+75
	DD	imagerel $unwind$?capacity@?$vector@HV?$allocator@H@std@@@std@@QEBA_KXZ
pdata	ENDS
;	COMDAT pdata
pdata	SEGMENT
$pdata$??A?$vector@HV?$allocator@H@std@@@std@@QEAAAEAH_K@Z DD imagerel $LN12
	DD	imagerel $LN12+227
	DD	imagerel $unwind$??A?$vector@HV?$allocator@H@std@@@std@@QEAAAEAH_K@Z
pdata	ENDS
;	COMDAT pdata
pdata	SEGMENT
$pdata$?_Calculate_growth@?$vector@HV?$allocator@H@std@@@std@@AEBA_K_K@Z DD imagerel $LN5
	DD	imagerel $LN5+168
	DD	imagerel $unwind$?_Calculate_growth@?$vector@HV?$allocator@H@std@@@std@@AEBA_K_K@Z
pdata	ENDS
;	COMDAT pdata
pdata	SEGMENT
$pdata$?_Change_array@?$vector@HV?$allocator@H@std@@@std@@AEAAXQEAH_K1@Z DD imagerel $LN4
	DD	imagerel $LN4+274
	DD	imagerel $unwind$?_Change_array@?$vector@HV?$allocator@H@std@@@std@@AEAAXQEAH_K1@Z
pdata	ENDS
;	COMDAT pdata
pdata	SEGMENT
$pdata$?_Tidy@?$vector@HV?$allocator@H@std@@@std@@AEAAXXZ DD imagerel $LN4
	DD	imagerel $LN4+228
	DD	imagerel $unwind$?_Tidy@?$vector@HV?$allocator@H@std@@@std@@AEAAXXZ
pdata	ENDS
;	COMDAT pdata
pdata	SEGMENT
$pdata$?_Xlength@?$vector@HV?$allocator@H@std@@@std@@CAXXZ DD imagerel $LN3
	DD	imagerel $LN3+49
	DD	imagerel $unwind$?_Xlength@?$vector@HV?$allocator@H@std@@@std@@CAXXZ
pdata	ENDS
;	COMDAT pdata
pdata	SEGMENT
$pdata$?_Orphan_range_unlocked@?$vector@HV?$allocator@H@std@@@std@@AEBAXPEAH0@Z DD imagerel $LN8
	DD	imagerel $LN8+184
	DD	imagerel $unwind$?_Orphan_range_unlocked@?$vector@HV?$allocator@H@std@@@std@@AEBAXPEAH0@Z
pdata	ENDS
;	COMDAT pdata
pdata	SEGMENT
$pdata$?_Orphan_range_locked@?$vector@HV?$allocator@H@std@@@std@@AEBAXPEAH0@Z DD imagerel $LN4
	DD	imagerel $LN4+177
	DD	imagerel $unwind$?_Orphan_range_locked@?$vector@HV?$allocator@H@std@@@std@@AEBAXPEAH0@Z
pdata	ENDS
;	COMDAT pdata
pdata	SEGMENT
$pdata$?dtor$0@?0??_Orphan_range_locked@?$vector@HV?$allocator@H@std@@@std@@AEBAXPEAH0@Z@4HA DD imagerel ?dtor$0@?0??_Orphan_range_locked@?$vector@HV?$allocator@H@std@@@std@@AEBAXPEAH0@Z@4HA
	DD	imagerel ?dtor$0@?0??_Orphan_range_locked@?$vector@HV?$allocator@H@std@@@std@@AEBAXPEAH0@Z@4HA+37
	DD	imagerel $unwind$?dtor$0@?0??_Orphan_range_locked@?$vector@HV?$allocator@H@std@@@std@@AEBAXPEAH0@Z@4HA
pdata	ENDS
;	COMDAT pdata
pdata	SEGMENT
$pdata$?_Orphan_range@?$vector@HV?$allocator@H@std@@@std@@AEBAXPEAH0@Z DD imagerel $LN5
	DD	imagerel $LN5+117
	DD	imagerel $unwind$?_Orphan_range@?$vector@HV?$allocator@H@std@@@std@@AEBAXPEAH0@Z
pdata	ENDS
;	COMDAT pdata
pdata	SEGMENT
$pdata$?_Getal@?$vector@HV?$allocator@H@std@@@std@@AEAAAEAV?$allocator@H@2@XZ DD imagerel $LN3
	DD	imagerel $LN3+56
	DD	imagerel $unwind$?_Getal@?$vector@HV?$allocator@H@std@@@std@@AEAAAEAV?$allocator@H@2@XZ
pdata	ENDS
;	COMDAT pdata
pdata	SEGMENT
$pdata$?_Getal@?$vector@HV?$allocator@H@std@@@std@@AEBAAEBV?$allocator@H@2@XZ DD imagerel $LN3
	DD	imagerel $LN3+56
	DD	imagerel $unwind$?_Getal@?$vector@HV?$allocator@H@std@@@std@@AEBAAEBV?$allocator@H@2@XZ
pdata	ENDS
;	COMDAT pdata
pdata	SEGMENT
$pdata$??0?$_Vector_val@U?$_Simple_types@H@std@@@std@@QEAA@XZ DD imagerel $LN3
	DD	imagerel $LN3+105
	DD	imagerel $unwind$??0?$_Vector_val@U?$_Simple_types@H@std@@@std@@QEAA@XZ
pdata	ENDS
;	COMDAT pdata
pdata	SEGMENT
$pdata$?_Get_first@?$_Compressed_pair@V?$allocator@H@std@@V?$_Vector_val@U?$_Simple_types@H@std@@@2@$00@std@@QEAAAEAV?$allocator@H@2@XZ DD imagerel $LN3
	DD	imagerel $LN3+48
	DD	imagerel $unwind$?_Get_first@?$_Compressed_pair@V?$allocator@H@std@@V?$_Vector_val@U?$_Simple_types@H@std@@@2@$00@std@@QEAAAEAV?$allocator@H@2@XZ
pdata	ENDS
;	COMDAT pdata
pdata	SEGMENT
$pdata$?_Get_first@?$_Compressed_pair@V?$allocator@H@std@@V?$_Vector_val@U?$_Simple_types@H@std@@@2@$00@std@@QEBAAEBV?$allocator@H@2@XZ DD imagerel $LN3
	DD	imagerel $LN3+48
	DD	imagerel $unwind$?_Get_first@?$_Compressed_pair@V?$allocator@H@std@@V?$_Vector_val@U?$_Simple_types@H@std@@@2@$00@std@@QEBAAEBV?$allocator@H@2@XZ
pdata	ENDS
;	COMDAT pdata
pdata	SEGMENT
$pdata$?__autoclassinit2@?$vector@HV?$allocator@H@std@@@std@@QEAAX_K@Z DD imagerel $LN3
	DD	imagerel $LN3+50
	DD	imagerel $unwind$?__autoclassinit2@?$vector@HV?$allocator@H@std@@@std@@QEAAX_K@Z
pdata	ENDS
;	COMDAT pdata
pdata	SEGMENT
$pdata$??0?$Array@V?$basic_string@DU?$char_traits@D@std@@V?$allocator@D@2@@std@@$01@@QEAA@XZ DD imagerel $LN4
	DD	imagerel $LN4+93
	DD	imagerel $unwind$??0?$Array@V?$basic_string@DU?$char_traits@D@std@@V?$allocator@D@2@@std@@$01@@QEAA@XZ
pdata	ENDS
;	COMDAT pdata
pdata	SEGMENT
$pdata$??A?$Array@V?$basic_string@DU?$char_traits@D@std@@V?$allocator@D@2@@std@@$01@@QEAAAEAV?$basic_string@DU?$char_traits@D@std@@V?$allocator@D@2@@std@@_K@Z DD imagerel $LN3
	DD	imagerel $LN3+67
	DD	imagerel $unwind$??A?$Array@V?$basic_string@DU?$char_traits@D@std@@V?$allocator@D@2@@std@@$01@@QEAAAEAV?$basic_string@DU?$char_traits@D@std@@V?$allocator@D@2@@std@@_K@Z
pdata	ENDS
;	COMDAT pdata
pdata	SEGMENT
$pdata$??1?$Array@V?$basic_string@DU?$char_traits@D@std@@V?$allocator@D@2@@std@@$01@@QEAA@XZ DD imagerel $LN3
	DD	imagerel $LN3+63
	DD	imagerel $unwind$??1?$Array@V?$basic_string@DU?$char_traits@D@std@@V?$allocator@D@2@@std@@$01@@QEAA@XZ
pdata	ENDS
;	COMDAT pdata
pdata	SEGMENT
$pdata$??$?6DU?$char_traits@D@std@@V?$allocator@D@1@@std@@YAAEAV?$basic_ostream@DU?$char_traits@D@std@@@0@AEAV10@AEBV?$basic_string@DU?$char_traits@D@std@@V?$allocator@D@2@@0@@Z DD imagerel $LN3
	DD	imagerel $LN3+110
	DD	imagerel $unwind$??$?6DU?$char_traits@D@std@@V?$allocator@D@1@@std@@YAAEAV?$basic_ostream@DU?$char_traits@D@std@@@0@AEAV10@AEBV?$basic_string@DU?$char_traits@D@std@@V?$allocator@D@2@@0@@Z
pdata	ENDS
;	COMDAT pdata
pdata	SEGMENT
$pdata$??0?$Vector@V?$basic_string@DU?$char_traits@D@std@@V?$allocator@D@2@@std@@@@QEAA@XZ DD imagerel $LN3
	DD	imagerel $LN3+109
	DD	imagerel $unwind$??0?$Vector@V?$basic_string@DU?$char_traits@D@std@@V?$allocator@D@2@@std@@@@QEAA@XZ
pdata	ENDS
;	COMDAT pdata
pdata	SEGMENT
$pdata$?PushBack@?$Vector@V?$basic_string@DU?$char_traits@D@std@@V?$allocator@D@2@@std@@@@QEAAXAEBV?$basic_string@DU?$char_traits@D@std@@V?$allocator@D@2@@std@@@Z DD imagerel $LN4
	DD	imagerel $LN4+179
	DD	imagerel $unwind$?PushBack@?$Vector@V?$basic_string@DU?$char_traits@D@std@@V?$allocator@D@2@@std@@@@QEAAXAEBV?$basic_string@DU?$char_traits@D@std@@V?$allocator@D@2@@std@@@Z
pdata	ENDS
;	COMDAT pdata
pdata	SEGMENT
$pdata$??A?$Vector@V?$basic_string@DU?$char_traits@D@std@@V?$allocator@D@2@@std@@@@QEBAAEBV?$basic_string@DU?$char_traits@D@std@@V?$allocator@D@2@@std@@_K@Z DD imagerel $LN4
	DD	imagerel $LN4+75
	DD	imagerel $unwind$??A?$Vector@V?$basic_string@DU?$char_traits@D@std@@V?$allocator@D@2@@std@@@@QEBAAEBV?$basic_string@DU?$char_traits@D@std@@V?$allocator@D@2@@std@@_K@Z
pdata	ENDS
;	COMDAT pdata
pdata	SEGMENT
$pdata$?Size@?$Vector@V?$basic_string@DU?$char_traits@D@std@@V?$allocator@D@2@@std@@@@QEBA_KXZ DD imagerel $LN3
	DD	imagerel $LN3+52
	DD	imagerel $unwind$?Size@?$Vector@V?$basic_string@DU?$char_traits@D@std@@V?$allocator@D@2@@std@@@@QEBA_KXZ
pdata	ENDS
;	COMDAT pdata
pdata	SEGMENT
$pdata$?ReAlloc@?$Vector@V?$basic_string@DU?$char_traits@D@std@@V?$allocator@D@2@@std@@@@AEAAX_K@Z DD imagerel $LN11
	DD	imagerel $LN11+444
	DD	imagerel $unwind$?ReAlloc@?$Vector@V?$basic_string@DU?$char_traits@D@std@@V?$allocator@D@2@@std@@@@AEAAX_K@Z
pdata	ENDS
;	COMDAT pdata
pdata	SEGMENT
$pdata$?__autoclassinit2@?$Vector@V?$basic_string@DU?$char_traits@D@std@@V?$allocator@D@2@@std@@@@QEAAX_K@Z DD imagerel $LN3
	DD	imagerel $LN3+50
	DD	imagerel $unwind$?__autoclassinit2@?$Vector@V?$basic_string@DU?$char_traits@D@std@@V?$allocator@D@2@@std@@@@QEAAX_K@Z
pdata	ENDS
;	COMDAT pdata
pdata	SEGMENT
$pdata$??$PrintVector@V?$basic_string@DU?$char_traits@D@std@@V?$allocator@D@2@@std@@@@YAXAEBV?$Vector@V?$basic_string@DU?$char_traits@D@std@@V?$allocator@D@2@@std@@@@@Z DD imagerel $LN6
	DD	imagerel $LN6+184
	DD	imagerel $unwind$??$PrintVector@V?$basic_string@DU?$char_traits@D@std@@V?$allocator@D@2@@std@@@@YAXAEBV?$Vector@V?$basic_string@DU?$char_traits@D@std@@V?$allocator@D@2@@std@@@@@Z
pdata	ENDS
;	COMDAT pdata
pdata	SEGMENT
$pdata$??$move@AEAH@std@@YA$$QEAHAEAH@Z DD imagerel $LN3
	DD	imagerel $LN3+48
	DD	imagerel $unwind$??$move@AEAH@std@@YA$$QEAHAEAH@Z
pdata	ENDS
;	COMDAT pdata
pdata	SEGMENT
$pdata$??$emplace_back@H@?$vector@HV?$allocator@H@std@@@std@@QEAA?A_T$$QEAH@Z DD imagerel $LN4
	DD	imagerel $LN4+182
	DD	imagerel $unwind$??$emplace_back@H@?$vector@HV?$allocator@H@std@@@std@@QEAA?A_T$$QEAH@Z
pdata	ENDS
;	COMDAT pdata
pdata	SEGMENT
$pdata$??$forward@H@std@@YA$$QEAHAEAH@Z DD imagerel $LN3
	DD	imagerel $LN3+48
	DD	imagerel $unwind$??$forward@H@std@@YA$$QEAHAEAH@Z
pdata	ENDS
;	COMDAT pdata
pdata	SEGMENT
$pdata$??$_Emplace_back_with_unused_capacity@H@?$vector@HV?$allocator@H@std@@@std@@AEAA?A_T$$QEAH@Z DD imagerel $LN3
	DD	imagerel $LN3+211
	DD	imagerel $unwind$??$_Emplace_back_with_unused_capacity@H@?$vector@HV?$allocator@H@std@@@std@@AEAA?A_T$$QEAH@Z
pdata	ENDS
;	COMDAT pdata
pdata	SEGMENT
$pdata$??$_Unfancy@H@std@@YAPEAHPEAH@Z DD imagerel $LN3
	DD	imagerel $LN3+48
	DD	imagerel $unwind$??$_Unfancy@H@std@@YAPEAHPEAH@Z
pdata	ENDS
;	COMDAT pdata
pdata	SEGMENT
$pdata$??$construct@HH@?$_Default_allocator_traits@V?$allocator@H@std@@@std@@SAXAEAV?$allocator@H@1@QEAH$$QEAH@Z DD imagerel $LN5
	DD	imagerel $LN5+147
	DD	imagerel $unwind$??$construct@HH@?$_Default_allocator_traits@V?$allocator@H@std@@@std@@SAXAEAV?$allocator@H@1@QEAH$$QEAH@Z
pdata	ENDS
;	COMDAT pdata
pdata	SEGMENT
$pdata$??$_Emplace_reallocate@H@?$vector@HV?$allocator@H@std@@@std@@QEAAPEAHQEAH$$QEAH@Z DD imagerel $LN13
	DD	imagerel $LN13+584
	DD	imagerel $unwind$??$_Emplace_reallocate@H@?$vector@HV?$allocator@H@std@@@std@@QEAAPEAHQEAH$$QEAH@Z
pdata	ENDS
;	COMDAT pdata
pdata	SEGMENT
$pdata$?catch$0@?0???$_Emplace_reallocate@H@?$vector@HV?$allocator@H@std@@@std@@QEAAPEAHQEAH$$QEAH@Z@4HA DD imagerel ?catch$0@?0???$_Emplace_reallocate@H@?$vector@HV?$allocator@H@std@@@std@@QEAAPEAHQEAH$$QEAH@Z@4HA
	DD	imagerel ?catch$0@?0???$_Emplace_reallocate@H@?$vector@HV?$allocator@H@std@@@std@@QEAAPEAHQEAH$$QEAH@Z@4HA+91
	DD	imagerel $unwind$?catch$0@?0???$_Emplace_reallocate@H@?$vector@HV?$allocator@H@std@@@std@@QEAAPEAHQEAH$$QEAH@Z@4HA
pdata	ENDS
;	COMDAT pdata
pdata	SEGMENT
$pdata$?deallocate@?$allocator@U_Container_proxy@std@@@std@@QEAAXQEAU_Container_proxy@2@_K@Z DD imagerel $LN3
	DD	imagerel $LN3+74
	DD	imagerel $unwind$?deallocate@?$allocator@U_Container_proxy@std@@@std@@QEAAXQEAU_Container_proxy@2@_K@Z
pdata	ENDS
;	COMDAT pdata
pdata	SEGMENT
$pdata$?allocate@?$allocator@U_Container_proxy@std@@@std@@QEAAPEAU_Container_proxy@2@_K@Z DD imagerel $LN3
	DD	imagerel $LN3+66
	DD	imagerel $unwind$?allocate@?$allocator@U_Container_proxy@std@@@std@@QEAAPEAU_Container_proxy@2@_K@Z
pdata	ENDS
;	COMDAT pdata
pdata	SEGMENT
$pdata$??$?0H@?$allocator@U_Container_proxy@std@@@std@@QEAA@AEBV?$allocator@H@1@@Z DD imagerel $LN3
	DD	imagerel $LN3+53
	DD	imagerel $unwind$??$?0H@?$allocator@U_Container_proxy@std@@@std@@QEAA@AEBV?$allocator@H@1@@Z
pdata	ENDS
;	COMDAT pdata
pdata	SEGMENT
$pdata$??$exchange@PEAU_Container_proxy@std@@$$T@std@@YAPEAU_Container_proxy@0@AEAPEAU10@$$QEA$$T@Z DD imagerel $LN3
	DD	imagerel $LN3+84
	DD	imagerel $unwind$??$exchange@PEAU_Container_proxy@std@@$$T@std@@YAPEAU_Container_proxy@0@AEAPEAU10@$$QEA$$T@Z
pdata	ENDS
;	COMDAT pdata
pdata	SEGMENT
$pdata$??$_Delete_plain_internal@V?$allocator@U_Container_proxy@std@@@std@@@std@@YAXAEAV?$allocator@U_Container_proxy@std@@@0@QEAU_Container_proxy@0@@Z DD imagerel $LN3
	DD	imagerel $LN3+65
	DD	imagerel $unwind$??$_Delete_plain_internal@V?$allocator@U_Container_proxy@std@@@std@@@std@@YAXAEAV?$allocator@U_Container_proxy@std@@@0@QEAU_Container_proxy@0@@Z
pdata	ENDS
;	COMDAT pdata
pdata	SEGMENT
$pdata$??$?0$$V@?$_Compressed_pair@V?$allocator@H@std@@V?$_Vector_val@U?$_Simple_types@H@std@@@2@$00@std@@QEAA@U_Zero_then_variadic_args_t@1@@Z DD imagerel $LN3
	DD	imagerel $LN3+79
	DD	imagerel $unwind$??$?0$$V@?$_Compressed_pair@V?$allocator@H@std@@V?$_Vector_val@U?$_Simple_types@H@std@@@2@$00@std@@QEAA@U_Zero_then_variadic_args_t@1@@Z
pdata	ENDS
;	COMDAT pdata
pdata	SEGMENT
$pdata$??$_Alloc_proxy@V?$allocator@U_Container_proxy@std@@@std@@@_Container_base12@std@@QEAAX$$QEAV?$allocator@U_Container_proxy@std@@@1@@Z DD imagerel $LN3
	DD	imagerel $LN3+133
	DD	imagerel $unwind$??$_Alloc_proxy@V?$allocator@U_Container_proxy@std@@@std@@@_Container_base12@std@@QEAAX$$QEAV?$allocator@U_Container_proxy@std@@@1@@Z
pdata	ENDS
;	COMDAT pdata
pdata	SEGMENT
$pdata$??0_Sentry_base@?$basic_ostream@DU?$char_traits@D@std@@@std@@QEAA@AEAV12@@Z DD imagerel $LN4
	DD	imagerel $LN4+148
	DD	imagerel $unwind$??0_Sentry_base@?$basic_ostream@DU?$char_traits@D@std@@@std@@QEAA@AEAV12@@Z
pdata	ENDS
;	COMDAT pdata
pdata	SEGMENT
$pdata$??1_Sentry_base@?$basic_ostream@DU?$char_traits@D@std@@@std@@QEAA@XZ DD imagerel $LN4
	DD	imagerel $LN4+120
	DD	imagerel $unwind$??1_Sentry_base@?$basic_ostream@DU?$char_traits@D@std@@@std@@QEAA@XZ
pdata	ENDS
;	COMDAT pdata
pdata	SEGMENT
$pdata$??0sentry@?$basic_ostream@DU?$char_traits@D@std@@@std@@QEAA@AEAV12@@Z DD imagerel $LN7
	DD	imagerel $LN7+261
	DD	imagerel $unwind$??0sentry@?$basic_ostream@DU?$char_traits@D@std@@@std@@QEAA@AEAV12@@Z
pdata	ENDS
;	COMDAT pdata
pdata	SEGMENT
$pdata$?dtor$0@?0???0sentry@?$basic_ostream@DU?$char_traits@D@std@@@std@@QEAA@AEAV12@@Z@4HA DD imagerel ?dtor$0@?0???0sentry@?$basic_ostream@DU?$char_traits@D@std@@@std@@QEAA@AEAV12@@Z@4HA
	DD	imagerel ?dtor$0@?0???0sentry@?$basic_ostream@DU?$char_traits@D@std@@@std@@QEAA@AEAV12@@Z@4HA+39
	DD	imagerel $unwind$?dtor$0@?0???0sentry@?$basic_ostream@DU?$char_traits@D@std@@@std@@QEAA@AEAV12@@Z@4HA
pdata	ENDS
;	COMDAT pdata
pdata	SEGMENT
$pdata$??1sentry@?$basic_ostream@DU?$char_traits@D@std@@@std@@QEAA@XZ DD imagerel $LN6
	DD	imagerel $LN6+113
	DD	imagerel $unwind$??1sentry@?$basic_ostream@DU?$char_traits@D@std@@@std@@QEAA@XZ
pdata	ENDS
;	COMDAT pdata
pdata	SEGMENT
$pdata$??Bsentry@?$basic_ostream@DU?$char_traits@D@std@@@std@@QEBA_NXZ DD imagerel $LN3
	DD	imagerel $LN3+52
	DD	imagerel $unwind$??Bsentry@?$basic_ostream@DU?$char_traits@D@std@@@std@@QEBA_NXZ
pdata	ENDS
;	COMDAT pdata
pdata	SEGMENT
$pdata$??$min@_K@std@@YAAEB_KAEB_K0@Z DD imagerel $LN5
	DD	imagerel $LN5+119
	DD	imagerel $unwind$??$min@_K@std@@YAAEB_KAEB_K0@Z
pdata	ENDS
;	COMDAT pdata
pdata	SEGMENT
$pdata$??0?$_Container_proxy_ptr12@V?$allocator@U_Container_proxy@std@@@std@@@std@@QEAA@AEAV?$allocator@U_Container_proxy@std@@@1@AEAU_Container_base12@1@@Z DD imagerel $LN3
	DD	imagerel $LN3+184
	DD	imagerel $unwind$??0?$_Container_proxy_ptr12@V?$allocator@U_Container_proxy@std@@@std@@@std@@QEAA@AEAV?$allocator@U_Container_proxy@std@@@1@AEAU_Container_base12@1@@Z
pdata	ENDS
;	COMDAT pdata
pdata	SEGMENT
$pdata$??1?$_Container_proxy_ptr12@V?$allocator@U_Container_proxy@std@@@std@@@std@@QEAA@XZ DD imagerel $LN4
	DD	imagerel $LN4+80
	DD	imagerel $unwind$??1?$_Container_proxy_ptr12@V?$allocator@U_Container_proxy@std@@@std@@@std@@QEAA@XZ
pdata	ENDS
;	COMDAT pdata
pdata	SEGMENT
$pdata$??$_Convert_size@_K@std@@YA_K_K@Z DD imagerel $LN3
	DD	imagerel $LN3+48
	DD	imagerel $unwind$??$_Convert_size@_K@std@@YA_K_K@Z
pdata	ENDS
;	COMDAT pdata
pdata	SEGMENT
$pdata$??$?0D@?$allocator@U_Container_proxy@std@@@std@@QEAA@AEBV?$allocator@D@1@@Z DD imagerel $LN3
	DD	imagerel $LN3+53
	DD	imagerel $unwind$??$?0D@?$allocator@U_Container_proxy@std@@@std@@QEAA@AEBV?$allocator@D@1@@Z
pdata	ENDS
;	COMDAT pdata
pdata	SEGMENT
$pdata$??$?0$$V@?$_Compressed_pair@V?$allocator@D@std@@V?$_String_val@U?$_Simple_types@D@std@@@2@$00@std@@QEAA@U_Zero_then_variadic_args_t@1@@Z DD imagerel $LN3
	DD	imagerel $LN3+79
	DD	imagerel $unwind$??$?0$$V@?$_Compressed_pair@V?$allocator@D@std@@V?$_String_val@U?$_Simple_types@D@std@@@2@$00@std@@QEAA@U_Zero_then_variadic_args_t@1@@Z
pdata	ENDS
;	COMDAT pdata
pdata	SEGMENT
$pdata$??$_Unfancy@U_Container_proxy@std@@@std@@YAPEAU_Container_proxy@0@PEAU10@@Z DD imagerel $LN3
	DD	imagerel $LN3+48
	DD	imagerel $unwind$??$_Unfancy@U_Container_proxy@std@@@std@@YAPEAU_Container_proxy@0@PEAU10@@Z
pdata	ENDS
;	COMDAT pdata
pdata	SEGMENT
$pdata$??$_Destroy_range@V?$allocator@H@std@@@std@@YAXPEAHQEAHAEAV?$allocator@H@0@@Z DD imagerel $LN3
	DD	imagerel $LN3+51
	DD	imagerel $unwind$??$_Destroy_range@V?$allocator@H@std@@@std@@YAXPEAHQEAHAEAV?$allocator@H@0@@Z
pdata	ENDS
;	COMDAT pdata
pdata	SEGMENT
$pdata$??$_Destroy_in_place@PEAD@std@@YAXAEAPEAD@Z DD imagerel $LN3
	DD	imagerel $LN3+41
	DD	imagerel $unwind$??$_Destroy_in_place@PEAD@std@@YAXAEAPEAD@Z
pdata	ENDS
;	COMDAT pdata
pdata	SEGMENT
$pdata$??$_Unfancy@D@std@@YAPEADPEAD@Z DD imagerel $LN3
	DD	imagerel $LN3+48
	DD	imagerel $unwind$??$_Unfancy@D@std@@YAPEADPEAD@Z
pdata	ENDS
;	COMDAT pdata
pdata	SEGMENT
$pdata$??R<lambda_1>@?1??assign@?$basic_string@DU?$char_traits@D@std@@V?$allocator@D@2@@std@@QEAAAEAV23@QEBD_K@Z@QEBA@QEAD10@Z DD imagerel $LN3
	DD	imagerel $LN3+124
	DD	imagerel $unwind$??R<lambda_1>@?1??assign@?$basic_string@DU?$char_traits@D@std@@V?$allocator@D@2@@std@@QEAAAEAV23@QEBD_K@Z@QEBA@QEAD10@Z
pdata	ENDS
;	COMDAT pdata
pdata	SEGMENT
$pdata$??$_Reallocate_for@V<lambda_1>@?1??assign@?$basic_string@DU?$char_traits@D@std@@V?$allocator@D@2@@std@@QEAAAEAV34@QEBD_K@Z@PEBD@?$basic_string@DU?$char_traits@D@std@@V?$allocator@D@2@@std@@AEAAAEAV01@_KV<lambda_1>@?1??assign@01@QEAAAEAV01@QEBD0@Z@PEBD@Z DD imagerel $LN7
	DD	imagerel $LN7+476
	DD	imagerel $unwind$??$_Reallocate_for@V<lambda_1>@?1??assign@?$basic_string@DU?$char_traits@D@std@@V?$allocator@D@2@@std@@QEAAAEAV34@QEBD_K@Z@PEBD@?$basic_string@DU?$char_traits@D@std@@V?$allocator@D@2@@std@@AEAAAEAV01@_KV<lambda_1>@?1??assign@01@QEAAAEAV01@QEBD0@Z@PEBD@Z
pdata	ENDS
;	COMDAT pdata
pdata	SEGMENT
$pdata$??$addressof@$$CBV?$basic_string@DU?$char_traits@D@std@@V?$allocator@D@2@@std@@@std@@YAPEBV?$basic_string@DU?$char_traits@D@std@@V?$allocator@D@2@@0@AEBV10@@Z DD imagerel $LN3
	DD	imagerel $LN3+48
	DD	imagerel $unwind$??$addressof@$$CBV?$basic_string@DU?$char_traits@D@std@@V?$allocator@D@2@@std@@@std@@YAPEBV?$basic_string@DU?$char_traits@D@std@@V?$allocator@D@2@@0@AEBV10@@Z
pdata	ENDS
;	COMDAT pdata
pdata	SEGMENT
$pdata$??$_Pocca@V?$allocator@D@std@@@std@@YAXAEAV?$allocator@D@0@AEBV10@@Z DD imagerel $LN3
	DD	imagerel $LN3+46
	DD	imagerel $unwind$??$_Pocca@V?$allocator@D@std@@@std@@YAXAEAV?$allocator@D@0@AEBV10@@Z
pdata	ENDS
;	COMDAT pdata
pdata	SEGMENT
$pdata$??$_Construct_in_place@PEADAEBQEAD@std@@YAXAEAPEADAEBQEAD@Z DD imagerel $LN5
	DD	imagerel $LN5+182
	DD	imagerel $unwind$??$_Construct_in_place@PEADAEBQEAD@std@@YAXAEAPEADAEBQEAD@Z
pdata	ENDS
;	COMDAT pdata
pdata	SEGMENT
$pdata$??$max@_K@std@@YAAEB_KAEB_K0@Z DD imagerel $LN5
	DD	imagerel $LN5+119
	DD	imagerel $unwind$??$max@_K@std@@YAAEB_KAEB_K0@Z
pdata	ENDS
;	COMDAT pdata
pdata	SEGMENT
$pdata$??$_Get_size_of_n@$0BA@@std@@YA_K_K@Z DD imagerel $LN4
	DD	imagerel $LN4+91
	DD	imagerel $unwind$??$_Get_size_of_n@$0BA@@std@@YA_K_K@Z
pdata	ENDS
;	COMDAT pdata
pdata	SEGMENT
$pdata$??$_Allocate@$0BA@U_Default_allocate_traits@std@@$0A@@std@@YAPEAX_K@Z DD imagerel $LN6
	DD	imagerel $LN6+106
	DD	imagerel $unwind$??$_Allocate@$0BA@U_Default_allocate_traits@std@@$0A@@std@@YAPEAX_K@Z
pdata	ENDS
;	COMDAT pdata
pdata	SEGMENT
$pdata$??$_Deallocate@$0BA@$0A@@std@@YAXPEAX_K@Z DD imagerel $LN6
	DD	imagerel $LN6+124
	DD	imagerel $unwind$??$_Deallocate@$0BA@$0A@@std@@YAXPEAX_K@Z
pdata	ENDS
;	COMDAT pdata
pdata	SEGMENT
$pdata$??$_Get_size_of_n@$03@std@@YA_K_K@Z DD imagerel $LN4
	DD	imagerel $LN4+94
	DD	imagerel $unwind$??$_Get_size_of_n@$03@std@@YA_K_K@Z
pdata	ENDS
;	COMDAT pdata
pdata	SEGMENT
$pdata$??$_Get_size_of_n@$00@std@@YA_K_K@Z DD imagerel $LN3
	DD	imagerel $LN3+52
	DD	imagerel $unwind$??$_Get_size_of_n@$00@std@@YA_K_K@Z
pdata	ENDS
;	COMDAT pdata
pdata	SEGMENT
$pdata$??$construct_at@DAEBDX@std@@YAPEADQEADAEBD@Z DD imagerel $LN3
	DD	imagerel $LN3+109
	DD	imagerel $unwind$??$construct_at@DAEBDX@std@@YAPEADQEADAEBD@Z
pdata	ENDS
;	COMDAT pdata
pdata	SEGMENT
$pdata$??$_Voidify_iter@PEAD@std@@YAPEAXPEAD@Z DD imagerel $LN3
	DD	imagerel $LN3+48
	DD	imagerel $unwind$??$_Voidify_iter@PEAD@std@@YAPEAXPEAD@Z
pdata	ENDS
;	COMDAT pdata
pdata	SEGMENT
$pdata$??$forward@AEBD@std@@YAAEBDAEBD@Z DD imagerel $LN3
	DD	imagerel $LN3+48
	DD	imagerel $unwind$??$forward@AEBD@std@@YAAEBDAEBD@Z
pdata	ENDS
;	COMDAT pdata
pdata	SEGMENT
$pdata$??$addressof@U_Container_proxy@std@@@std@@YAPEAU_Container_proxy@0@AEAU10@@Z DD imagerel $LN3
	DD	imagerel $LN3+48
	DD	imagerel $unwind$??$addressof@U_Container_proxy@std@@@std@@YAPEAU_Container_proxy@0@AEAU10@@Z
pdata	ENDS
;	COMDAT pdata
pdata	SEGMENT
$pdata$??$_Voidify_iter@PEAU_Container_proxy@std@@@std@@YAPEAXPEAU_Container_proxy@0@@Z DD imagerel $LN3
	DD	imagerel $LN3+48
	DD	imagerel $unwind$??$_Voidify_iter@PEAU_Container_proxy@std@@@std@@YAPEAXPEAU_Container_proxy@0@@Z
pdata	ENDS
;	COMDAT pdata
pdata	SEGMENT
$pdata$??$forward@PEAU_Container_base12@std@@@std@@YA$$QEAPEAU_Container_base12@0@AEAPEAU10@@Z DD imagerel $LN3
	DD	imagerel $LN3+48
	DD	imagerel $unwind$??$forward@PEAU_Container_base12@std@@@std@@YA$$QEAPEAU_Container_base12@0@AEAPEAU10@@Z
pdata	ENDS
;	COMDAT pdata
pdata	SEGMENT
$pdata$??$construct_at@U_Container_proxy@std@@PEAU_Container_base12@2@X@std@@YAPEAU_Container_proxy@0@QEAU10@$$QEAPEAU_Container_base12@0@@Z DD imagerel $LN3
	DD	imagerel $LN3+119
	DD	imagerel $unwind$??$construct_at@U_Container_proxy@std@@PEAU_Container_base12@2@X@std@@YAPEAU_Container_proxy@0@QEAU10@$$QEAPEAU_Container_base12@0@@Z
pdata	ENDS
;	COMDAT pdata
pdata	SEGMENT
$pdata$??$_Insert_string@DU?$char_traits@D@std@@_K@std@@YAAEAV?$basic_ostream@DU?$char_traits@D@std@@@0@AEAV10@QEBD_K@Z DD imagerel $LN26
	DD	imagerel $LN26+1105
	DD	imagerel $unwind$??$_Insert_string@DU?$char_traits@D@std@@_K@std@@YAAEAV?$basic_ostream@DU?$char_traits@D@std@@@0@AEAV10@QEBD_K@Z
pdata	ENDS
;	COMDAT pdata
pdata	SEGMENT
$pdata$?dtor$0@?0???$_Insert_string@DU?$char_traits@D@std@@_K@std@@YAAEAV?$basic_ostream@DU?$char_traits@D@std@@@0@AEAV10@QEBD_K@Z@4HA DD imagerel ?dtor$0@?0???$_Insert_string@DU?$char_traits@D@std@@_K@std@@YAAEAV?$basic_ostream@DU?$char_traits@D@std@@@0@AEAV10@QEBD_K@Z@4HA
	DD	imagerel ?dtor$0@?0???$_Insert_string@DU?$char_traits@D@std@@_K@std@@YAAEAV?$basic_ostream@DU?$char_traits@D@std@@@0@AEAV10@QEBD_K@Z@4HA+36
	DD	imagerel $unwind$?dtor$0@?0???$_Insert_string@DU?$char_traits@D@std@@_K@std@@YAAEAV?$basic_ostream@DU?$char_traits@D@std@@@0@AEAV10@QEBD_K@Z@4HA
pdata	ENDS
;	COMDAT pdata
pdata	SEGMENT
$pdata$?catch$1@?0???$_Insert_string@DU?$char_traits@D@std@@_K@std@@YAAEAV?$basic_ostream@DU?$char_traits@D@std@@@0@AEAV10@QEBD_K@Z@4HA DD imagerel ?catch$1@?0???$_Insert_string@DU?$char_traits@D@std@@_K@std@@YAAEAV?$basic_ostream@DU?$char_traits@D@std@@@0@AEAV10@QEBD_K@Z@4HA
	DD	imagerel ?catch$1@?0???$_Insert_string@DU?$char_traits@D@std@@_K@std@@YAAEAV?$basic_ostream@DU?$char_traits@D@std@@@0@AEAV10@QEBD_K@Z@4HA+91
	DD	imagerel $unwind$?catch$1@?0???$_Insert_string@DU?$char_traits@D@std@@_K@std@@YAAEAV?$basic_ostream@DU?$char_traits@D@std@@@0@AEAV10@QEBD_K@Z@4HA
pdata	ENDS
;	COMDAT pdata
pdata	SEGMENT
$pdata$??$construct_at@HHX@std@@YAPEAHQEAH$$QEAH@Z DD imagerel $LN3
	DD	imagerel $LN3+108
	DD	imagerel $unwind$??$construct_at@HHX@std@@YAPEAHQEAH$$QEAH@Z
pdata	ENDS
;	COMDAT pdata
pdata	SEGMENT
$pdata$??$_Voidify_iter@PEAH@std@@YAPEAXPEAH@Z DD imagerel $LN3
	DD	imagerel $LN3+48
	DD	imagerel $unwind$??$_Voidify_iter@PEAH@std@@YAPEAXPEAH@Z
pdata	ENDS
;	COMDAT pdata
pdata	SEGMENT
$pdata$??$_Uninitialized_move@PEAHV?$allocator@H@std@@@std@@YAPEAHQEAH0PEAHAEAV?$allocator@H@0@@Z DD imagerel $LN8
	DD	imagerel $LN8+355
	DD	imagerel $unwind$??$_Uninitialized_move@PEAHV?$allocator@H@std@@@std@@YAPEAHQEAH0PEAHAEAV?$allocator@H@0@@Z
pdata	ENDS
;	COMDAT pdata
pdata	SEGMENT
$pdata$?dtor$0@?0???$_Uninitialized_move@PEAHV?$allocator@H@std@@@std@@YAPEAHQEAH0PEAHAEAV?$allocator@H@0@@Z@4HA DD imagerel ?dtor$0@?0???$_Uninitialized_move@PEAHV?$allocator@H@std@@@std@@YAPEAHQEAH0PEAHAEAV?$allocator@H@0@@Z@4HA
	DD	imagerel ?dtor$0@?0???$_Uninitialized_move@PEAHV?$allocator@H@std@@@std@@YAPEAHQEAH0PEAHAEAV?$allocator@H@0@@Z@4HA+36
	DD	imagerel $unwind$?dtor$0@?0???$_Uninitialized_move@PEAHV?$allocator@H@std@@@std@@YAPEAHQEAH0PEAHAEAV?$allocator@H@0@@Z@4HA
pdata	ENDS
;	COMDAT pdata
pdata	SEGMENT
$pdata$??$_Deallocate_plain@V?$allocator@U_Container_proxy@std@@@std@@@std@@YAXAEAV?$allocator@U_Container_proxy@std@@@0@QEAU_Container_proxy@0@@Z DD imagerel $LN3
	DD	imagerel $LN3+72
	DD	imagerel $unwind$??$_Deallocate_plain@V?$allocator@U_Container_proxy@std@@@std@@@std@@YAXAEAV?$allocator@U_Container_proxy@std@@@0@QEAU_Container_proxy@0@@Z
pdata	ENDS
;	COMDAT pdata
pdata	SEGMENT
$pdata$??$addressof@PEAD@std@@YAPEAPEADAEAPEAD@Z DD imagerel $LN3
	DD	imagerel $LN3+48
	DD	imagerel $unwind$??$addressof@PEAD@std@@YAPEAPEADAEAPEAD@Z
pdata	ENDS
;	COMDAT pdata
pdata	SEGMENT
$pdata$??$forward@AEBQEAD@std@@YAAEBQEADAEBQEAD@Z DD imagerel $LN3
	DD	imagerel $LN3+48
	DD	imagerel $unwind$??$forward@AEBQEAD@std@@YAAEBQEADAEBQEAD@Z
pdata	ENDS
;	COMDAT pdata
pdata	SEGMENT
$pdata$??$construct_at@PEADAEBQEADX@std@@YAPEAPEADQEAPEADAEBQEAD@Z DD imagerel $LN3
	DD	imagerel $LN3+110
	DD	imagerel $unwind$??$construct_at@PEADAEBQEADX@std@@YAPEAPEADQEAPEADAEBQEAD@Z
pdata	ENDS
;	COMDAT pdata
pdata	SEGMENT
$pdata$??$_Voidify_iter@PEAPEAD@std@@YAPEAXPEAPEAD@Z DD imagerel $LN3
	DD	imagerel $LN3+48
	DD	imagerel $unwind$??$_Voidify_iter@PEAPEAD@std@@YAPEAXPEAPEAD@Z
pdata	ENDS
;	COMDAT pdata
pdata	SEGMENT
$pdata$??$_Allocate_manually_vector_aligned@U_Default_allocate_traits@std@@@std@@YAPEAX_K@Z DD imagerel $LN13
	DD	imagerel $LN13+277
	DD	imagerel $unwind$??$_Allocate_manually_vector_aligned@U_Default_allocate_traits@std@@@std@@YAPEAX_K@Z
pdata	ENDS
;	COMDAT pdata
pdata	SEGMENT
$pdata$??$_Get_unwrapped@AEBQEAH@std@@YA?A_TAEBQEAH@Z DD imagerel $LN3
	DD	imagerel $LN3+51
	DD	imagerel $unwind$??$_Get_unwrapped@AEBQEAH@std@@YA?A_TAEBQEAH@Z
pdata	ENDS
;	COMDAT pdata
pdata	SEGMENT
$pdata$??$to_address@H@std@@YAPEAHQEAH@Z DD imagerel $LN3
	DD	imagerel $LN3+48
	DD	imagerel $unwind$??$to_address@H@std@@YAPEAHQEAH@Z
pdata	ENDS
;	COMDAT pdata
pdata	SEGMENT
$pdata$??$_Copy_memmove@PEAHPEAH@std@@YAPEAHPEAH00@Z DD imagerel $LN3
	DD	imagerel $LN3+196
	DD	imagerel $unwind$??$_Copy_memmove@PEAHPEAH@std@@YAPEAHPEAH00@Z
pdata	ENDS
;	COMDAT pdata
pdata	SEGMENT
$pdata$??0?$_Uninitialized_backout_al@V?$allocator@H@std@@@std@@QEAA@PEAHAEAV?$allocator@H@1@@Z DD imagerel $LN3
	DD	imagerel $LN3+111
	DD	imagerel $unwind$??0?$_Uninitialized_backout_al@V?$allocator@H@std@@@std@@QEAA@PEAHAEAV?$allocator@H@1@@Z
pdata	ENDS
;	COMDAT pdata
pdata	SEGMENT
$pdata$??1?$_Uninitialized_backout_al@V?$allocator@H@std@@@std@@QEAA@XZ DD imagerel $LN3
	DD	imagerel $LN3+78
	DD	imagerel $unwind$??1?$_Uninitialized_backout_al@V?$allocator@H@std@@@std@@QEAA@XZ
pdata	ENDS
;	COMDAT pdata
pdata	SEGMENT
$pdata$?_Release@?$_Uninitialized_backout_al@V?$allocator@H@std@@@std@@QEAAPEAHXZ DD imagerel $LN3
	DD	imagerel $LN3+73
	DD	imagerel $unwind$?_Release@?$_Uninitialized_backout_al@V?$allocator@H@std@@@std@@QEAAPEAHXZ
pdata	ENDS
;	COMDAT pdata
pdata	SEGMENT
$pdata$?__autoclassinit2@?$_Uninitialized_backout_al@V?$allocator@H@std@@@std@@QEAAX_K@Z DD imagerel $LN3
	DD	imagerel $LN3+50
	DD	imagerel $unwind$?__autoclassinit2@?$_Uninitialized_backout_al@V?$allocator@H@std@@@std@@QEAAX_K@Z
pdata	ENDS
;	COMDAT pdata
pdata	SEGMENT
$pdata$??$_Emplace_back@H@?$_Uninitialized_backout_al@V?$allocator@H@std@@@std@@QEAAX$$QEAH@Z DD imagerel $LN3
	DD	imagerel $LN3+158
	DD	imagerel $unwind$??$_Emplace_back@H@?$_Uninitialized_backout_al@V?$allocator@H@std@@@std@@QEAAX$$QEAH@Z
pdata	ENDS
;	COMDAT pdata
pdata	SEGMENT
$pdata$?deallocate@?$_Default_allocator_traits@V?$allocator@U_Container_proxy@std@@@std@@@std@@SAXAEAV?$allocator@U_Container_proxy@std@@@2@QEAU_Container_proxy@2@_K@Z DD imagerel $LN5
	DD	imagerel $LN5+114
	DD	imagerel $unwind$?deallocate@?$_Default_allocator_traits@V?$allocator@U_Container_proxy@std@@@std@@@std@@SAXAEAV?$allocator@U_Container_proxy@std@@@2@QEAU_Container_proxy@2@_K@Z
pdata	ENDS
;	COMDAT pdata
pdata	SEGMENT
$pdata$??$_To_address@PEAH@std@@YA?A_PAEBQEAH@Z DD imagerel $LN3
	DD	imagerel $LN3+56
	DD	imagerel $unwind$??$_To_address@PEAH@std@@YA?A_PAEBQEAH@Z
pdata	ENDS
;	COMDAT rtc$TMZ
rtc$TMZ	SEGMENT
_RTC_Shutdown.rtc$TMZ DQ FLAT:_RTC_Shutdown
rtc$TMZ	ENDS
;	COMDAT rtc$IMZ
rtc$IMZ	SEGMENT
_RTC_InitBase.rtc$IMZ DQ FLAT:_RTC_InitBase
rtc$IMZ	ENDS
;	COMDAT ??_R1A@?0A@EA@bad_array_new_length@std@@8
rdata$r	SEGMENT
??_R1A@?0A@EA@bad_array_new_length@std@@8 DD imagerel ??_R0?AVbad_array_new_length@std@@@8 ; std::bad_array_new_length::`RTTI Base Class Descriptor at (0,-1,0,64)'
	DD	02H
	DD	00H
	DD	0ffffffffH
	DD	00H
	DD	040H
	DD	imagerel ??_R3bad_array_new_length@std@@8
rdata$r	ENDS
;	COMDAT ??_R2bad_array_new_length@std@@8
rdata$r	SEGMENT
??_R2bad_array_new_length@std@@8 DD imagerel ??_R1A@?0A@EA@bad_array_new_length@std@@8 ; std::bad_array_new_length::`RTTI Base Class Array'
	DD	imagerel ??_R1A@?0A@EA@bad_alloc@std@@8
	DD	imagerel ??_R1A@?0A@EA@exception@std@@8
	ORG $+3
rdata$r	ENDS
;	COMDAT ??_R3bad_array_new_length@std@@8
rdata$r	SEGMENT
??_R3bad_array_new_length@std@@8 DD 00H			; std::bad_array_new_length::`RTTI Class Hierarchy Descriptor'
	DD	00H
	DD	03H
	DD	imagerel ??_R2bad_array_new_length@std@@8
rdata$r	ENDS
;	COMDAT ??_R4bad_array_new_length@std@@6B@
rdata$r	SEGMENT
??_R4bad_array_new_length@std@@6B@ DD 01H		; std::bad_array_new_length::`RTTI Complete Object Locator'
	DD	00H
	DD	00H
	DD	imagerel ??_R0?AVbad_array_new_length@std@@@8
	DD	imagerel ??_R3bad_array_new_length@std@@8
	DD	imagerel ??_R4bad_array_new_length@std@@6B@
rdata$r	ENDS
;	COMDAT ??_R1A@?0A@EA@bad_alloc@std@@8
rdata$r	SEGMENT
??_R1A@?0A@EA@bad_alloc@std@@8 DD imagerel ??_R0?AVbad_alloc@std@@@8 ; std::bad_alloc::`RTTI Base Class Descriptor at (0,-1,0,64)'
	DD	01H
	DD	00H
	DD	0ffffffffH
	DD	00H
	DD	040H
	DD	imagerel ??_R3bad_alloc@std@@8
rdata$r	ENDS
;	COMDAT ??_R2bad_alloc@std@@8
rdata$r	SEGMENT
??_R2bad_alloc@std@@8 DD imagerel ??_R1A@?0A@EA@bad_alloc@std@@8 ; std::bad_alloc::`RTTI Base Class Array'
	DD	imagerel ??_R1A@?0A@EA@exception@std@@8
	ORG $+3
rdata$r	ENDS
;	COMDAT ??_R3bad_alloc@std@@8
rdata$r	SEGMENT
??_R3bad_alloc@std@@8 DD 00H				; std::bad_alloc::`RTTI Class Hierarchy Descriptor'
	DD	00H
	DD	02H
	DD	imagerel ??_R2bad_alloc@std@@8
rdata$r	ENDS
;	COMDAT ??_R4bad_alloc@std@@6B@
rdata$r	SEGMENT
??_R4bad_alloc@std@@6B@ DD 01H				; std::bad_alloc::`RTTI Complete Object Locator'
	DD	00H
	DD	00H
	DD	imagerel ??_R0?AVbad_alloc@std@@@8
	DD	imagerel ??_R3bad_alloc@std@@8
	DD	imagerel ??_R4bad_alloc@std@@6B@
rdata$r	ENDS
;	COMDAT ??_R1A@?0A@EA@exception@std@@8
rdata$r	SEGMENT
??_R1A@?0A@EA@exception@std@@8 DD imagerel ??_R0?AVexception@std@@@8 ; std::exception::`RTTI Base Class Descriptor at (0,-1,0,64)'
	DD	00H
	DD	00H
	DD	0ffffffffH
	DD	00H
	DD	040H
	DD	imagerel ??_R3exception@std@@8
rdata$r	ENDS
;	COMDAT ??_R2exception@std@@8
rdata$r	SEGMENT
??_R2exception@std@@8 DD imagerel ??_R1A@?0A@EA@exception@std@@8 ; std::exception::`RTTI Base Class Array'
	ORG $+3
rdata$r	ENDS
;	COMDAT ??_R3exception@std@@8
rdata$r	SEGMENT
??_R3exception@std@@8 DD 00H				; std::exception::`RTTI Class Hierarchy Descriptor'
	DD	00H
	DD	01H
	DD	imagerel ??_R2exception@std@@8
rdata$r	ENDS
;	COMDAT ??_R4exception@std@@6B@
rdata$r	SEGMENT
??_R4exception@std@@6B@ DD 01H				; std::exception::`RTTI Complete Object Locator'
	DD	00H
	DD	00H
	DD	imagerel ??_R0?AVexception@std@@@8
	DD	imagerel ??_R3exception@std@@8
	DD	imagerel ??_R4exception@std@@6B@
rdata$r	ENDS
;	COMDAT ??_C@_0BA@FOIKENOD@vector?5too?5long@
CONST	SEGMENT
??_C@_0BA@FOIKENOD@vector?5too?5long@ DB 'vector too long', 00H ; `string'
CONST	ENDS
;	COMDAT ??_C@_0BL@EGNBEPHB@?9?9?9?9?9?9?9?9?9?9?9?9?9?9?9?9?9?9?9?9?9?9?9?9?9?6@
CONST	SEGMENT
??_C@_0BL@EGNBEPHB@?9?9?9?9?9?9?9?9?9?9?9?9?9?9?9?9?9?9?9?9?9?9?9?9?9?6@ DB '-'
	DB	'------------------------', 0aH, 00H		; `string'
CONST	ENDS
;	COMDAT ??_C@_1EA@LEKOKFNB@?$AA?$CC?$AAv?$AAe?$AAc?$AAt?$AAo?$AAr?$AA?5?$AAs?$AAu?$AAb?$AAs?$AAc?$AAr?$AAi@
CONST	SEGMENT
??_C@_1EA@LEKOKFNB@?$AA?$CC?$AAv?$AAe?$AAc?$AAt?$AAo?$AAr?$AA?5?$AAs?$AAu?$AAb?$AAs?$AAc?$AAr?$AAi@ DB '"'
	DB	00H, 'v', 00H, 'e', 00H, 'c', 00H, 't', 00H, 'o', 00H, 'r', 00H
	DB	' ', 00H, 's', 00H, 'u', 00H, 'b', 00H, 's', 00H, 'c', 00H, 'r'
	DB	00H, 'i', 00H, 'p', 00H, 't', 00H, ' ', 00H, 'o', 00H, 'u', 00H
	DB	't', 00H, ' ', 00H, 'o', 00H, 'f', 00H, ' ', 00H, 'r', 00H, 'a'
	DB	00H, 'n', 00H, 'g', 00H, 'e', 00H, '"', 00H, 00H, 00H ; `string'
CONST	ENDS
;	COMDAT ??_C@_1MC@BOBIJOFG@?$AAC?$AA?3?$AA?2?$AAP?$AAr?$AAo?$AAg?$AAr?$AAa?$AAm?$AA?5?$AAF?$AAi?$AAl?$AAe@
CONST	SEGMENT
??_C@_1MC@BOBIJOFG@?$AAC?$AA?3?$AA?2?$AAP?$AAr?$AAo?$AAg?$AAr?$AAa?$AAm?$AA?5?$AAF?$AAi?$AAl?$AAe@ DB 'C'
	DB	00H, ':', 00H, '\', 00H, 'P', 00H, 'r', 00H, 'o', 00H, 'g', 00H
	DB	'r', 00H, 'a', 00H, 'm', 00H, ' ', 00H, 'F', 00H, 'i', 00H, 'l'
	DB	00H, 'e', 00H, 's', 00H, '\', 00H, 'M', 00H, 'i', 00H, 'c', 00H
	DB	'r', 00H, 'o', 00H, 's', 00H, 'o', 00H, 'f', 00H, 't', 00H, ' '
	DB	00H, 'V', 00H, 'i', 00H, 's', 00H, 'u', 00H, 'a', 00H, 'l', 00H
	DB	' ', 00H, 'S', 00H, 't', 00H, 'u', 00H, 'd', 00H, 'i', 00H, 'o'
	DB	00H, '\', 00H, '2', 00H, '0', 00H, '2', 00H, '2', 00H, '\', 00H
	DB	'C', 00H, 'o', 00H, 'm', 00H, 'm', 00H, 'u', 00H, 'n', 00H, 'i'
	DB	00H, 't', 00H, 'y', 00H, '\', 00H, 'V', 00H, 'C', 00H, '\', 00H
	DB	'T', 00H, 'o', 00H, 'o', 00H, 'l', 00H, 's', 00H, '\', 00H, 'M'
	DB	00H, 'S', 00H, 'V', 00H, 'C', 00H, '\', 00H, '1', 00H, '4', 00H
	DB	'.', 00H, '3', 00H, '1', 00H, '.', 00H, '3', 00H, '1', 00H, '1'
	DB	00H, '0', 00H, '3', 00H, '\', 00H, 'i', 00H, 'n', 00H, 'c', 00H
	DB	'l', 00H, 'u', 00H, 'd', 00H, 'e', 00H, '\', 00H, 'v', 00H, 'e'
	DB	00H, 'c', 00H, 't', 00H, 'o', 00H, 'r', 00H, 00H, 00H ; `string'
CONST	ENDS
;	COMDAT ??_C@_0GB@JAALAKDN@C?3?2Program?5Files?2Microsoft?5Visu@
CONST	SEGMENT
??_C@_0GB@JAALAKDN@C?3?2Program?5Files?2Microsoft?5Visu@ DB 'C:\Program F'
	DB	'iles\Microsoft Visual Studio\2022\Community\VC\Tools\MSVC\14.'
	DB	'31.31103\include\vector', 00H		; `string'
CONST	ENDS
;	COMDAT ??_C@_0BO@PFKOHNJC@vector?5subscript?5out?5of?5range@
CONST	SEGMENT
??_C@_0BO@PFKOHNJC@vector?5subscript?5out?5of?5range@ DB 'vector subscrip'
	DB	't out of range', 00H			; `string'
CONST	ENDS
;	COMDAT ??_C@_03BFHCIDFI@C?$CL?$CL@
CONST	SEGMENT
??_C@_03BFHCIDFI@C?$CL?$CL@ DB 'C++', 00H		; `string'
CONST	ENDS
;	COMDAT ??_C@_0BK@FMKGFFM@These?5are?5Vector?$CIheader?$CJ?3@
CONST	SEGMENT
??_C@_0BK@FMKGFFM@These?5are?5Vector?$CIheader?$CJ?3@ DB 'These are Vecto'
	DB	'r(header):', 00H				; `string'
CONST	ENDS
;	COMDAT ??_C@_01FAMBOPH@4@
CONST	SEGMENT
??_C@_01FAMBOPH@4@ DB '4', 00H				; `string'
CONST	ENDS
;	COMDAT ??_C@_06CDFKILBB@Howell@
CONST	SEGMENT
??_C@_06CDFKILBB@Howell@ DB 'Howell', 00H		; `string'
CONST	ENDS
;	COMDAT ??_C@_0BA@DKBEKLFN@These?5are?5array@
CONST	SEGMENT
??_C@_0BA@DKBEKLFN@These?5are?5array@ DB 'These are array', 00H ; `string'
CONST	ENDS
;	COMDAT ??_C@_0BB@JGKPHEKI@These?5are?5vector@
CONST	SEGMENT
??_C@_0BB@JGKPHEKI@These?5are?5vector@ DB 'These are vector', 00H ; `string'
CONST	ENDS
;	COMDAT ??_C@_0BD@NLIPEFAP@These?5are?5integers@
CONST	SEGMENT
??_C@_0BD@NLIPEFAP@These?5are?5integers@ DB 'These are integers', 00H ; `string'
CONST	ENDS
;	COMDAT ??_C@_0BA@JFNIOLAK@string?5too?5long@
CONST	SEGMENT
??_C@_0BA@JFNIOLAK@string?5too?5long@ DB 'string too long', 00H ; `string'
CONST	ENDS
;	COMDAT ??_C@_1CG@JNLFBNGN@?$AA?$CC?$AAi?$AAn?$AAv?$AAa?$AAl?$AAi?$AAd?$AA?5?$AAa?$AAr?$AAg?$AAu?$AAm?$AAe@
CONST	SEGMENT
??_C@_1CG@JNLFBNGN@?$AA?$CC?$AAi?$AAn?$AAv?$AAa?$AAl?$AAi?$AAd?$AA?5?$AAa?$AAr?$AAg?$AAu?$AAm?$AAe@ DB '"'
	DB	00H, 'i', 00H, 'n', 00H, 'v', 00H, 'a', 00H, 'l', 00H, 'i', 00H
	DB	'd', 00H, ' ', 00H, 'a', 00H, 'r', 00H, 'g', 00H, 'u', 00H, 'm'
	DB	00H, 'e', 00H, 'n', 00H, 't', 00H, '"', 00H, 00H, 00H ; `string'
CONST	ENDS
;	COMDAT ??_C@_11LOCGONAA@@
CONST	SEGMENT
??_C@_11LOCGONAA@@ DB 00H, 00H				; `string'
CONST	ENDS
;	COMDAT ??_C@_1ME@MKDMFCMA@?$AAC?$AA?3?$AA?2?$AAP?$AAr?$AAo?$AAg?$AAr?$AAa?$AAm?$AA?5?$AAF?$AAi?$AAl?$AAe@
CONST	SEGMENT
??_C@_1ME@MKDMFCMA@?$AAC?$AA?3?$AA?2?$AAP?$AAr?$AAo?$AAg?$AAr?$AAa?$AAm?$AA?5?$AAF?$AAi?$AAl?$AAe@ DB 'C'
	DB	00H, ':', 00H, '\', 00H, 'P', 00H, 'r', 00H, 'o', 00H, 'g', 00H
	DB	'r', 00H, 'a', 00H, 'm', 00H, ' ', 00H, 'F', 00H, 'i', 00H, 'l'
	DB	00H, 'e', 00H, 's', 00H, '\', 00H, 'M', 00H, 'i', 00H, 'c', 00H
	DB	'r', 00H, 'o', 00H, 's', 00H, 'o', 00H, 'f', 00H, 't', 00H, ' '
	DB	00H, 'V', 00H, 'i', 00H, 's', 00H, 'u', 00H, 'a', 00H, 'l', 00H
	DB	' ', 00H, 'S', 00H, 't', 00H, 'u', 00H, 'd', 00H, 'i', 00H, 'o'
	DB	00H, '\', 00H, '2', 00H, '0', 00H, '2', 00H, '2', 00H, '\', 00H
	DB	'C', 00H, 'o', 00H, 'm', 00H, 'm', 00H, 'u', 00H, 'n', 00H, 'i'
	DB	00H, 't', 00H, 'y', 00H, '\', 00H, 'V', 00H, 'C', 00H, '\', 00H
	DB	'T', 00H, 'o', 00H, 'o', 00H, 'l', 00H, 's', 00H, '\', 00H, 'M'
	DB	00H, 'S', 00H, 'V', 00H, 'C', 00H, '\', 00H, '1', 00H, '4', 00H
	DB	'.', 00H, '3', 00H, '1', 00H, '.', 00H, '3', 00H, '1', 00H, '1'
	DB	00H, '0', 00H, '3', 00H, '\', 00H, 'i', 00H, 'n', 00H, 'c', 00H
	DB	'l', 00H, 'u', 00H, 'd', 00H, 'e', 00H, '\', 00H, 'x', 00H, 'm'
	DB	00H, 'e', 00H, 'm', 00H, 'o', 00H, 'r', 00H, 'y', 00H, 00H, 00H ; `string'
CONST	ENDS
;	COMDAT ??_C@_0GC@DLMJMPBP@C?3?2Program?5Files?2Microsoft?5Visu@
CONST	SEGMENT
??_C@_0GC@DLMJMPBP@C?3?2Program?5Files?2Microsoft?5Visu@ DB 'C:\Program F'
	DB	'iles\Microsoft Visual Studio\2022\Community\VC\Tools\MSVC\14.'
	DB	'31.31103\include\xmemory', 00H		; `string'
CONST	ENDS
;	COMDAT ??_C@_02DKCKIIND@?$CFs@
CONST	SEGMENT
??_C@_02DKCKIIND@?$CFs@ DB '%s', 00H			; `string'
CONST	ENDS
;	COMDAT ??_C@_0BB@FCMFBGOM@invalid?5argument@
CONST	SEGMENT
??_C@_0BB@FCMFBGOM@invalid?5argument@ DB 'invalid argument', 00H ; `string'
CONST	ENDS
;	COMDAT ?__LINE__Var@?0??_Adjust_manually_vector_aligned@std@@YAXAEAPEAXAEA_K@Z@4JA
_DATA	SEGMENT
?__LINE__Var@?0??_Adjust_manually_vector_aligned@std@@YAXAEAPEAXAEA_K@Z@4JA DD 091H ; `std::_Adjust_manually_vector_aligned'::`1'::__LINE__Var
_DATA	ENDS
;	COMDAT _CT??_R0?AVexception@std@@@8??0exception@std@@QEAA@AEBV01@@Z24
xdata$x	SEGMENT
_CT??_R0?AVexception@std@@@8??0exception@std@@QEAA@AEBV01@@Z24 DD 00H
	DD	imagerel ??_R0?AVexception@std@@@8
	DD	00H
	DD	0ffffffffH
	ORG $+4
	DD	018H
	DD	imagerel ??0exception@std@@QEAA@AEBV01@@Z
xdata$x	ENDS
;	COMDAT ??_R0?AVexception@std@@@8
data$r	SEGMENT
??_R0?AVexception@std@@@8 DQ FLAT:??_7type_info@@6B@	; std::exception `RTTI Type Descriptor'
	DQ	0000000000000000H
	DB	'.?AVexception@std@@', 00H
data$r	ENDS
;	COMDAT _CT??_R0?AVbad_alloc@std@@@8??0bad_alloc@std@@QEAA@AEBV01@@Z24
xdata$x	SEGMENT
_CT??_R0?AVbad_alloc@std@@@8??0bad_alloc@std@@QEAA@AEBV01@@Z24 DD 010H
	DD	imagerel ??_R0?AVbad_alloc@std@@@8
	DD	00H
	DD	0ffffffffH
	ORG $+4
	DD	018H
	DD	imagerel ??0bad_alloc@std@@QEAA@AEBV01@@Z
xdata$x	ENDS
;	COMDAT ??_R0?AVbad_alloc@std@@@8
data$r	SEGMENT
??_R0?AVbad_alloc@std@@@8 DQ FLAT:??_7type_info@@6B@	; std::bad_alloc `RTTI Type Descriptor'
	DQ	0000000000000000H
	DB	'.?AVbad_alloc@std@@', 00H
data$r	ENDS
;	COMDAT _CT??_R0?AVbad_array_new_length@std@@@8??0bad_array_new_length@std@@QEAA@AEBV01@@Z24
xdata$x	SEGMENT
_CT??_R0?AVbad_array_new_length@std@@@8??0bad_array_new_length@std@@QEAA@AEBV01@@Z24 DD 00H
	DD	imagerel ??_R0?AVbad_array_new_length@std@@@8
	DD	00H
	DD	0ffffffffH
	ORG $+4
	DD	018H
	DD	imagerel ??0bad_array_new_length@std@@QEAA@AEBV01@@Z
xdata$x	ENDS
;	COMDAT ??_R0?AVbad_array_new_length@std@@@8
data$r	SEGMENT
??_R0?AVbad_array_new_length@std@@@8 DQ FLAT:??_7type_info@@6B@ ; std::bad_array_new_length `RTTI Type Descriptor'
	DQ	0000000000000000H
	DB	'.?AVbad_array_new_length@std@@', 00H
data$r	ENDS
;	COMDAT _CTA3?AVbad_array_new_length@std@@
xdata$x	SEGMENT
_CTA3?AVbad_array_new_length@std@@ DD 03H
	DD	imagerel _CT??_R0?AVbad_array_new_length@std@@@8??0bad_array_new_length@std@@QEAA@AEBV01@@Z24
	DD	imagerel _CT??_R0?AVbad_alloc@std@@@8??0bad_alloc@std@@QEAA@AEBV01@@Z24
	DD	imagerel _CT??_R0?AVexception@std@@@8??0exception@std@@QEAA@AEBV01@@Z24
xdata$x	ENDS
;	COMDAT _TI3?AVbad_array_new_length@std@@
xdata$x	SEGMENT
_TI3?AVbad_array_new_length@std@@ DD 00H
	DD	imagerel ??1bad_array_new_length@std@@UEAA@XZ
	DD	00H
	DD	imagerel _CTA3?AVbad_array_new_length@std@@
xdata$x	ENDS
;	COMDAT ??_C@_0BF@KINCDENJ@bad?5array?5new?5length@
CONST	SEGMENT
??_C@_0BF@KINCDENJ@bad?5array?5new?5length@ DB 'bad array new length', 00H ; `string'
CONST	ENDS
;	COMDAT ??_7bad_array_new_length@std@@6B@
CONST	SEGMENT
??_7bad_array_new_length@std@@6B@ DQ FLAT:??_R4bad_array_new_length@std@@6B@ ; std::bad_array_new_length::`vftable'
	DQ	FLAT:??_Ebad_array_new_length@std@@UEAAPEAXI@Z
	DQ	FLAT:?what@exception@std@@UEBAPEBDXZ
CONST	ENDS
;	COMDAT ??_7bad_alloc@std@@6B@
CONST	SEGMENT
??_7bad_alloc@std@@6B@ DQ FLAT:??_R4bad_alloc@std@@6B@	; std::bad_alloc::`vftable'
	DQ	FLAT:??_Ebad_alloc@std@@UEAAPEAXI@Z
	DQ	FLAT:?what@exception@std@@UEBAPEBDXZ
CONST	ENDS
;	COMDAT ??_C@_0BC@EOODALEL@Unknown?5exception@
CONST	SEGMENT
??_C@_0BC@EOODALEL@Unknown?5exception@ DB 'Unknown exception', 00H ; `string'
CONST	ENDS
;	COMDAT ??_7exception@std@@6B@
CONST	SEGMENT
??_7exception@std@@6B@ DQ FLAT:??_R4exception@std@@6B@	; std::exception::`vftable'
	DQ	FLAT:??_Eexception@std@@UEAAPEAXI@Z
	DQ	FLAT:?what@exception@std@@UEBAPEBDXZ
CONST	ENDS
;	COMDAT xdata
xdata	SEGMENT
$unwind$??$_To_address@PEAH@std@@YA?A_PAEBQEAH@Z DD 025051301H
	DD	010e2313H
	DD	07007001dH
	DD	05006H
xdata	ENDS
;	COMDAT xdata
xdata	SEGMENT
$unwind$?deallocate@?$_Default_allocator_traits@V?$allocator@U_Container_proxy@std@@@std@@@std@@SAXAEAV?$allocator@U_Container_proxy@std@@@2@QEAU_Container_proxy@2@_K@Z DD 025051d01H
	DD	0118231dH
	DD	07011001dH
	DD	05010H
xdata	ENDS
;	COMDAT xdata
xdata	SEGMENT
$unwind$??$_Emplace_back@H@?$_Uninitialized_backout_al@V?$allocator@H@std@@@std@@QEAAX$$QEAH@Z DD 025051801H
	DD	01132318H
	DD	0700c0021H
	DD	0500bH
xdata	ENDS
;	COMDAT xdata
xdata	SEGMENT
$unwind$?__autoclassinit2@?$_Uninitialized_backout_al@V?$allocator@H@std@@@std@@QEAAX_K@Z DD 05051601H
	DD	01130316H
	DD	0700c0019H
	DD	0500bH
xdata	ENDS
;	COMDAT xdata
xdata	SEGMENT
$unwind$?_Release@?$_Uninitialized_backout_al@V?$allocator@H@std@@@std@@QEAAPEAHXZ DD 025051301H
	DD	010e2313H
	DD	07007001dH
	DD	05006H
xdata	ENDS
;	COMDAT xdata
xdata	SEGMENT
$unwind$??1?$_Uninitialized_backout_al@V?$allocator@H@std@@@std@@QEAA@XZ DD 025051301H
	DD	010e2313H
	DD	07007001dH
	DD	05006H
xdata	ENDS
;	COMDAT xdata
xdata	SEGMENT
$unwind$??0?$_Uninitialized_backout_al@V?$allocator@H@std@@@std@@QEAA@PEAHAEAV?$allocator@H@1@@Z DD 025051d01H
	DD	0118231dH
	DD	07011001dH
	DD	05010H
xdata	ENDS
;	COMDAT xdata
xdata	SEGMENT
$unwind$??$_Copy_memmove@PEAHPEAH@std@@YAPEAHPEAH00@Z DD 025051d01H
	DD	0118231dH
	DD	070110039H
	DD	05010H
xdata	ENDS
;	COMDAT xdata
xdata	SEGMENT
$unwind$??$to_address@H@std@@YAPEAHQEAH@Z DD 025051301H
	DD	010e2313H
	DD	07007001dH
	DD	05006H
xdata	ENDS
;	COMDAT xdata
xdata	SEGMENT
$unwind$??$_Get_unwrapped@AEBQEAH@std@@YA?A_TAEBQEAH@Z DD 025051301H
	DD	010e2313H
	DD	07007001dH
	DD	05006H
xdata	ENDS
;	COMDAT xdata
xdata	SEGMENT
$unwind$??$_Allocate_manually_vector_aligned@U_Default_allocate_traits@std@@@std@@YAPEAX_K@Z DD 035051301H
	DD	010e3313H
	DD	07007002bH
	DD	05006H
xdata	ENDS
;	COMDAT xdata
xdata	SEGMENT
$unwind$??$_Voidify_iter@PEAPEAD@std@@YAPEAXPEAPEAD@Z DD 025051301H
	DD	010e2313H
	DD	07007001dH
	DD	05006H
xdata	ENDS
;	COMDAT xdata
xdata	SEGMENT
$unwind$??$construct_at@PEADAEBQEADX@std@@YAPEAPEADQEAPEADAEBQEAD@Z DD 025051801H
	DD	01132318H
	DD	0700c0021H
	DD	0500bH
xdata	ENDS
;	COMDAT xdata
xdata	SEGMENT
$unwind$??$forward@AEBQEAD@std@@YAAEBQEADAEBQEAD@Z DD 025051301H
	DD	010e2313H
	DD	07007001dH
	DD	05006H
xdata	ENDS
;	COMDAT xdata
xdata	SEGMENT
$unwind$??$addressof@PEAD@std@@YAPEAPEADAEAPEAD@Z DD 025051301H
	DD	010e2313H
	DD	07007001dH
	DD	05006H
xdata	ENDS
;	COMDAT xdata
xdata	SEGMENT
$ip2state$??$_Deallocate_plain@V?$allocator@U_Container_proxy@std@@@std@@@std@@YAXAEAV?$allocator@U_Container_proxy@std@@@0@QEAU_Container_proxy@0@@Z DB 02H
	DB	00H
	DB	00H
xdata	ENDS
;	COMDAT xdata
xdata	SEGMENT
$cppxdata$??$_Deallocate_plain@V?$allocator@U_Container_proxy@std@@@std@@@std@@YAXAEAV?$allocator@U_Container_proxy@std@@@0@QEAU_Container_proxy@0@@Z DB 060H
	DD	imagerel $ip2state$??$_Deallocate_plain@V?$allocator@U_Container_proxy@std@@@std@@@std@@YAXAEAV?$allocator@U_Container_proxy@std@@@0@QEAU_Container_proxy@0@@Z
xdata	ENDS
;	COMDAT xdata
xdata	SEGMENT
$unwind$??$_Deallocate_plain@V?$allocator@U_Container_proxy@std@@@std@@@std@@YAXAEAV?$allocator@U_Container_proxy@std@@@0@QEAU_Container_proxy@0@@Z DD 025051819H
	DD	01132318H
	DD	0700c001dH
	DD	0500bH
	DD	imagerel __CxxFrameHandler4
	DD	imagerel $cppxdata$??$_Deallocate_plain@V?$allocator@U_Container_proxy@std@@@std@@@std@@YAXAEAV?$allocator@U_Container_proxy@std@@@0@QEAU_Container_proxy@0@@Z
xdata	ENDS
;	COMDAT voltbl
voltbl	SEGMENT
_volmd	DB	00H
	DB	05H
voltbl	ENDS
;	COMDAT voltbl
voltbl	SEGMENT
_volmd	DW	045H
	DW	014aH
voltbl	ENDS
;	COMDAT xdata
xdata	SEGMENT
$unwind$?dtor$0@?0???$_Uninitialized_move@PEAHV?$allocator@H@std@@@std@@YAPEAHQEAH0PEAHAEAV?$allocator@H@0@@Z@4HA DD 031001H
	DD	0700c4210H
	DD	0500bH
xdata	ENDS
;	COMDAT xdata
xdata	SEGMENT
$ip2state$??$_Uninitialized_move@PEAHV?$allocator@H@std@@@std@@YAPEAHQEAH0PEAHAEAV?$allocator@H@0@@Z DB 06H
	DB	00H
	DB	00H
	DB	095H, 03H
	DB	02H
	DB	'~'
	DB	00H
xdata	ENDS
;	COMDAT xdata
xdata	SEGMENT
$stateUnwindMap$??$_Uninitialized_move@PEAHV?$allocator@H@std@@@std@@YAPEAHQEAH0PEAHAEAV?$allocator@H@0@@Z DB 02H
	DB	0eH
	DD	imagerel ?dtor$0@?0???$_Uninitialized_move@PEAHV?$allocator@H@std@@@std@@YAPEAHQEAH0PEAHAEAV?$allocator@H@0@@Z@4HA
xdata	ENDS
;	COMDAT xdata
xdata	SEGMENT
$cppxdata$??$_Uninitialized_move@PEAHV?$allocator@H@std@@@std@@YAPEAHQEAH0PEAHAEAV?$allocator@H@0@@Z DB 028H
	DD	imagerel $stateUnwindMap$??$_Uninitialized_move@PEAHV?$allocator@H@std@@@std@@YAPEAHQEAH0PEAHAEAV?$allocator@H@0@@Z
	DD	imagerel $ip2state$??$_Uninitialized_move@PEAHV?$allocator@H@std@@@std@@YAPEAHQEAH0PEAHAEAV?$allocator@H@0@@Z
xdata	ENDS
;	COMDAT xdata
xdata	SEGMENT
$unwind$??$_Uninitialized_move@PEAHV?$allocator@H@std@@@std@@YAPEAHQEAH0PEAHAEAV?$allocator@H@0@@Z DD 025054c19H
	DD	011d2322H
	DD	07016002fH
	DD	05015H
	DD	imagerel __GSHandlerCheck_EH4
	DD	imagerel $cppxdata$??$_Uninitialized_move@PEAHV?$allocator@H@std@@@std@@YAPEAHQEAH0PEAHAEAV?$allocator@H@0@@Z
	DD	016aH
xdata	ENDS
;	COMDAT CONST
CONST	SEGMENT
??$_Uninitialized_move@PEAHV?$allocator@H@std@@@std@@YAPEAHQEAH0PEAHAEAV?$allocator@H@0@@Z$rtcName$0 DB 05fH ; std::_Uninitialized_move<int *,std::allocator<int> >
	DB	042H
	DB	061H
	DB	063H
	DB	06bH
	DB	06fH
	DB	075H
	DB	074H
	DB	00H
	ORG $+7
??$_Uninitialized_move@PEAHV?$allocator@H@std@@@std@@YAPEAHQEAH0PEAHAEAV?$allocator@H@0@@Z$rtcVarDesc DD 068H ; std::_Uninitialized_move<int *,std::allocator<int> >
	DD	018H
	DQ	FLAT:??$_Uninitialized_move@PEAHV?$allocator@H@std@@@std@@YAPEAHQEAH0PEAHAEAV?$allocator@H@0@@Z$rtcName$0
	ORG $+48
??$_Uninitialized_move@PEAHV?$allocator@H@std@@@std@@YAPEAHQEAH0PEAHAEAV?$allocator@H@0@@Z$rtcFrameData DD 01H ; std::_Uninitialized_move<int *,std::allocator<int> >
	DD	00H
	DQ	FLAT:??$_Uninitialized_move@PEAHV?$allocator@H@std@@@std@@YAPEAHQEAH0PEAHAEAV?$allocator@H@0@@Z$rtcVarDesc
CONST	ENDS
;	COMDAT xdata
xdata	SEGMENT
$unwind$??$_Voidify_iter@PEAH@std@@YAPEAXPEAH@Z DD 025051301H
	DD	010e2313H
	DD	07007001dH
	DD	05006H
xdata	ENDS
;	COMDAT xdata
xdata	SEGMENT
$unwind$??$construct_at@HHX@std@@YAPEAHQEAH$$QEAH@Z DD 025051801H
	DD	01132318H
	DD	0700c0021H
	DD	0500bH
xdata	ENDS
;	COMDAT voltbl
voltbl	SEGMENT
_volmd	DB	00H
	DB	05H
voltbl	ENDS
;	COMDAT voltbl
voltbl	SEGMENT
_volmd	DB	00H
	DB	05H
voltbl	ENDS
;	COMDAT voltbl
voltbl	SEGMENT
_volmd	DW	040H
	DW	0438H
voltbl	ENDS
;	COMDAT xdata
xdata	SEGMENT
$unwind$?catch$1@?0???$_Insert_string@DU?$char_traits@D@std@@_K@std@@YAAEAV?$basic_ostream@DU?$char_traits@D@std@@@0@AEAV10@QEBD_K@Z@4HA DD 031001H
	DD	0700c4210H
	DD	0500bH
xdata	ENDS
;	COMDAT xdata
xdata	SEGMENT
$unwind$?dtor$0@?0???$_Insert_string@DU?$char_traits@D@std@@_K@std@@YAAEAV?$basic_ostream@DU?$char_traits@D@std@@@0@AEAV10@QEBD_K@Z@4HA DD 031001H
	DD	0700c4210H
	DD	0500bH
xdata	ENDS
;	COMDAT xdata
xdata	SEGMENT
$ip2state$??$_Insert_string@DU?$char_traits@D@std@@_K@std@@YAAEAV?$basic_ostream@DU?$char_traits@D@std@@@0@AEAV10@QEBD_K@Z DB 0aH
	DB	00H
	DB	00H
	DB	0e9H, 03H
	DB	02H
	DB	'<'
	DB	04H
	DB	0d5H, 0aH
	DB	02H
	DB	08aH
	DB	00H
xdata	ENDS
;	COMDAT xdata
xdata	SEGMENT
$handlerMap$??$_Insert_string@DU?$char_traits@D@std@@_K@std@@YAAEAV?$basic_ostream@DU?$char_traits@D@std@@@0@AEAV10@QEBD_K@Z DB 02H
	DB	01H
	DB	080H
	DD	imagerel ?catch$1@?0???$_Insert_string@DU?$char_traits@D@std@@_K@std@@YAAEAV?$basic_ostream@DU?$char_traits@D@std@@@0@AEAV10@QEBD_K@Z@4HA
xdata	ENDS
;	COMDAT xdata
xdata	SEGMENT
$tryMap$??$_Insert_string@DU?$char_traits@D@std@@_K@std@@YAAEAV?$basic_ostream@DU?$char_traits@D@std@@@0@AEAV10@QEBD_K@Z DB 02H
	DB	02H
	DB	02H
	DB	04H
	DD	imagerel $handlerMap$??$_Insert_string@DU?$char_traits@D@std@@_K@std@@YAAEAV?$basic_ostream@DU?$char_traits@D@std@@@0@AEAV10@QEBD_K@Z
xdata	ENDS
;	COMDAT xdata
xdata	SEGMENT
$stateUnwindMap$??$_Insert_string@DU?$char_traits@D@std@@_K@std@@YAAEAV?$basic_ostream@DU?$char_traits@D@std@@@0@AEAV10@QEBD_K@Z DB 06H
	DB	0eH
	DD	imagerel ?dtor$0@?0???$_Insert_string@DU?$char_traits@D@std@@_K@std@@YAAEAV?$basic_ostream@DU?$char_traits@D@std@@@0@AEAV10@QEBD_K@Z@4HA
	DB	028H
	DB	030H
xdata	ENDS
;	COMDAT xdata
xdata	SEGMENT
$cppxdata$??$_Insert_string@DU?$char_traits@D@std@@_K@std@@YAAEAV?$basic_ostream@DU?$char_traits@D@std@@@0@AEAV10@QEBD_K@Z DB 038H
	DD	imagerel $stateUnwindMap$??$_Insert_string@DU?$char_traits@D@std@@_K@std@@YAAEAV?$basic_ostream@DU?$char_traits@D@std@@@0@AEAV10@QEBD_K@Z
	DD	imagerel $tryMap$??$_Insert_string@DU?$char_traits@D@std@@_K@std@@YAAEAV?$basic_ostream@DU?$char_traits@D@std@@@0@AEAV10@QEBD_K@Z
	DD	imagerel $ip2state$??$_Insert_string@DU?$char_traits@D@std@@_K@std@@YAAEAV?$basic_ostream@DU?$char_traits@D@std@@@0@AEAV10@QEBD_K@Z
xdata	ENDS
;	COMDAT xdata
xdata	SEGMENT
$unwind$??$_Insert_string@DU?$char_traits@D@std@@_K@std@@YAAEAV?$basic_ostream@DU?$char_traits@D@std@@@0@AEAV10@QEBD_K@Z DD 025054719H
	DD	0118231dH
	DD	070110043H
	DD	05010H
	DD	imagerel __GSHandlerCheck_EH4
	DD	imagerel $cppxdata$??$_Insert_string@DU?$char_traits@D@std@@_K@std@@YAAEAV?$basic_ostream@DU?$char_traits@D@std@@@0@AEAV10@QEBD_K@Z
	DD	0203H
xdata	ENDS
;	COMDAT CONST
CONST	SEGMENT
??$_Insert_string@DU?$char_traits@D@std@@_K@std@@YAAEAV?$basic_ostream@DU?$char_traits@D@std@@@0@AEAV10@QEBD_K@Z$rtcName$0 DB 05fH ; std::_Insert_string<char,std::char_traits<char>,unsigned __int64>
	DB	04fH
	DB	06bH
	DB	00H
	ORG $+12
??$_Insert_string@DU?$char_traits@D@std@@_K@std@@YAAEAV?$basic_ostream@DU?$char_traits@D@std@@@0@AEAV10@QEBD_K@Z$rtcVarDesc DD 068H ; std::_Insert_string<char,std::char_traits<char>,unsigned __int64>
	DD	010H
	DQ	FLAT:??$_Insert_string@DU?$char_traits@D@std@@_K@std@@YAAEAV?$basic_ostream@DU?$char_traits@D@std@@@0@AEAV10@QEBD_K@Z$rtcName$0
	ORG $+48
??$_Insert_string@DU?$char_traits@D@std@@_K@std@@YAAEAV?$basic_ostream@DU?$char_traits@D@std@@@0@AEAV10@QEBD_K@Z$rtcFrameData DD 01H ; std::_Insert_string<char,std::char_traits<char>,unsigned __int64>
	DD	00H
	DQ	FLAT:??$_Insert_string@DU?$char_traits@D@std@@_K@std@@YAAEAV?$basic_ostream@DU?$char_traits@D@std@@@0@AEAV10@QEBD_K@Z$rtcVarDesc
CONST	ENDS
;	COMDAT xdata
xdata	SEGMENT
$unwind$??$construct_at@U_Container_proxy@std@@PEAU_Container_base12@2@X@std@@YAPEAU_Container_proxy@0@QEAU10@$$QEAPEAU_Container_base12@0@@Z DD 025051801H
	DD	01132318H
	DD	0700c0021H
	DD	0500bH
xdata	ENDS
;	COMDAT xdata
xdata	SEGMENT
$unwind$??$forward@PEAU_Container_base12@std@@@std@@YA$$QEAPEAU_Container_base12@0@AEAPEAU10@@Z DD 025051301H
	DD	010e2313H
	DD	07007001dH
	DD	05006H
xdata	ENDS
;	COMDAT xdata
xdata	SEGMENT
$unwind$??$_Voidify_iter@PEAU_Container_proxy@std@@@std@@YAPEAXPEAU_Container_proxy@0@@Z DD 025051301H
	DD	010e2313H
	DD	07007001dH
	DD	05006H
xdata	ENDS
;	COMDAT xdata
xdata	SEGMENT
$unwind$??$addressof@U_Container_proxy@std@@@std@@YAPEAU_Container_proxy@0@AEAU10@@Z DD 025051301H
	DD	010e2313H
	DD	07007001dH
	DD	05006H
xdata	ENDS
;	COMDAT xdata
xdata	SEGMENT
$unwind$??$forward@AEBD@std@@YAAEBDAEBD@Z DD 025051301H
	DD	010e2313H
	DD	07007001dH
	DD	05006H
xdata	ENDS
;	COMDAT xdata
xdata	SEGMENT
$unwind$??$_Voidify_iter@PEAD@std@@YAPEAXPEAD@Z DD 025051301H
	DD	010e2313H
	DD	07007001dH
	DD	05006H
xdata	ENDS
;	COMDAT xdata
xdata	SEGMENT
$unwind$??$construct_at@DAEBDX@std@@YAPEADQEADAEBD@Z DD 025051801H
	DD	01132318H
	DD	0700c0021H
	DD	0500bH
xdata	ENDS
;	COMDAT xdata
xdata	SEGMENT
$unwind$??$_Get_size_of_n@$00@std@@YA_K_K@Z DD 025051301H
	DD	010e2313H
	DD	070070021H
	DD	05006H
xdata	ENDS
;	COMDAT xdata
xdata	SEGMENT
$unwind$??$_Get_size_of_n@$03@std@@YA_K_K@Z DD 025051301H
	DD	010e2313H
	DD	070070025H
	DD	05006H
xdata	ENDS
;	COMDAT xdata
xdata	SEGMENT
$ip2state$??$_Deallocate@$0BA@$0A@@std@@YAXPEAX_K@Z DB 02H
	DB	00H
	DB	00H
xdata	ENDS
;	COMDAT xdata
xdata	SEGMENT
$cppxdata$??$_Deallocate@$0BA@$0A@@std@@YAXPEAX_K@Z DB 060H
	DD	imagerel $ip2state$??$_Deallocate@$0BA@$0A@@std@@YAXPEAX_K@Z
xdata	ENDS
;	COMDAT xdata
xdata	SEGMENT
$unwind$??$_Deallocate@$0BA@$0A@@std@@YAXPEAX_K@Z DD 025051819H
	DD	01132318H
	DD	0700c001dH
	DD	0500bH
	DD	imagerel __CxxFrameHandler4
	DD	imagerel $cppxdata$??$_Deallocate@$0BA@$0A@@std@@YAXPEAX_K@Z
xdata	ENDS
;	COMDAT xdata
xdata	SEGMENT
$unwind$??$_Allocate@$0BA@U_Default_allocate_traits@std@@$0A@@std@@YAPEAX_K@Z DD 025051301H
	DD	010e2313H
	DD	07007001dH
	DD	05006H
xdata	ENDS
;	COMDAT xdata
xdata	SEGMENT
$unwind$??$_Get_size_of_n@$0BA@@std@@YA_K_K@Z DD 025051301H
	DD	010e2313H
	DD	070070025H
	DD	05006H
xdata	ENDS
;	COMDAT xdata
xdata	SEGMENT
$unwind$??$max@_K@std@@YAAEB_KAEB_K0@Z DD 025051801H
	DD	01132318H
	DD	0700c0021H
	DD	0500bH
xdata	ENDS
;	COMDAT xdata
xdata	SEGMENT
$unwind$??$_Construct_in_place@PEADAEBQEAD@std@@YAXAEAPEADAEBQEAD@Z DD 025051801H
	DD	01132318H
	DD	0700c0023H
	DD	0500bH
xdata	ENDS
;	COMDAT xdata
xdata	SEGMENT
$unwind$??$_Pocca@V?$allocator@D@std@@@std@@YAXAEAV?$allocator@D@0@AEBV10@@Z DD 025051801H
	DD	01132318H
	DD	0700c001dH
	DD	0500bH
xdata	ENDS
;	COMDAT xdata
xdata	SEGMENT
$unwind$??$addressof@$$CBV?$basic_string@DU?$char_traits@D@std@@V?$allocator@D@2@@std@@@std@@YAPEBV?$basic_string@DU?$char_traits@D@std@@V?$allocator@D@2@@0@AEBV10@@Z DD 025051301H
	DD	010e2313H
	DD	07007001dH
	DD	05006H
xdata	ENDS
;	COMDAT voltbl
voltbl	SEGMENT
_volmd	DW	045H
	DW	01c3H
voltbl	ENDS
;	COMDAT xdata
xdata	SEGMENT
$unwind$??$_Reallocate_for@V<lambda_1>@?1??assign@?$basic_string@DU?$char_traits@D@std@@V?$allocator@D@2@@std@@QEAAAEAV34@QEBD_K@Z@PEBD@?$basic_string@DU?$char_traits@D@std@@V?$allocator@D@2@@std@@AEAAAEAV01@_KV<lambda_1>@?1??assign@01@QEAAAEAV01@QEBD0@Z@PEBD@Z DD 025054c19H
	DD	011d2322H
	DD	07016002fH
	DD	05015H
	DD	imagerel __GSHandlerCheck
	DD	0160H
xdata	ENDS
;	COMDAT CONST
CONST	SEGMENT
??$_Reallocate_for@V<lambda_1>@?1??assign@?$basic_string@DU?$char_traits@D@std@@V?$allocator@D@2@@std@@QEAAAEAV34@QEBD_K@Z@PEBD@?$basic_string@DU?$char_traits@D@std@@V?$allocator@D@2@@std@@AEAAAEAV01@_KV<lambda_1>@?1??assign@01@QEAAAEAV01@QEBD0@Z@PEBD@Z$rtcName$0 DB 05fH ; std::basic_string<char,std::char_traits<char>,std::allocator<char> >::_Reallocate_for<`std::basic_string<char,std::char_traits<char>,std::allocator<char> >::assign'::`2'::<lambda_1>,char const *>
	DB	04eH
	DB	065H
	DB	077H
	DB	05fH
	DB	070H
	DB	074H
	DB	072H
	DB	00H
	ORG $+7
??$_Reallocate_for@V<lambda_1>@?1??assign@?$basic_string@DU?$char_traits@D@std@@V?$allocator@D@2@@std@@QEAAAEAV34@QEBD_K@Z@PEBD@?$basic_string@DU?$char_traits@D@std@@V?$allocator@D@2@@std@@AEAAAEAV01@_KV<lambda_1>@?1??assign@01@QEAAAEAV01@QEBD0@Z@PEBD@Z$rtcVarDesc DD 088H ; std::basic_string<char,std::char_traits<char>,std::allocator<char> >::_Reallocate_for<`std::basic_string<char,std::char_traits<char>,std::allocator<char> >::assign'::`2'::<lambda_1>,char const *>
	DD	08H
	DQ	FLAT:??$_Reallocate_for@V<lambda_1>@?1??assign@?$basic_string@DU?$char_traits@D@std@@V?$allocator@D@2@@std@@QEAAAEAV34@QEBD_K@Z@PEBD@?$basic_string@DU?$char_traits@D@std@@V?$allocator@D@2@@std@@AEAAAEAV01@_KV<lambda_1>@?1??assign@01@QEAAAEAV01@QEBD0@Z@PEBD@Z$rtcName$0
	ORG $+48
??$_Reallocate_for@V<lambda_1>@?1??assign@?$basic_string@DU?$char_traits@D@std@@V?$allocator@D@2@@std@@QEAAAEAV34@QEBD_K@Z@PEBD@?$basic_string@DU?$char_traits@D@std@@V?$allocator@D@2@@std@@AEAAAEAV01@_KV<lambda_1>@?1??assign@01@QEAAAEAV01@QEBD0@Z@PEBD@Z$rtcFrameData DD 01H ; std::basic_string<char,std::char_traits<char>,std::allocator<char> >::_Reallocate_for<`std::basic_string<char,std::char_traits<char>,std::allocator<char> >::assign'::`2'::<lambda_1>,char const *>
	DD	00H
	DQ	FLAT:??$_Reallocate_for@V<lambda_1>@?1??assign@?$basic_string@DU?$char_traits@D@std@@V?$allocator@D@2@@std@@QEAAAEAV34@QEBD_K@Z@PEBD@?$basic_string@DU?$char_traits@D@std@@V?$allocator@D@2@@std@@AEAAAEAV01@_KV<lambda_1>@?1??assign@01@QEAAAEAV01@QEBD0@Z@PEBD@Z$rtcVarDesc
CONST	ENDS
;	COMDAT xdata
xdata	SEGMENT
$unwind$??R<lambda_1>@?1??assign@?$basic_string@DU?$char_traits@D@std@@V?$allocator@D@2@@std@@QEAAAEAV23@QEBD_K@Z@QEBA@QEAD10@Z DD 025052201H
	DD	011d2322H
	DD	070160021H
	DD	05015H
xdata	ENDS
;	COMDAT xdata
xdata	SEGMENT
$unwind$??$_Unfancy@D@std@@YAPEADPEAD@Z DD 025051301H
	DD	010e2313H
	DD	07007001dH
	DD	05006H
xdata	ENDS
;	COMDAT xdata
xdata	SEGMENT
$unwind$??$_Destroy_in_place@PEAD@std@@YAXAEAPEAD@Z DD 025051301H
	DD	010e2313H
	DD	07007001dH
	DD	05006H
xdata	ENDS
;	COMDAT xdata
xdata	SEGMENT
$unwind$??$_Destroy_range@V?$allocator@H@std@@@std@@YAXPEAHQEAHAEAV?$allocator@H@0@@Z DD 025051d01H
	DD	0118231dH
	DD	07011001dH
	DD	05010H
xdata	ENDS
;	COMDAT xdata
xdata	SEGMENT
$unwind$??$_Unfancy@U_Container_proxy@std@@@std@@YAPEAU_Container_proxy@0@PEAU10@@Z DD 025051301H
	DD	010e2313H
	DD	07007001dH
	DD	05006H
xdata	ENDS
;	COMDAT xdata
xdata	SEGMENT
$unwind$??$?0$$V@?$_Compressed_pair@V?$allocator@D@std@@V?$_String_val@U?$_Simple_types@D@std@@@2@$00@std@@QEAA@U_Zero_then_variadic_args_t@1@@Z DD 025051701H
	DD	01122317H
	DD	0700b001dH
	DD	0500aH
xdata	ENDS
;	COMDAT xdata
xdata	SEGMENT
$unwind$??$?0D@?$allocator@U_Container_proxy@std@@@std@@QEAA@AEBV?$allocator@D@1@@Z DD 025051801H
	DD	01132318H
	DD	0700c001dH
	DD	0500bH
xdata	ENDS
;	COMDAT xdata
xdata	SEGMENT
$unwind$??$_Convert_size@_K@std@@YA_K_K@Z DD 025051301H
	DD	010e2313H
	DD	07007001dH
	DD	05006H
xdata	ENDS
;	COMDAT xdata
xdata	SEGMENT
$unwind$??1?$_Container_proxy_ptr12@V?$allocator@U_Container_proxy@std@@@std@@@std@@QEAA@XZ DD 025051301H
	DD	010e2313H
	DD	07007001dH
	DD	05006H
xdata	ENDS
;	COMDAT xdata
xdata	SEGMENT
$unwind$??0?$_Container_proxy_ptr12@V?$allocator@U_Container_proxy@std@@@std@@@std@@QEAA@AEAV?$allocator@U_Container_proxy@std@@@1@AEAU_Container_base12@1@@Z DD 025051d01H
	DD	0118231dH
	DD	070110021H
	DD	05010H
xdata	ENDS
;	COMDAT xdata
xdata	SEGMENT
$unwind$??$min@_K@std@@YAAEB_KAEB_K0@Z DD 025051801H
	DD	01132318H
	DD	0700c0021H
	DD	0500bH
xdata	ENDS
;	COMDAT xdata
xdata	SEGMENT
$unwind$??Bsentry@?$basic_ostream@DU?$char_traits@D@std@@@std@@QEBA_NXZ DD 025051301H
	DD	010e2313H
	DD	07007001dH
	DD	05006H
xdata	ENDS
;	COMDAT xdata
xdata	SEGMENT
$ip2state$??1sentry@?$basic_ostream@DU?$char_traits@D@std@@@std@@QEAA@XZ DB 02H
	DB	00H
	DB	00H
xdata	ENDS
;	COMDAT xdata
xdata	SEGMENT
$cppxdata$??1sentry@?$basic_ostream@DU?$char_traits@D@std@@@std@@QEAA@XZ DB 060H
	DD	imagerel $ip2state$??1sentry@?$basic_ostream@DU?$char_traits@D@std@@@std@@QEAA@XZ
xdata	ENDS
;	COMDAT xdata
xdata	SEGMENT
$unwind$??1sentry@?$basic_ostream@DU?$char_traits@D@std@@@std@@QEAA@XZ DD 025051319H
	DD	010e2313H
	DD	070070021H
	DD	05006H
	DD	imagerel __CxxFrameHandler4
	DD	imagerel $cppxdata$??1sentry@?$basic_ostream@DU?$char_traits@D@std@@@std@@QEAA@XZ
xdata	ENDS
;	COMDAT voltbl
voltbl	SEGMENT
_volmd	DB	00H
	DB	05H
voltbl	ENDS
;	COMDAT xdata
xdata	SEGMENT
$unwind$?dtor$0@?0???0sentry@?$basic_ostream@DU?$char_traits@D@std@@@std@@QEAA@AEAV12@@Z@4HA DD 031001H
	DD	0700c4210H
	DD	0500bH
xdata	ENDS
;	COMDAT xdata
xdata	SEGMENT
$ip2state$??0sentry@?$basic_ostream@DU?$char_traits@D@std@@@std@@QEAA@AEAV12@@Z DB 06H
	DB	00H
	DB	00H
	DB	'p'
	DB	02H
	DB	0f1H, 02H
	DB	00H
xdata	ENDS
;	COMDAT xdata
xdata	SEGMENT
$stateUnwindMap$??0sentry@?$basic_ostream@DU?$char_traits@D@std@@@std@@QEAA@AEAV12@@Z DB 02H
	DB	0eH
	DD	imagerel ?dtor$0@?0???0sentry@?$basic_ostream@DU?$char_traits@D@std@@@std@@QEAA@AEAV12@@Z@4HA
xdata	ENDS
;	COMDAT xdata
xdata	SEGMENT
$cppxdata$??0sentry@?$basic_ostream@DU?$char_traits@D@std@@@std@@QEAA@AEAV12@@Z DB 028H
	DD	imagerel $stateUnwindMap$??0sentry@?$basic_ostream@DU?$char_traits@D@std@@@std@@QEAA@AEAV12@@Z
	DD	imagerel $ip2state$??0sentry@?$basic_ostream@DU?$char_traits@D@std@@@std@@QEAA@AEAV12@@Z
xdata	ENDS
;	COMDAT xdata
xdata	SEGMENT
$unwind$??0sentry@?$basic_ostream@DU?$char_traits@D@std@@@std@@QEAA@AEAV12@@Z DD 025051811H
	DD	01132318H
	DD	0700c0021H
	DD	0500bH
	DD	imagerel __CxxFrameHandler4
	DD	imagerel $cppxdata$??0sentry@?$basic_ostream@DU?$char_traits@D@std@@@std@@QEAA@AEAV12@@Z
xdata	ENDS
;	COMDAT xdata
xdata	SEGMENT
$ip2state$??1_Sentry_base@?$basic_ostream@DU?$char_traits@D@std@@@std@@QEAA@XZ DB 02H
	DB	00H
	DB	00H
xdata	ENDS
;	COMDAT xdata
xdata	SEGMENT
$cppxdata$??1_Sentry_base@?$basic_ostream@DU?$char_traits@D@std@@@std@@QEAA@XZ DB 060H
	DD	imagerel $ip2state$??1_Sentry_base@?$basic_ostream@DU?$char_traits@D@std@@@std@@QEAA@XZ
xdata	ENDS
;	COMDAT xdata
xdata	SEGMENT
$unwind$??1_Sentry_base@?$basic_ostream@DU?$char_traits@D@std@@@std@@QEAA@XZ DD 025051319H
	DD	010e2313H
	DD	070070021H
	DD	05006H
	DD	imagerel __CxxFrameHandler4
	DD	imagerel $cppxdata$??1_Sentry_base@?$basic_ostream@DU?$char_traits@D@std@@@std@@QEAA@XZ
xdata	ENDS
;	COMDAT xdata
xdata	SEGMENT
$unwind$??0_Sentry_base@?$basic_ostream@DU?$char_traits@D@std@@@std@@QEAA@AEAV12@@Z DD 025051801H
	DD	01132318H
	DD	0700c0021H
	DD	0500bH
xdata	ENDS
;	COMDAT xdata
xdata	SEGMENT
$unwind$??$_Alloc_proxy@V?$allocator@U_Container_proxy@std@@@std@@@_Container_base12@std@@QEAAX$$QEAV?$allocator@U_Container_proxy@std@@@1@@Z DD 025051801H
	DD	01132318H
	DD	0700c0025H
	DD	0500bH
xdata	ENDS
;	COMDAT xdata
xdata	SEGMENT
$unwind$??$?0$$V@?$_Compressed_pair@V?$allocator@H@std@@V?$_Vector_val@U?$_Simple_types@H@std@@@2@$00@std@@QEAA@U_Zero_then_variadic_args_t@1@@Z DD 025051701H
	DD	01122317H
	DD	0700b001dH
	DD	0500aH
xdata	ENDS
;	COMDAT xdata
xdata	SEGMENT
$unwind$??$_Delete_plain_internal@V?$allocator@U_Container_proxy@std@@@std@@@std@@YAXAEAV?$allocator@U_Container_proxy@std@@@0@QEAU_Container_proxy@0@@Z DD 025051801H
	DD	01132318H
	DD	0700c001dH
	DD	0500bH
xdata	ENDS
;	COMDAT xdata
xdata	SEGMENT
$unwind$??$exchange@PEAU_Container_proxy@std@@$$T@std@@YAPEAU_Container_proxy@0@AEAPEAU10@$$QEA$$T@Z DD 025051801H
	DD	01132318H
	DD	0700c0021H
	DD	0500bH
xdata	ENDS
;	COMDAT xdata
xdata	SEGMENT
$unwind$??$?0H@?$allocator@U_Container_proxy@std@@@std@@QEAA@AEBV?$allocator@H@1@@Z DD 025051801H
	DD	01132318H
	DD	0700c001dH
	DD	0500bH
xdata	ENDS
;	COMDAT xdata
xdata	SEGMENT
$unwind$?allocate@?$allocator@U_Container_proxy@std@@@std@@QEAAPEAU_Container_proxy@2@_K@Z DD 025051801H
	DD	01132318H
	DD	0700c001dH
	DD	0500bH
xdata	ENDS
;	COMDAT xdata
xdata	SEGMENT
$unwind$?deallocate@?$allocator@U_Container_proxy@std@@@std@@QEAAXQEAU_Container_proxy@2@_K@Z DD 025051d01H
	DD	0118231dH
	DD	07011001dH
	DD	05010H
xdata	ENDS
;	COMDAT voltbl
voltbl	SEGMENT
_volmd	DB	00H
	DB	05H
voltbl	ENDS
;	COMDAT xdata
xdata	SEGMENT
$unwind$?catch$0@?0???$_Emplace_reallocate@H@?$vector@HV?$allocator@H@std@@@std@@QEAAPEAHQEAH$$QEAH@Z@4HA DD 031001H
	DD	0700c4210H
	DD	0500bH
xdata	ENDS
;	COMDAT xdata
xdata	SEGMENT
$ip2state$??$_Emplace_reallocate@H@?$vector@HV?$allocator@H@std@@@std@@QEAAPEAHQEAH$$QEAH@Z DB 06H
	DB	00H
	DB	00H
	DB	'm', 04H
	DB	02H
	DB	0b9H, 03H
	DB	00H
xdata	ENDS
;	COMDAT xdata
xdata	SEGMENT
$handlerMap$??$_Emplace_reallocate@H@?$vector@HV?$allocator@H@std@@@std@@QEAAPEAHQEAH$$QEAH@Z DB 02H
	DB	01H
	DB	080H
	DD	imagerel ?catch$0@?0???$_Emplace_reallocate@H@?$vector@HV?$allocator@H@std@@@std@@QEAAPEAHQEAH$$QEAH@Z@4HA
xdata	ENDS
;	COMDAT xdata
xdata	SEGMENT
$tryMap$??$_Emplace_reallocate@H@?$vector@HV?$allocator@H@std@@@std@@QEAAPEAHQEAH$$QEAH@Z DB 02H
	DB	00H
	DB	00H
	DB	02H
	DD	imagerel $handlerMap$??$_Emplace_reallocate@H@?$vector@HV?$allocator@H@std@@@std@@QEAAPEAHQEAH$$QEAH@Z
xdata	ENDS
;	COMDAT xdata
xdata	SEGMENT
$stateUnwindMap$??$_Emplace_reallocate@H@?$vector@HV?$allocator@H@std@@@std@@QEAAPEAHQEAH$$QEAH@Z DB 04H
	DB	08H
	DB	010H
xdata	ENDS
;	COMDAT xdata
xdata	SEGMENT
$cppxdata$??$_Emplace_reallocate@H@?$vector@HV?$allocator@H@std@@@std@@QEAAPEAHQEAH$$QEAH@Z DB 038H
	DD	imagerel $stateUnwindMap$??$_Emplace_reallocate@H@?$vector@HV?$allocator@H@std@@@std@@QEAAPEAHQEAH$$QEAH@Z
	DD	imagerel $tryMap$??$_Emplace_reallocate@H@?$vector@HV?$allocator@H@std@@@std@@QEAAPEAHQEAH$$QEAH@Z
	DD	imagerel $ip2state$??$_Emplace_reallocate@H@?$vector@HV?$allocator@H@std@@@std@@QEAAPEAHQEAH$$QEAH@Z
xdata	ENDS
;	COMDAT xdata
xdata	SEGMENT
$unwind$??$_Emplace_reallocate@H@?$vector@HV?$allocator@H@std@@@std@@QEAAPEAHQEAH$$QEAH@Z DD 025051d19H
	DD	0118231dH
	DD	07011004bH
	DD	05010H
	DD	imagerel __CxxFrameHandler4
	DD	imagerel $cppxdata$??$_Emplace_reallocate@H@?$vector@HV?$allocator@H@std@@@std@@QEAAPEAHQEAH$$QEAH@Z
xdata	ENDS
;	COMDAT xdata
xdata	SEGMENT
$unwind$??$construct@HH@?$_Default_allocator_traits@V?$allocator@H@std@@@std@@SAXAEAV?$allocator@H@1@QEAH$$QEAH@Z DD 025051d01H
	DD	0118231dH
	DD	070110021H
	DD	05010H
xdata	ENDS
;	COMDAT xdata
xdata	SEGMENT
$unwind$??$_Unfancy@H@std@@YAPEAHPEAH@Z DD 025051301H
	DD	010e2313H
	DD	07007001dH
	DD	05006H
xdata	ENDS
;	COMDAT xdata
xdata	SEGMENT
$unwind$??$_Emplace_back_with_unused_capacity@H@?$vector@HV?$allocator@H@std@@@std@@AEAA?A_T$$QEAH@Z DD 025051801H
	DD	01132318H
	DD	0700c002bH
	DD	0500bH
xdata	ENDS
;	COMDAT xdata
xdata	SEGMENT
$unwind$??$forward@H@std@@YA$$QEAHAEAH@Z DD 025051301H
	DD	010e2313H
	DD	07007001dH
	DD	05006H
xdata	ENDS
;	COMDAT xdata
xdata	SEGMENT
$unwind$??$emplace_back@H@?$vector@HV?$allocator@H@std@@@std@@QEAA?A_T$$QEAH@Z DD 025051801H
	DD	01132318H
	DD	0700c002bH
	DD	0500bH
xdata	ENDS
;	COMDAT xdata
xdata	SEGMENT
$unwind$??$move@AEAH@std@@YA$$QEAHAEAH@Z DD 025051301H
	DD	010e2313H
	DD	07007001dH
	DD	05006H
xdata	ENDS
;	COMDAT xdata
xdata	SEGMENT
$unwind$??$PrintVector@V?$basic_string@DU?$char_traits@D@std@@V?$allocator@D@2@@std@@@@YAXAEBV?$Vector@V?$basic_string@DU?$char_traits@D@std@@V?$allocator@D@2@@std@@@@@Z DD 025051301H
	DD	010e2313H
	DD	070070023H
	DD	05006H
xdata	ENDS
;	COMDAT xdata
xdata	SEGMENT
$unwind$?__autoclassinit2@?$Vector@V?$basic_string@DU?$char_traits@D@std@@V?$allocator@D@2@@std@@@@QEAAX_K@Z DD 05051601H
	DD	01130316H
	DD	0700c0019H
	DD	0500bH
xdata	ENDS
;	COMDAT xdata
xdata	SEGMENT
$unwind$?ReAlloc@?$Vector@V?$basic_string@DU?$char_traits@D@std@@V?$allocator@D@2@@std@@@@AEAAX_K@Z DD 035051801H
	DD	01133318H
	DD	0700c0033H
	DD	0500bH
xdata	ENDS
;	COMDAT xdata
xdata	SEGMENT
$unwind$?Size@?$Vector@V?$basic_string@DU?$char_traits@D@std@@V?$allocator@D@2@@std@@@@QEBA_KXZ DD 025051301H
	DD	010e2313H
	DD	07007001dH
	DD	05006H
xdata	ENDS
;	COMDAT xdata
xdata	SEGMENT
$unwind$??A?$Vector@V?$basic_string@DU?$char_traits@D@std@@V?$allocator@D@2@@std@@@@QEBAAEBV?$basic_string@DU?$char_traits@D@std@@V?$allocator@D@2@@std@@_K@Z DD 025051801H
	DD	01132318H
	DD	0700c001dH
	DD	0500bH
xdata	ENDS
;	COMDAT xdata
xdata	SEGMENT
$unwind$?PushBack@?$Vector@V?$basic_string@DU?$char_traits@D@std@@V?$allocator@D@2@@std@@@@QEAAXAEBV?$basic_string@DU?$char_traits@D@std@@V?$allocator@D@2@@std@@@Z DD 025051801H
	DD	01132318H
	DD	0700c001fH
	DD	0500bH
xdata	ENDS
;	COMDAT xdata
xdata	SEGMENT
$unwind$??0?$Vector@V?$basic_string@DU?$char_traits@D@std@@V?$allocator@D@2@@std@@@@QEAA@XZ DD 025051301H
	DD	010e2313H
	DD	07007001dH
	DD	05006H
xdata	ENDS
;	COMDAT xdata
xdata	SEGMENT
$unwind$??$?6DU?$char_traits@D@std@@V?$allocator@D@1@@std@@YAAEAV?$basic_ostream@DU?$char_traits@D@std@@@0@AEAV10@AEBV?$basic_string@DU?$char_traits@D@std@@V?$allocator@D@2@@0@@Z DD 025051801H
	DD	01132318H
	DD	0700c001fH
	DD	0500bH
xdata	ENDS
;	COMDAT xdata
xdata	SEGMENT
$ip2state$??1?$Array@V?$basic_string@DU?$char_traits@D@std@@V?$allocator@D@2@@std@@$01@@QEAA@XZ DB 02H
	DB	00H
	DB	00H
xdata	ENDS
;	COMDAT xdata
xdata	SEGMENT
$cppxdata$??1?$Array@V?$basic_string@DU?$char_traits@D@std@@V?$allocator@D@2@@std@@$01@@QEAA@XZ DB 060H
	DD	imagerel $ip2state$??1?$Array@V?$basic_string@DU?$char_traits@D@std@@V?$allocator@D@2@@std@@$01@@QEAA@XZ
xdata	ENDS
;	COMDAT xdata
xdata	SEGMENT
$unwind$??1?$Array@V?$basic_string@DU?$char_traits@D@std@@V?$allocator@D@2@@std@@$01@@QEAA@XZ DD 025051319H
	DD	010e2313H
	DD	07007001dH
	DD	05006H
	DD	imagerel __CxxFrameHandler4
	DD	imagerel $cppxdata$??1?$Array@V?$basic_string@DU?$char_traits@D@std@@V?$allocator@D@2@@std@@$01@@QEAA@XZ
xdata	ENDS
;	COMDAT xdata
xdata	SEGMENT
$unwind$??A?$Array@V?$basic_string@DU?$char_traits@D@std@@V?$allocator@D@2@@std@@$01@@QEAAAEAV?$basic_string@DU?$char_traits@D@std@@V?$allocator@D@2@@std@@_K@Z DD 025051801H
	DD	01132318H
	DD	0700c001dH
	DD	0500bH
xdata	ENDS
;	COMDAT xdata
xdata	SEGMENT
$unwind$??0?$Array@V?$basic_string@DU?$char_traits@D@std@@V?$allocator@D@2@@std@@$01@@QEAA@XZ DD 035051301H
	DD	010e3313H
	DD	07007001fH
	DD	05006H
xdata	ENDS
;	COMDAT xdata
xdata	SEGMENT
$unwind$?__autoclassinit2@?$vector@HV?$allocator@H@std@@@std@@QEAAX_K@Z DD 05051601H
	DD	01130316H
	DD	0700c0019H
	DD	0500bH
xdata	ENDS
;	COMDAT xdata
xdata	SEGMENT
$unwind$?_Get_first@?$_Compressed_pair@V?$allocator@H@std@@V?$_Vector_val@U?$_Simple_types@H@std@@@2@$00@std@@QEBAAEBV?$allocator@H@2@XZ DD 025051301H
	DD	010e2313H
	DD	07007001dH
	DD	05006H
xdata	ENDS
;	COMDAT xdata
xdata	SEGMENT
$unwind$?_Get_first@?$_Compressed_pair@V?$allocator@H@std@@V?$_Vector_val@U?$_Simple_types@H@std@@@2@$00@std@@QEAAAEAV?$allocator@H@2@XZ DD 025051301H
	DD	010e2313H
	DD	07007001dH
	DD	05006H
xdata	ENDS
;	COMDAT xdata
xdata	SEGMENT
$unwind$??0?$_Vector_val@U?$_Simple_types@H@std@@@std@@QEAA@XZ DD 025051301H
	DD	010e2313H
	DD	07007001dH
	DD	05006H
xdata	ENDS
;	COMDAT xdata
xdata	SEGMENT
$unwind$?_Getal@?$vector@HV?$allocator@H@std@@@std@@AEBAAEBV?$allocator@H@2@XZ DD 025051301H
	DD	010e2313H
	DD	07007001dH
	DD	05006H
xdata	ENDS
;	COMDAT xdata
xdata	SEGMENT
$unwind$?_Getal@?$vector@HV?$allocator@H@std@@@std@@AEAAAEAV?$allocator@H@2@XZ DD 025051301H
	DD	010e2313H
	DD	07007001dH
	DD	05006H
xdata	ENDS
;	COMDAT xdata
xdata	SEGMENT
$unwind$?_Orphan_range@?$vector@HV?$allocator@H@std@@@std@@AEBAXPEAH0@Z DD 025051d01H
	DD	0118231dH
	DD	07011001dH
	DD	05010H
xdata	ENDS
;	COMDAT voltbl
voltbl	SEGMENT
_volmd	DB	00H
	DB	05H
voltbl	ENDS
;	COMDAT voltbl
voltbl	SEGMENT
_volmd	DB	040H
	DB	098H
voltbl	ENDS
;	COMDAT xdata
xdata	SEGMENT
$unwind$?dtor$0@?0??_Orphan_range_locked@?$vector@HV?$allocator@H@std@@@std@@AEBAXPEAH0@Z@4HA DD 031001H
	DD	0700c4210H
	DD	0500bH
xdata	ENDS
;	COMDAT xdata
xdata	SEGMENT
$ip2state$?_Orphan_range_locked@?$vector@HV?$allocator@H@std@@@std@@AEBAXPEAH0@Z DB 06H
	DB	00H
	DB	00H
	DB	0c6H
	DB	02H
	DB	'6'
	DB	00H
xdata	ENDS
;	COMDAT xdata
xdata	SEGMENT
$stateUnwindMap$?_Orphan_range_locked@?$vector@HV?$allocator@H@std@@@std@@AEBAXPEAH0@Z DB 02H
	DB	0eH
	DD	imagerel ?dtor$0@?0??_Orphan_range_locked@?$vector@HV?$allocator@H@std@@@std@@AEBAXPEAH0@Z@4HA
xdata	ENDS
;	COMDAT xdata
xdata	SEGMENT
$cppxdata$?_Orphan_range_locked@?$vector@HV?$allocator@H@std@@@std@@AEBAXPEAH0@Z DB 028H
	DD	imagerel $stateUnwindMap$?_Orphan_range_locked@?$vector@HV?$allocator@H@std@@@std@@AEBAXPEAH0@Z
	DD	imagerel $ip2state$?_Orphan_range_locked@?$vector@HV?$allocator@H@std@@@std@@AEBAXPEAH0@Z
xdata	ENDS
;	COMDAT xdata
xdata	SEGMENT
$unwind$?_Orphan_range_locked@?$vector@HV?$allocator@H@std@@@std@@AEBAXPEAH0@Z DD 025054719H
	DD	0118231dH
	DD	070110021H
	DD	05010H
	DD	imagerel __GSHandlerCheck_EH4
	DD	imagerel $cppxdata$?_Orphan_range_locked@?$vector@HV?$allocator@H@std@@@std@@AEBAXPEAH0@Z
	DD	0faH
xdata	ENDS
;	COMDAT CONST
CONST	SEGMENT
?_Orphan_range_locked@?$vector@HV?$allocator@H@std@@@std@@AEBAXPEAH0@Z$rtcName$0 DB 05fH ; std::vector<int,std::allocator<int> >::_Orphan_range_locked
	DB	04cH
	DB	06fH
	DB	063H
	DB	06bH
	DB	00H
	ORG $+10
?_Orphan_range_locked@?$vector@HV?$allocator@H@std@@@std@@AEBAXPEAH0@Z$rtcVarDesc DD 024H ; std::vector<int,std::allocator<int> >::_Orphan_range_locked
	DD	04H
	DQ	FLAT:?_Orphan_range_locked@?$vector@HV?$allocator@H@std@@@std@@AEBAXPEAH0@Z$rtcName$0
	ORG $+48
?_Orphan_range_locked@?$vector@HV?$allocator@H@std@@@std@@AEBAXPEAH0@Z$rtcFrameData DD 01H ; std::vector<int,std::allocator<int> >::_Orphan_range_locked
	DD	00H
	DQ	FLAT:?_Orphan_range_locked@?$vector@HV?$allocator@H@std@@@std@@AEBAXPEAH0@Z$rtcVarDesc
CONST	ENDS
;	COMDAT xdata
xdata	SEGMENT
$unwind$?_Orphan_range_unlocked@?$vector@HV?$allocator@H@std@@@std@@AEBAXPEAH0@Z DD 025051d01H
	DD	0118231dH
	DD	07011002dH
	DD	05010H
xdata	ENDS
;	COMDAT xdata
xdata	SEGMENT
$unwind$?_Xlength@?$vector@HV?$allocator@H@std@@@std@@CAXXZ DD 025050f01H
	DD	010a230fH
	DD	07003001dH
	DD	05002H
xdata	ENDS
;	COMDAT xdata
xdata	SEGMENT
$ip2state$?_Tidy@?$vector@HV?$allocator@H@std@@@std@@AEAAXXZ DB 02H
	DB	00H
	DB	00H
xdata	ENDS
;	COMDAT xdata
xdata	SEGMENT
$cppxdata$?_Tidy@?$vector@HV?$allocator@H@std@@@std@@AEAAXXZ DB 060H
	DD	imagerel $ip2state$?_Tidy@?$vector@HV?$allocator@H@std@@@std@@AEAAXXZ
xdata	ENDS
;	COMDAT xdata
xdata	SEGMENT
$unwind$?_Tidy@?$vector@HV?$allocator@H@std@@@std@@AEAAXXZ DD 025051319H
	DD	010e2313H
	DD	070070031H
	DD	05006H
	DD	imagerel __CxxFrameHandler4
	DD	imagerel $cppxdata$?_Tidy@?$vector@HV?$allocator@H@std@@@std@@AEAAXXZ
xdata	ENDS
;	COMDAT xdata
xdata	SEGMENT
$unwind$?_Change_array@?$vector@HV?$allocator@H@std@@@std@@AEAAXQEAH_K1@Z DD 025052201H
	DD	011d2322H
	DD	070160031H
	DD	05015H
xdata	ENDS
;	COMDAT xdata
xdata	SEGMENT
$unwind$?_Calculate_growth@?$vector@HV?$allocator@H@std@@@std@@AEBA_K_K@Z DD 025051801H
	DD	01132318H
	DD	0700c0029H
	DD	0500bH
xdata	ENDS
;	COMDAT xdata
xdata	SEGMENT
$unwind$??A?$vector@HV?$allocator@H@std@@@std@@QEAAAEAH_K@Z DD 035051801H
	DD	01133318H
	DD	0700c0023H
	DD	0500bH
xdata	ENDS
;	COMDAT xdata
xdata	SEGMENT
$unwind$?capacity@?$vector@HV?$allocator@H@std@@@std@@QEBA_KXZ DD 025051301H
	DD	010e2313H
	DD	070070021H
	DD	05006H
xdata	ENDS
;	COMDAT xdata
xdata	SEGMENT
$unwind$?max_size@?$vector@HV?$allocator@H@std@@@std@@QEBA_KXZ DD 025051301H
	DD	010e2313H
	DD	070070025H
	DD	05006H
xdata	ENDS
;	COMDAT xdata
xdata	SEGMENT
$unwind$?push_back@?$vector@HV?$allocator@H@std@@@std@@QEAAX$$QEAH@Z DD 025051801H
	DD	01132318H
	DD	0700c001dH
	DD	0500bH
xdata	ENDS
;	COMDAT voltbl
voltbl	SEGMENT
_volmd	DB	036H
	DB	0b2H
voltbl	ENDS
;	COMDAT xdata
xdata	SEGMENT
$unwind$??1?$vector@HV?$allocator@H@std@@@std@@QEAA@XZ DD 025053d19H
	DD	010e2313H
	DD	070070029H
	DD	05006H
	DD	imagerel __GSHandlerCheck
	DD	0138H
xdata	ENDS
;	COMDAT CONST
CONST	SEGMENT
??1?$vector@HV?$allocator@H@std@@@std@@QEAA@XZ$rtcName$0 DB 024H ; std::vector<int,std::allocator<int> >::~vector<int,std::allocator<int> >
	DB	053H
	DB	031H
	DB	00H
	ORG $+12
??1?$vector@HV?$allocator@H@std@@@std@@QEAA@XZ$rtcVarDesc DD 044H ; std::vector<int,std::allocator<int> >::~vector<int,std::allocator<int> >
	DD	01H
	DQ	FLAT:??1?$vector@HV?$allocator@H@std@@@std@@QEAA@XZ$rtcName$0
	ORG $+48
??1?$vector@HV?$allocator@H@std@@@std@@QEAA@XZ$rtcFrameData DD 01H ; std::vector<int,std::allocator<int> >::~vector<int,std::allocator<int> >
	DD	00H
	DQ	FLAT:??1?$vector@HV?$allocator@H@std@@@std@@QEAA@XZ$rtcVarDesc
CONST	ENDS
;	COMDAT xdata
xdata	SEGMENT
$ip2state$??0?$vector@HV?$allocator@H@std@@@std@@QEAA@XZ DB 02H
	DB	00H
	DB	00H
xdata	ENDS
;	COMDAT xdata
xdata	SEGMENT
$cppxdata$??0?$vector@HV?$allocator@H@std@@@std@@QEAA@XZ DB 060H
	DD	imagerel $ip2state$??0?$vector@HV?$allocator@H@std@@@std@@QEAA@XZ
xdata	ENDS
;	COMDAT xdata
xdata	SEGMENT
$unwind$??0?$vector@HV?$allocator@H@std@@@std@@QEAA@XZ DD 025051319H
	DD	010e2313H
	DD	070070025H
	DD	05006H
	DD	imagerel __CxxFrameHandler4
	DD	imagerel $cppxdata$??0?$vector@HV?$allocator@H@std@@@std@@QEAA@XZ
xdata	ENDS
;	COMDAT xdata
xdata	SEGMENT
$unwind$?max_size@?$_Default_allocator_traits@V?$allocator@H@std@@@std@@SA_KAEBV?$allocator@H@2@@Z DD 025051301H
	DD	010e2313H
	DD	07007001dH
	DD	05006H
xdata	ENDS
;	COMDAT xdata
xdata	SEGMENT
$unwind$?allocate@?$allocator@H@std@@QEAAPEAH_K@Z DD 025051801H
	DD	01132318H
	DD	0700c001dH
	DD	0500bH
xdata	ENDS
;	COMDAT xdata
xdata	SEGMENT
$unwind$?deallocate@?$allocator@H@std@@QEAAXQEAH_K@Z DD 025051d01H
	DD	0118231dH
	DD	07011001dH
	DD	05010H
xdata	ENDS
;	COMDAT xdata
xdata	SEGMENT
$unwind$??0?$allocator@H@std@@QEAA@XZ DD 025051301H
	DD	010e2313H
	DD	07007001dH
	DD	05006H
xdata	ENDS
;	COMDAT xdata
xdata	SEGMENT
$unwind$??$endl@DU?$char_traits@D@std@@@std@@YAAEAV?$basic_ostream@DU?$char_traits@D@std@@@0@AEAV10@@Z DD 025051301H
	DD	010e2313H
	DD	07007001fH
	DD	05006H
xdata	ENDS
;	COMDAT voltbl
voltbl	SEGMENT
_volmd	DB	00H
	DB	05H
voltbl	ENDS
;	COMDAT voltbl
voltbl	SEGMENT
_volmd	DB	00H
	DB	05H
voltbl	ENDS
;	COMDAT voltbl
voltbl	SEGMENT
_volmd	DB	00H
	DB	05H
voltbl	ENDS
;	COMDAT voltbl
voltbl	SEGMENT
_volmd	DB	00H
	DB	05H
voltbl	ENDS
;	COMDAT voltbl
voltbl	SEGMENT
_volmd	DW	02aH
	DW	04feH
voltbl	ENDS
;	COMDAT xdata
xdata	SEGMENT
$unwind$main$dtor$3 DD 031001H
	DD	0700c4210H
	DD	0500bH
xdata	ENDS
;	COMDAT xdata
xdata	SEGMENT
$unwind$main$dtor$2 DD 031001H
	DD	0700c4210H
	DD	0500bH
xdata	ENDS
;	COMDAT xdata
xdata	SEGMENT
$unwind$main$dtor$1 DD 031001H
	DD	0700c4210H
	DD	0500bH
xdata	ENDS
;	COMDAT xdata
xdata	SEGMENT
$unwind$main$dtor$0 DD 031001H
	DD	0700c4210H
	DD	0500bH
xdata	ENDS
;	COMDAT xdata
xdata	SEGMENT
$ip2state$main DB 012H
	DB	00H
	DB	00H
	DB	'U', 04H
	DB	02H
	DB	'9', 08H
	DB	04H
	DB	05H, 05H
	DB	06H
	DB	'('
	DB	04H
	DB	'@'
	DB	08H
	DB	'('
	DB	04H
	DB	'D'
	DB	02H
	DB	01aH
	DB	00H
xdata	ENDS
;	COMDAT xdata
xdata	SEGMENT
$stateUnwindMap$main DB 08H
	DB	0eH
	DD	imagerel main$dtor$0
	DB	02eH
	DD	imagerel main$dtor$1
	DB	02eH
	DD	imagerel main$dtor$2
	DB	056H
	DD	imagerel main$dtor$3
xdata	ENDS
;	COMDAT xdata
xdata	SEGMENT
$cppxdata$main DB 028H
	DD	imagerel $stateUnwindMap$main
	DD	imagerel $ip2state$main
xdata	ENDS
;	COMDAT xdata
xdata	SEGMENT
$unwind$main DD	025053119H
	DD	010a230fH
	DD	070030085H
	DD	05002H
	DD	imagerel __GSHandlerCheck_EH4
	DD	imagerel $cppxdata$main
	DD	0412H
xdata	ENDS
;	COMDAT CONST
CONST	SEGMENT
main$rtcName$0 DB 076H
	DB	065H
	DB	063H
	DB	00H
main$rtcName$1 DB 064H
	DB	061H
	DB	074H
	DB	061H
	DB	00H
	ORG $+3
main$rtcName$2 DB 076H
	DB	065H
	DB	063H
	DB	074H
	DB	06fH
	DB	072H
	DB	00H
	ORG $+13
main$rtcVarDesc DD 0118H
	DD	018H
	DQ	FLAT:main$rtcName$2
	DD	0b0H
	DD	050H
	DQ	FLAT:main$rtcName$1
	DD	068H
	DD	020H
	DQ	FLAT:main$rtcName$0
	ORG $+144
main$rtcFrameData DD 03H
	DD	00H
	DQ	FLAT:main$rtcVarDesc
CONST	ENDS
;	COMDAT voltbl
voltbl	SEGMENT
_volmd	DB	00H
	DB	05H
voltbl	ENDS
;	COMDAT voltbl
voltbl	SEGMENT
_volmd	DB	00H
	DB	05H
voltbl	ENDS
;	COMDAT voltbl
voltbl	SEGMENT
_volmd	DW	03bH
	DW	044dH
voltbl	ENDS
;	COMDAT xdata
xdata	SEGMENT
$unwind$?catch$1@?0???$?6U?$char_traits@D@std@@@std@@YAAEAV?$basic_ostream@DU?$char_traits@D@std@@@0@AEAV10@PEBD@Z@4HA DD 031001H
	DD	0700c4210H
	DD	0500bH
xdata	ENDS
;	COMDAT xdata
xdata	SEGMENT
$unwind$?dtor$0@?0???$?6U?$char_traits@D@std@@@std@@YAAEAV?$basic_ostream@DU?$char_traits@D@std@@@0@AEAV10@PEBD@Z@4HA DD 031001H
	DD	0700c4210H
	DD	0500bH
xdata	ENDS
;	COMDAT xdata
xdata	SEGMENT
$ip2state$??$?6U?$char_traits@D@std@@@std@@YAAEAV?$basic_ostream@DU?$char_traits@D@std@@@0@AEAV10@PEBD@Z DB 0aH
	DB	00H
	DB	00H
	DB	'A', 04H
	DB	02H
	DB	'<'
	DB	04H
	DB	0d1H, 0aH
	DB	02H
	DB	08aH
	DB	00H
xdata	ENDS
;	COMDAT xdata
xdata	SEGMENT
$handlerMap$??$?6U?$char_traits@D@std@@@std@@YAAEAV?$basic_ostream@DU?$char_traits@D@std@@@0@AEAV10@PEBD@Z DB 02H
	DB	01H
	DB	080H
	DD	imagerel ?catch$1@?0???$?6U?$char_traits@D@std@@@std@@YAAEAV?$basic_ostream@DU?$char_traits@D@std@@@0@AEAV10@PEBD@Z@4HA
xdata	ENDS
;	COMDAT xdata
xdata	SEGMENT
$tryMap$??$?6U?$char_traits@D@std@@@std@@YAAEAV?$basic_ostream@DU?$char_traits@D@std@@@0@AEAV10@PEBD@Z DB 02H
	DB	02H
	DB	02H
	DB	04H
	DD	imagerel $handlerMap$??$?6U?$char_traits@D@std@@@std@@YAAEAV?$basic_ostream@DU?$char_traits@D@std@@@0@AEAV10@PEBD@Z
xdata	ENDS
;	COMDAT xdata
xdata	SEGMENT
$stateUnwindMap$??$?6U?$char_traits@D@std@@@std@@YAAEAV?$basic_ostream@DU?$char_traits@D@std@@@0@AEAV10@PEBD@Z DB 06H
	DB	0eH
	DD	imagerel ?dtor$0@?0???$?6U?$char_traits@D@std@@@std@@YAAEAV?$basic_ostream@DU?$char_traits@D@std@@@0@AEAV10@PEBD@Z@4HA
	DB	028H
	DB	030H
xdata	ENDS
;	COMDAT xdata
xdata	SEGMENT
$cppxdata$??$?6U?$char_traits@D@std@@@std@@YAAEAV?$basic_ostream@DU?$char_traits@D@std@@@0@AEAV10@PEBD@Z DB 038H
	DD	imagerel $stateUnwindMap$??$?6U?$char_traits@D@std@@@std@@YAAEAV?$basic_ostream@DU?$char_traits@D@std@@@0@AEAV10@PEBD@Z
	DD	imagerel $tryMap$??$?6U?$char_traits@D@std@@@std@@YAAEAV?$basic_ostream@DU?$char_traits@D@std@@@0@AEAV10@PEBD@Z
	DD	imagerel $ip2state$??$?6U?$char_traits@D@std@@@std@@YAAEAV?$basic_ostream@DU?$char_traits@D@std@@@0@AEAV10@PEBD@Z
xdata	ENDS
;	COMDAT xdata
xdata	SEGMENT
$unwind$??$?6U?$char_traits@D@std@@@std@@YAAEAV?$basic_ostream@DU?$char_traits@D@std@@@0@AEAV10@PEBD@Z DD 025054219H
	DD	01132318H
	DD	0700c0047H
	DD	0500bH
	DD	imagerel __GSHandlerCheck_EH4
	DD	imagerel $cppxdata$??$?6U?$char_traits@D@std@@@std@@YAAEAV?$basic_ostream@DU?$char_traits@D@std@@@0@AEAV10@PEBD@Z
	DD	0223H
xdata	ENDS
;	COMDAT CONST
CONST	SEGMENT
??$?6U?$char_traits@D@std@@@std@@YAAEAV?$basic_ostream@DU?$char_traits@D@std@@@0@AEAV10@PEBD@Z$rtcName$0 DB 05fH ; std::operator<<<std::char_traits<char> >
	DB	04fH
	DB	06bH
	DB	00H
	ORG $+12
??$?6U?$char_traits@D@std@@@std@@YAAEAV?$basic_ostream@DU?$char_traits@D@std@@@0@AEAV10@PEBD@Z$rtcVarDesc DD 088H ; std::operator<<<std::char_traits<char> >
	DD	010H
	DQ	FLAT:??$?6U?$char_traits@D@std@@@std@@YAAEAV?$basic_ostream@DU?$char_traits@D@std@@@0@AEAV10@PEBD@Z$rtcName$0
	ORG $+48
??$?6U?$char_traits@D@std@@@std@@YAAEAV?$basic_ostream@DU?$char_traits@D@std@@@0@AEAV10@PEBD@Z$rtcFrameData DD 01H ; std::operator<<<std::char_traits<char> >
	DD	00H
	DQ	FLAT:??$?6U?$char_traits@D@std@@@std@@YAAEAV?$basic_ostream@DU?$char_traits@D@std@@@0@AEAV10@PEBD@Z$rtcVarDesc
CONST	ENDS
;	COMDAT xdata
xdata	SEGMENT
$ip2state$??_E?$basic_string@DU?$char_traits@D@std@@V?$allocator@D@2@@std@@QEAAPEAXI@Z DB 02H
	DB	00H
	DB	00H
xdata	ENDS
;	COMDAT xdata
xdata	SEGMENT
$cppxdata$??_E?$basic_string@DU?$char_traits@D@std@@V?$allocator@D@2@@std@@QEAAPEAXI@Z DB 060H
	DD	imagerel $ip2state$??_E?$basic_string@DU?$char_traits@D@std@@V?$allocator@D@2@@std@@QEAAPEAXI@Z
xdata	ENDS
;	COMDAT xdata
xdata	SEGMENT
$unwind$??_E?$basic_string@DU?$char_traits@D@std@@V?$allocator@D@2@@std@@QEAAPEAXI@Z DD 025051719H
	DD	01122317H
	DD	0700b001dH
	DD	0500aH
	DD	imagerel __CxxFrameHandler4
	DD	imagerel $cppxdata$??_E?$basic_string@DU?$char_traits@D@std@@V?$allocator@D@2@@std@@QEAAPEAXI@Z
xdata	ENDS
;	COMDAT xdata
xdata	SEGMENT
$unwind$??1?$_Compressed_pair@V?$allocator@D@std@@V?$_String_val@U?$_Simple_types@D@std@@@2@$00@std@@QEAA@XZ DD 025051301H
	DD	010e2313H
	DD	07007001dH
	DD	05006H
xdata	ENDS
;	COMDAT xdata
xdata	SEGMENT
$unwind$?_Get_first@?$_Compressed_pair@V?$allocator@D@std@@V?$_String_val@U?$_Simple_types@D@std@@@2@$00@std@@QEBAAEBV?$allocator@D@2@XZ DD 025051301H
	DD	010e2313H
	DD	07007001dH
	DD	05006H
xdata	ENDS
;	COMDAT xdata
xdata	SEGMENT
$unwind$?_Get_first@?$_Compressed_pair@V?$allocator@D@std@@V?$_String_val@U?$_Simple_types@D@std@@@2@$00@std@@QEAAAEAV?$allocator@D@2@XZ DD 025051301H
	DD	010e2313H
	DD	07007001dH
	DD	05006H
xdata	ENDS
;	COMDAT xdata
xdata	SEGMENT
$unwind$?_Getal@?$basic_string@DU?$char_traits@D@std@@V?$allocator@D@2@@std@@AEBAAEBV?$allocator@D@2@XZ DD 025051301H
	DD	010e2313H
	DD	07007001dH
	DD	05006H
xdata	ENDS
;	COMDAT xdata
xdata	SEGMENT
$unwind$?_Getal@?$basic_string@DU?$char_traits@D@std@@V?$allocator@D@2@@std@@AEAAAEAV?$allocator@D@2@XZ DD 025051301H
	DD	010e2313H
	DD	07007001dH
	DD	05006H
xdata	ENDS
;	COMDAT xdata
xdata	SEGMENT
$ip2state$?_Tidy_deallocate@?$basic_string@DU?$char_traits@D@std@@V?$allocator@D@2@@std@@AEAAXXZ DB 02H
	DB	00H
	DB	00H
xdata	ENDS
;	COMDAT xdata
xdata	SEGMENT
$cppxdata$?_Tidy_deallocate@?$basic_string@DU?$char_traits@D@std@@V?$allocator@D@2@@std@@AEAAXXZ DB 060H
	DD	imagerel $ip2state$?_Tidy_deallocate@?$basic_string@DU?$char_traits@D@std@@V?$allocator@D@2@@std@@AEAAXXZ
xdata	ENDS
;	COMDAT xdata
xdata	SEGMENT
$unwind$?_Tidy_deallocate@?$basic_string@DU?$char_traits@D@std@@V?$allocator@D@2@@std@@AEAAXXZ DD 025051319H
	DD	010e2313H
	DD	070070029H
	DD	05006H
	DD	imagerel __CxxFrameHandler4
	DD	imagerel $cppxdata$?_Tidy_deallocate@?$basic_string@DU?$char_traits@D@std@@V?$allocator@D@2@@std@@AEAAXXZ
xdata	ENDS
;	COMDAT xdata
xdata	SEGMENT
$ip2state$?_Tidy_init@?$basic_string@DU?$char_traits@D@std@@V?$allocator@D@2@@std@@AEAAXXZ DB 02H
	DB	00H
	DB	00H
xdata	ENDS
;	COMDAT xdata
xdata	SEGMENT
$cppxdata$?_Tidy_init@?$basic_string@DU?$char_traits@D@std@@V?$allocator@D@2@@std@@AEAAXXZ DB 060H
	DD	imagerel $ip2state$?_Tidy_init@?$basic_string@DU?$char_traits@D@std@@V?$allocator@D@2@@std@@AEAAXXZ
xdata	ENDS
;	COMDAT xdata
xdata	SEGMENT
$unwind$?_Tidy_init@?$basic_string@DU?$char_traits@D@std@@V?$allocator@D@2@@std@@AEAAXXZ DD 025051319H
	DD	010e2313H
	DD	070070031H
	DD	05006H
	DD	imagerel __CxxFrameHandler4
	DD	imagerel $cppxdata$?_Tidy_init@?$basic_string@DU?$char_traits@D@std@@V?$allocator@D@2@@std@@AEAAXXZ
xdata	ENDS
;	COMDAT xdata
xdata	SEGMENT
$unwind$?_Calculate_growth@?$basic_string@DU?$char_traits@D@std@@V?$allocator@D@2@@std@@AEBA_K_K@Z DD 025051801H
	DD	01132318H
	DD	0700c001fH
	DD	0500bH
xdata	ENDS
;	COMDAT voltbl
voltbl	SEGMENT
_volmd	DB	040H
	DB	0f6H
voltbl	ENDS
;	COMDAT xdata
xdata	SEGMENT
$unwind$?_Calculate_growth@?$basic_string@DU?$char_traits@D@std@@V?$allocator@D@2@@std@@CA_K_K00@Z DD 025054719H
	DD	0118231dH
	DD	070110025H
	DD	05010H
	DD	imagerel __GSHandlerCheck
	DD	0118H
xdata	ENDS
;	COMDAT CONST
CONST	SEGMENT
?_Calculate_growth@?$basic_string@DU?$char_traits@D@std@@V?$allocator@D@2@@std@@CA_K_K00@Z$rtcName$0 DB 05fH ; std::basic_string<char,std::char_traits<char>,std::allocator<char> >::_Calculate_growth
	DB	04dH
	DB	061H
	DB	073H
	DB	06bH
	DB	065H
	DB	064H
	DB	00H
	ORG $+8
?_Calculate_growth@?$basic_string@DU?$char_traits@D@std@@V?$allocator@D@2@@std@@CA_K_K00@Z$rtcVarDesc DD 028H ; std::basic_string<char,std::char_traits<char>,std::allocator<char> >::_Calculate_growth
	DD	08H
	DQ	FLAT:?_Calculate_growth@?$basic_string@DU?$char_traits@D@std@@V?$allocator@D@2@@std@@CA_K_K00@Z$rtcName$0
	ORG $+48
?_Calculate_growth@?$basic_string@DU?$char_traits@D@std@@V?$allocator@D@2@@std@@CA_K_K00@Z$rtcFrameData DD 01H ; std::basic_string<char,std::char_traits<char>,std::allocator<char> >::_Calculate_growth
	DD	00H
	DQ	FLAT:?_Calculate_growth@?$basic_string@DU?$char_traits@D@std@@V?$allocator@D@2@@std@@CA_K_K00@Z$rtcVarDesc
CONST	ENDS
;	COMDAT voltbl
voltbl	SEGMENT
_volmd	DB	036H
	DB	0c9H
voltbl	ENDS
;	COMDAT xdata
xdata	SEGMENT
$unwind$?max_size@?$basic_string@DU?$char_traits@D@std@@V?$allocator@D@2@@std@@QEBA_KXZ DD 025053d19H
	DD	010e2313H
	DD	070070031H
	DD	05006H
	DD	imagerel __GSHandlerCheck
	DD	0178H
xdata	ENDS
;	COMDAT CONST
CONST	SEGMENT
?max_size@?$basic_string@DU?$char_traits@D@std@@V?$allocator@D@2@@std@@QEBA_KXZ$rtcName$0 DB 05fH ; std::basic_string<char,std::char_traits<char>,std::allocator<char> >::max_size
	DB	041H
	DB	06cH
	DB	06cH
	DB	06fH
	DB	063H
	DB	05fH
	DB	06dH
	DB	061H
	DB	078H
	DB	00H
	ORG $+5
?max_size@?$basic_string@DU?$char_traits@D@std@@V?$allocator@D@2@@std@@QEBA_KXZ$rtcVarDesc DD 028H ; std::basic_string<char,std::char_traits<char>,std::allocator<char> >::max_size
	DD	08H
	DQ	FLAT:?max_size@?$basic_string@DU?$char_traits@D@std@@V?$allocator@D@2@@std@@QEBA_KXZ$rtcName$0
	ORG $+48
?max_size@?$basic_string@DU?$char_traits@D@std@@V?$allocator@D@2@@std@@QEBA_KXZ$rtcFrameData DD 01H ; std::basic_string<char,std::char_traits<char>,std::allocator<char> >::max_size
	DD	00H
	DQ	FLAT:?max_size@?$basic_string@DU?$char_traits@D@std@@V?$allocator@D@2@@std@@QEBA_KXZ$rtcVarDesc
CONST	ENDS
;	COMDAT xdata
xdata	SEGMENT
$unwind$?size@?$basic_string@DU?$char_traits@D@std@@V?$allocator@D@2@@std@@QEBA_KXZ DD 025051301H
	DD	010e2313H
	DD	07007001dH
	DD	05006H
xdata	ENDS
;	COMDAT xdata
xdata	SEGMENT
$unwind$?data@?$basic_string@DU?$char_traits@D@std@@V?$allocator@D@2@@std@@QEBAPEBDXZ DD 025051301H
	DD	010e2313H
	DD	07007001dH
	DD	05006H
xdata	ENDS
;	COMDAT xdata
xdata	SEGMENT
$unwind$?assign@?$basic_string@DU?$char_traits@D@std@@V?$allocator@D@2@@std@@QEAAAEAV12@QEBD@Z DD 025051801H
	DD	01132318H
	DD	0700c001dH
	DD	0500bH
xdata	ENDS
;	COMDAT xdata
xdata	SEGMENT
$unwind$?assign@?$basic_string@DU?$char_traits@D@std@@V?$allocator@D@2@@std@@QEAAAEAV12@QEBD_K@Z DD 025051d01H
	DD	0118231dH
	DD	070110029H
	DD	05010H
xdata	ENDS
;	COMDAT xdata
xdata	SEGMENT
$unwind$??4?$basic_string@DU?$char_traits@D@std@@V?$allocator@D@2@@std@@QEAAAEAV01@QEBD@Z DD 025051801H
	DD	01132318H
	DD	0700c001dH
	DD	0500bH
xdata	ENDS
;	COMDAT xdata
xdata	SEGMENT
$unwind$??4?$basic_string@DU?$char_traits@D@std@@V?$allocator@D@2@@std@@QEAAAEAV01@AEBV01@@Z DD 025051801H
	DD	01132318H
	DD	0700c0027H
	DD	0500bH
xdata	ENDS
;	COMDAT voltbl
voltbl	SEGMENT
_volmd	DB	036H
	DB	0bdH
voltbl	ENDS
;	COMDAT xdata
xdata	SEGMENT
$unwind$??1?$basic_string@DU?$char_traits@D@std@@V?$allocator@D@2@@std@@QEAA@XZ DD 025053d19H
	DD	010e2313H
	DD	070070029H
	DD	05006H
	DD	imagerel __GSHandlerCheck
	DD	0138H
xdata	ENDS
;	COMDAT CONST
CONST	SEGMENT
??1?$basic_string@DU?$char_traits@D@std@@V?$allocator@D@2@@std@@QEAA@XZ$rtcName$0 DB 024H ; std::basic_string<char,std::char_traits<char>,std::allocator<char> >::~basic_string<char,std::char_traits<char>,std::allocator<char> >
	DB	053H
	DB	031H
	DB	030H
	DB	00H
	ORG $+11
??1?$basic_string@DU?$char_traits@D@std@@V?$allocator@D@2@@std@@QEAA@XZ$rtcVarDesc DD 044H ; std::basic_string<char,std::char_traits<char>,std::allocator<char> >::~basic_string<char,std::char_traits<char>,std::allocator<char> >
	DD	01H
	DQ	FLAT:??1?$basic_string@DU?$char_traits@D@std@@V?$allocator@D@2@@std@@QEAA@XZ$rtcName$0
	ORG $+48
??1?$basic_string@DU?$char_traits@D@std@@V?$allocator@D@2@@std@@QEAA@XZ$rtcFrameData DD 01H ; std::basic_string<char,std::char_traits<char>,std::allocator<char> >::~basic_string<char,std::char_traits<char>,std::allocator<char> >
	DD	00H
	DQ	FLAT:??1?$basic_string@DU?$char_traits@D@std@@V?$allocator@D@2@@std@@QEAA@XZ$rtcVarDesc
CONST	ENDS
;	COMDAT voltbl
voltbl	SEGMENT
_volmd	DB	00H
	DB	05H
voltbl	ENDS
;	COMDAT voltbl
voltbl	SEGMENT
_volmd	DB	00H
	DB	05H
voltbl	ENDS
;	COMDAT voltbl
voltbl	SEGMENT
_volmd	DB	03bH
	DB	0f8H
voltbl	ENDS
;	COMDAT xdata
xdata	SEGMENT
$unwind$?dtor$1@?0???0?$basic_string@DU?$char_traits@D@std@@V?$allocator@D@2@@std@@QEAA@QEBD@Z@4HA DD 031001H
	DD	0700c4210H
	DD	0500bH
xdata	ENDS
;	COMDAT xdata
xdata	SEGMENT
$unwind$?dtor$0@?0???0?$basic_string@DU?$char_traits@D@std@@V?$allocator@D@2@@std@@QEAA@QEBD@Z@4HA DD 031001H
	DD	0700c4210H
	DD	0500bH
xdata	ENDS
;	COMDAT xdata
xdata	SEGMENT
$ip2state$??0?$basic_string@DU?$char_traits@D@std@@V?$allocator@D@2@@std@@QEAA@QEBD@Z DB 0aH
	DB	00H
	DB	00H
	DB	0e0H
	DB	02H
	DB	'p'
	DB	04H
	DB	'R'
	DB	02H
	DB	014H
	DB	00H
xdata	ENDS
;	COMDAT xdata
xdata	SEGMENT
$stateUnwindMap$??0?$basic_string@DU?$char_traits@D@std@@V?$allocator@D@2@@std@@QEAA@QEBD@Z DB 04H
	DB	0eH
	DD	imagerel ?dtor$0@?0???0?$basic_string@DU?$char_traits@D@std@@V?$allocator@D@2@@std@@QEAA@QEBD@Z@4HA
	DB	02eH
	DD	imagerel ?dtor$1@?0???0?$basic_string@DU?$char_traits@D@std@@V?$allocator@D@2@@std@@QEAA@QEBD@Z@4HA
xdata	ENDS
;	COMDAT xdata
xdata	SEGMENT
$cppxdata$??0?$basic_string@DU?$char_traits@D@std@@V?$allocator@D@2@@std@@QEAA@QEBD@Z DB 028H
	DD	imagerel $stateUnwindMap$??0?$basic_string@DU?$char_traits@D@std@@V?$allocator@D@2@@std@@QEAA@QEBD@Z
	DD	imagerel $ip2state$??0?$basic_string@DU?$char_traits@D@std@@V?$allocator@D@2@@std@@QEAA@QEBD@Z
xdata	ENDS
;	COMDAT xdata
xdata	SEGMENT
$unwind$??0?$basic_string@DU?$char_traits@D@std@@V?$allocator@D@2@@std@@QEAA@QEBD@Z DD 025054219H
	DD	01132318H
	DD	0700c0031H
	DD	0500bH
	DD	imagerel __GSHandlerCheck_EH4
	DD	imagerel $cppxdata$??0?$basic_string@DU?$char_traits@D@std@@V?$allocator@D@2@@std@@QEAA@QEBD@Z
	DD	0172H
xdata	ENDS
;	COMDAT CONST
CONST	SEGMENT
??0?$basic_string@DU?$char_traits@D@std@@V?$allocator@D@2@@std@@QEAA@QEBD@Z$rtcName$0 DB 024H ; std::basic_string<char,std::char_traits<char>,std::allocator<char> >::basic_string<char,std::char_traits<char>,std::allocator<char> >
	DB	053H
	DB	031H
	DB	031H
	DB	00H
	ORG $+3
??0?$basic_string@DU?$char_traits@D@std@@V?$allocator@D@2@@std@@QEAA@QEBD@Z$rtcName$1 DB 05fH ; std::basic_string<char,std::char_traits<char>,std::allocator<char> >::basic_string<char,std::char_traits<char>,std::allocator<char> >
	DB	050H
	DB	072H
	DB	06fH
	DB	078H
	DB	079H
	DB	00H
	ORG $+1
??0?$basic_string@DU?$char_traits@D@std@@V?$allocator@D@2@@std@@QEAA@QEBD@Z$rtcVarDesc DD 068H ; std::basic_string<char,std::char_traits<char>,std::allocator<char> >::basic_string<char,std::char_traits<char>,std::allocator<char> >
	DD	010H
	DQ	FLAT:??0?$basic_string@DU?$char_traits@D@std@@V?$allocator@D@2@@std@@QEAA@QEBD@Z$rtcName$1
	DD	044H
	DD	01H
	DQ	FLAT:??0?$basic_string@DU?$char_traits@D@std@@V?$allocator@D@2@@std@@QEAA@QEBD@Z$rtcName$0
	ORG $+96
??0?$basic_string@DU?$char_traits@D@std@@V?$allocator@D@2@@std@@QEAA@QEBD@Z$rtcFrameData DD 02H ; std::basic_string<char,std::char_traits<char>,std::allocator<char> >::basic_string<char,std::char_traits<char>,std::allocator<char> >
	DD	00H
	DQ	FLAT:??0?$basic_string@DU?$char_traits@D@std@@V?$allocator@D@2@@std@@QEAA@QEBD@Z$rtcVarDesc
CONST	ENDS
;	COMDAT xdata
xdata	SEGMENT
$ip2state$??0?$basic_string@DU?$char_traits@D@std@@V?$allocator@D@2@@std@@QEAA@XZ DB 02H
	DB	00H
	DB	00H
xdata	ENDS
;	COMDAT xdata
xdata	SEGMENT
$cppxdata$??0?$basic_string@DU?$char_traits@D@std@@V?$allocator@D@2@@std@@QEAA@XZ DB 060H
	DD	imagerel $ip2state$??0?$basic_string@DU?$char_traits@D@std@@V?$allocator@D@2@@std@@QEAA@XZ
xdata	ENDS
;	COMDAT xdata
xdata	SEGMENT
$unwind$??0?$basic_string@DU?$char_traits@D@std@@V?$allocator@D@2@@std@@QEAA@XZ DD 025051319H
	DD	010e2313H
	DD	070070025H
	DD	05006H
	DD	imagerel __CxxFrameHandler4
	DD	imagerel $cppxdata$??0?$basic_string@DU?$char_traits@D@std@@V?$allocator@D@2@@std@@QEAA@XZ
xdata	ENDS
;	COMDAT xdata
xdata	SEGMENT
$unwind$??1?$_String_val@U?$_Simple_types@D@std@@@std@@QEAA@XZ DD 025051301H
	DD	010e2313H
	DD	07007001dH
	DD	05006H
xdata	ENDS
;	COMDAT xdata
xdata	SEGMENT
$unwind$??1_Bxty@?$_String_val@U?$_Simple_types@D@std@@@std@@QEAA@XZ DD 025051301H
	DD	010e2313H
	DD	07007001dH
	DD	05006H
xdata	ENDS
;	COMDAT xdata
xdata	SEGMENT
$unwind$??0_Bxty@?$_String_val@U?$_Simple_types@D@std@@@std@@QEAA@XZ DD 025051301H
	DD	010e2313H
	DD	07007001dH
	DD	05006H
xdata	ENDS
;	COMDAT xdata
xdata	SEGMENT
$unwind$?_Large_string_engaged@?$_String_val@U?$_Simple_types@D@std@@@std@@QEBA_NXZ DD 025051301H
	DD	010e2313H
	DD	07007001fH
	DD	05006H
xdata	ENDS
;	COMDAT xdata
xdata	SEGMENT
$unwind$?_Myptr@?$_String_val@U?$_Simple_types@D@std@@@std@@QEBAPEBDXZ DD 025051301H
	DD	010e2313H
	DD	070070021H
	DD	05006H
xdata	ENDS
;	COMDAT xdata
xdata	SEGMENT
$unwind$?_Myptr@?$_String_val@U?$_Simple_types@D@std@@@std@@QEAAPEADXZ DD 025051301H
	DD	010e2313H
	DD	070070021H
	DD	05006H
xdata	ENDS
;	COMDAT xdata
xdata	SEGMENT
$unwind$??0?$_String_val@U?$_Simple_types@D@std@@@std@@QEAA@XZ DD 025051301H
	DD	010e2313H
	DD	07007001dH
	DD	05006H
xdata	ENDS
;	COMDAT xdata
xdata	SEGMENT
$unwind$?max_size@?$_Default_allocator_traits@V?$allocator@D@std@@@std@@SA_KAEBV?$allocator@D@2@@Z DD 025051301H
	DD	010e2313H
	DD	07007001dH
	DD	05006H
xdata	ENDS
;	COMDAT xdata
xdata	SEGMENT
$unwind$?allocate@?$allocator@D@std@@QEAAPEAD_K@Z DD 025051801H
	DD	01132318H
	DD	0700c001dH
	DD	0500bH
xdata	ENDS
;	COMDAT xdata
xdata	SEGMENT
$unwind$?deallocate@?$allocator@D@std@@QEAAXQEAD_K@Z DD 025051d01H
	DD	0118231dH
	DD	07011001dH
	DD	05010H
xdata	ENDS
;	COMDAT xdata
xdata	SEGMENT
$unwind$??0?$allocator@D@std@@QEAA@XZ DD 025051301H
	DD	010e2313H
	DD	07007001dH
	DD	05006H
xdata	ENDS
;	COMDAT xdata
xdata	SEGMENT
$unwind$?_Xlen_string@std@@YAXXZ DD 025050f01H
	DD	010a230fH
	DD	07003001dH
	DD	05002H
xdata	ENDS
;	COMDAT xdata
xdata	SEGMENT
$unwind$?eof@?$_Narrow_char_traits@DH@std@@SAHXZ DD 025050f01H
	DD	010a230fH
	DD	07003001dH
	DD	05002H
xdata	ENDS
;	COMDAT xdata
xdata	SEGMENT
$unwind$?eq_int_type@?$_Narrow_char_traits@DH@std@@SA_NAEBH0@Z DD 025051801H
	DD	01132318H
	DD	0700c001fH
	DD	0500bH
xdata	ENDS
;	COMDAT xdata
xdata	SEGMENT
$unwind$?assign@?$_Narrow_char_traits@DH@std@@SAXAEADAEBD@Z DD 025051801H
	DD	01132318H
	DD	0700c001dH
	DD	0500bH
xdata	ENDS
;	COMDAT xdata
xdata	SEGMENT
$unwind$?assign@?$_Narrow_char_traits@DH@std@@SAPEADQEAD_KD@Z DD 025051d01H
	DD	0118231dH
	DD	07011001dH
	DD	05010H
xdata	ENDS
;	COMDAT xdata
xdata	SEGMENT
$unwind$?length@?$_Narrow_char_traits@DH@std@@SA_KQEBD@Z DD 025051301H
	DD	010e2313H
	DD	07007001fH
	DD	05006H
xdata	ENDS
;	COMDAT xdata
xdata	SEGMENT
$unwind$?assign@?$_Char_traits@DH@std@@SAPEADQEAD_KD@Z DD 025051d01H
	DD	0118231dH
	DD	070110025H
	DD	05010H
xdata	ENDS
;	COMDAT xdata
xdata	SEGMENT
$unwind$?move@?$_Char_traits@DH@std@@SAPEADQEADQEBD_K@Z DD 025051d01H
	DD	0118231dH
	DD	07011002dH
	DD	05010H
xdata	ENDS
;	COMDAT xdata
xdata	SEGMENT
$unwind$?copy@?$_Char_traits@DH@std@@SAPEADQEADQEBD_K@Z DD 025051d01H
	DD	0118231dH
	DD	070110021H
	DD	05010H
xdata	ENDS
;	COMDAT xdata
xdata	SEGMENT
$unwind$??$_Construct_in_place@U_Container_proxy@std@@PEAU_Container_base12@2@@std@@YAXAEAU_Container_proxy@0@$$QEAPEAU_Container_base12@0@@Z DD 025051801H
	DD	01132318H
	DD	0700c0023H
	DD	0500bH
xdata	ENDS
;	COMDAT xdata
xdata	SEGMENT
$unwind$??$addressof@U_Container_base12@std@@@std@@YAPEAU_Container_base12@0@AEAU10@@Z DD 025051301H
	DD	010e2313H
	DD	07007001dH
	DD	05006H
xdata	ENDS
;	COMDAT xdata
xdata	SEGMENT
$unwind$??0_Basic_container_proxy_ptr12@std@@IEAA@XZ DD 025051301H
	DD	010e2313H
	DD	07007001dH
	DD	05006H
xdata	ENDS
;	COMDAT xdata
xdata	SEGMENT
$unwind$?_Release@_Basic_container_proxy_ptr12@std@@QEAAXXZ DD 025051301H
	DD	010e2313H
	DD	07007001dH
	DD	05006H
xdata	ENDS
;	COMDAT voltbl
voltbl	SEGMENT
_volmd	DB	036H
	DB	07eH
voltbl	ENDS
;	COMDAT xdata
xdata	SEGMENT
$unwind$?_Orphan_all_locked_v3@_Container_base12@std@@AEAAXXZ DD 025053d19H
	DD	010e2313H
	DD	070070021H
	DD	05006H
	DD	imagerel __GSHandlerCheck
	DD	0f8H
xdata	ENDS
;	COMDAT CONST
CONST	SEGMENT
?_Orphan_all_locked_v3@_Container_base12@std@@AEAAXXZ$rtcName$0 DB 05fH ; std::_Container_base12::_Orphan_all_locked_v3
	DB	04cH
	DB	06fH
	DB	063H
	DB	06bH
	DB	00H
	ORG $+10
?_Orphan_all_locked_v3@_Container_base12@std@@AEAAXXZ$rtcVarDesc DD 024H ; std::_Container_base12::_Orphan_all_locked_v3
	DD	04H
	DQ	FLAT:?_Orphan_all_locked_v3@_Container_base12@std@@AEAAXXZ$rtcName$0
	ORG $+48
?_Orphan_all_locked_v3@_Container_base12@std@@AEAAXXZ$rtcFrameData DD 01H ; std::_Container_base12::_Orphan_all_locked_v3
	DD	00H
	DQ	FLAT:?_Orphan_all_locked_v3@_Container_base12@std@@AEAAXXZ$rtcVarDesc
CONST	ENDS
;	COMDAT xdata
xdata	SEGMENT
$unwind$?_Orphan_all_unlocked_v3@_Container_base12@std@@AEAAXXZ DD 025051301H
	DD	010e2313H
	DD	070070021H
	DD	05006H
xdata	ENDS
;	COMDAT xdata
xdata	SEGMENT
$unwind$?_Orphan_all@_Container_base12@std@@QEAAXXZ DD 025051301H
	DD	010e2313H
	DD	07007001dH
	DD	05006H
xdata	ENDS
;	COMDAT xdata
xdata	SEGMENT
$unwind$??0_Container_base12@std@@QEAA@XZ DD 025051301H
	DD	010e2313H
	DD	07007001dH
	DD	05006H
xdata	ENDS
;	COMDAT xdata
xdata	SEGMENT
$unwind$??0_Container_proxy@std@@QEAA@PEAU_Container_base12@1@@Z DD 025051801H
	DD	01132318H
	DD	0700c001dH
	DD	0500bH
xdata	ENDS
;	COMDAT xdata
xdata	SEGMENT
$unwind$?_Adjust_manually_vector_aligned@std@@YAXAEAPEAXAEA_K@Z DD 035051801H
	DD	01133318H
	DD	0700c002fH
	DD	0500bH
xdata	ENDS
;	COMDAT xdata
xdata	SEGMENT
$unwind$?_Allocate@_Default_allocate_traits@std@@SAPEAX_K@Z DD 025051301H
	DD	010e2313H
	DD	07007001dH
	DD	05006H
xdata	ENDS
;	COMDAT xdata
xdata	SEGMENT
$unwind$?_Throw_bad_array_new_length@std@@YAXXZ DD 025050f01H
	DD	010a230fH
	DD	070030023H
	DD	05002H
xdata	ENDS
;	COMDAT xdata
xdata	SEGMENT
$unwind$??_Gbad_array_new_length@std@@UEAAPEAXI@Z DD 025051701H
	DD	01122317H
	DD	0700b001dH
	DD	0500aH
xdata	ENDS
;	COMDAT xdata
xdata	SEGMENT
$unwind$??0bad_array_new_length@std@@QEAA@AEBV01@@Z DD 025051801H
	DD	01132318H
	DD	0700c001dH
	DD	0500bH
xdata	ENDS
;	COMDAT xdata
xdata	SEGMENT
$unwind$??1bad_array_new_length@std@@UEAA@XZ DD 025051301H
	DD	010e2313H
	DD	07007001dH
	DD	05006H
xdata	ENDS
;	COMDAT xdata
xdata	SEGMENT
$unwind$??0bad_array_new_length@std@@QEAA@XZ DD 025051301H
	DD	010e2313H
	DD	07007001dH
	DD	05006H
xdata	ENDS
;	COMDAT xdata
xdata	SEGMENT
$unwind$??_Gbad_alloc@std@@UEAAPEAXI@Z DD 025051701H
	DD	01122317H
	DD	0700b001dH
	DD	0500aH
xdata	ENDS
;	COMDAT xdata
xdata	SEGMENT
$unwind$??0bad_alloc@std@@QEAA@AEBV01@@Z DD 025051801H
	DD	01132318H
	DD	0700c001dH
	DD	0500bH
xdata	ENDS
;	COMDAT xdata
xdata	SEGMENT
$unwind$??1bad_alloc@std@@UEAA@XZ DD 025051301H
	DD	010e2313H
	DD	07007001dH
	DD	05006H
xdata	ENDS
;	COMDAT xdata
xdata	SEGMENT
$unwind$??0bad_alloc@std@@AEAA@QEBD@Z DD 025051801H
	DD	01132318H
	DD	0700c001dH
	DD	0500bH
xdata	ENDS
;	COMDAT xdata
xdata	SEGMENT
$unwind$??_Gexception@std@@UEAAPEAXI@Z DD 025051701H
	DD	01122317H
	DD	0700b001dH
	DD	0500aH
xdata	ENDS
;	COMDAT xdata
xdata	SEGMENT
$unwind$?what@exception@std@@UEBAPEBDXZ DD 025051301H
	DD	010e2313H
	DD	07007001fH
	DD	05006H
xdata	ENDS
;	COMDAT xdata
xdata	SEGMENT
$unwind$??1exception@std@@UEAA@XZ DD 025051301H
	DD	010e2313H
	DD	07007001dH
	DD	05006H
xdata	ENDS
;	COMDAT xdata
xdata	SEGMENT
$unwind$??0exception@std@@QEAA@AEBV01@@Z DD 025051801H
	DD	01132318H
	DD	0700c001dH
	DD	0500bH
xdata	ENDS
;	COMDAT xdata
xdata	SEGMENT
$unwind$??0exception@std@@QEAA@QEBDH@Z DD 025051d01H
	DD	0118231dH
	DD	07011001dH
	DD	05010H
xdata	ENDS
;	COMDAT xdata
xdata	SEGMENT
$unwind$?max@?$numeric_limits@_J@std@@SA_JXZ DD 025050f01H
	DD	010a230fH
	DD	07003001dH
	DD	05002H
xdata	ENDS
;	COMDAT xdata
xdata	SEGMENT
$unwind$?is_constant_evaluated@std@@YA_NXZ DD 025050f01H
	DD	010a230fH
	DD	07003001dH
	DD	05002H
xdata	ENDS
;	COMDAT xdata
xdata	SEGMENT
$unwind$??2@YAPEAX_KPEAX@Z DD 025051801H
	DD	01132318H
	DD	0700c001dH
	DD	0500bH
xdata	ENDS
;	COMDAT xdata
xdata	SEGMENT
$unwind$?__empty_global_delete@@YAXPEAX_KW4align_val_t@std@@@Z DD 025051d01H
	DD	0118231dH
	DD	07011001dH
	DD	05010H
xdata	ENDS
;	COMDAT xdata
xdata	SEGMENT
$unwind$?__empty_global_delete@@YAXPEAXW4align_val_t@std@@@Z DD 025051801H
	DD	01132318H
	DD	0700c001dH
	DD	0500bH
xdata	ENDS
;	COMDAT xdata
xdata	SEGMENT
$unwind$?__empty_global_delete@@YAXPEAX_K@Z DD 025051801H
	DD	01132318H
	DD	0700c001dH
	DD	0500bH
xdata	ENDS
;	COMDAT xdata
xdata	SEGMENT
$unwind$?__empty_global_delete@@YAXPEAX@Z DD 025051301H
	DD	010e2313H
	DD	07007001dH
	DD	05006H
xdata	ENDS
; Function compile flags: /Odt
;	COMDAT __JustMyCode_Default
_TEXT	SEGMENT
__JustMyCode_Default PROC				; COMDAT
	ret	0
__JustMyCode_Default ENDP
_TEXT	ENDS
; Function compile flags: /Odtp /RTCsu /ZI
; File C:\Program Files\Microsoft Visual Studio\2022\Community\VC\Tools\MSVC\14.31.31103\include\xutility
;	COMDAT ??$_To_address@PEAH@std@@YA?A_PAEBQEAH@Z
_TEXT	SEGMENT
_Val$ = 224
??$_To_address@PEAH@std@@YA?A_PAEBQEAH@Z PROC		; std::_To_address<int *>, COMDAT

; 3904 : _NODISCARD constexpr auto _To_address(const _Iter& _Val) noexcept {

$LN3:
	mov	QWORD PTR [rsp+8], rcx
	push	rbp
	push	rdi
	sub	rsp, 232				; 000000e8H
	lea	rbp, QWORD PTR [rsp+32]
	lea	rcx, OFFSET FLAT:__7F396DA6_xutility
	call	__CheckForDebuggerJustMyCode

; 3905 :     _STL_INTERNAL_STATIC_ASSERT(contiguous_iterator<_Iter>);
; 3906 :     return _STD to_address(_Val);

	mov	rax, QWORD PTR _Val$[rbp]
	mov	rcx, QWORD PTR [rax]
	call	??$to_address@H@std@@YAPEAHQEAH@Z	; std::to_address<int>

; 3907 : }

	lea	rsp, QWORD PTR [rbp+200]
	pop	rdi
	pop	rbp
	ret	0
??$_To_address@PEAH@std@@YA?A_PAEBQEAH@Z ENDP		; std::_To_address<int *>
_TEXT	ENDS
; Function compile flags: /Odtp /RTCsu /ZI
; File C:\Program Files\Microsoft Visual Studio\2022\Community\VC\Tools\MSVC\14.31.31103\include\xmemory
;	COMDAT ?deallocate@?$_Default_allocator_traits@V?$allocator@U_Container_proxy@std@@@std@@@std@@SAXAEAV?$allocator@U_Container_proxy@std@@@2@QEAU_Container_proxy@2@_K@Z
_TEXT	SEGMENT
_Al$ = 224
_Ptr$ = 232
_Count$ = 240
?deallocate@?$_Default_allocator_traits@V?$allocator@U_Container_proxy@std@@@std@@@std@@SAXAEAV?$allocator@U_Container_proxy@std@@@2@QEAU_Container_proxy@2@_K@Z PROC ; std::_Default_allocator_traits<std::allocator<std::_Container_proxy> >::deallocate, COMDAT

; 659  :     static _CONSTEXPR20 void deallocate(_Alloc& _Al, const pointer _Ptr, const size_type _Count) {

$LN5:
	mov	QWORD PTR [rsp+24], r8
	mov	QWORD PTR [rsp+16], rdx
	mov	QWORD PTR [rsp+8], rcx
	push	rbp
	push	rdi
	sub	rsp, 232				; 000000e8H
	lea	rbp, QWORD PTR [rsp+32]
	lea	rcx, OFFSET FLAT:__BBC6BDD8_xmemory
	call	__CheckForDebuggerJustMyCode

; 660  :         // no overflow check on the following multiply; we assume _Allocate did that check
; 661  : #if _HAS_CXX20 // TRANSITION, GH-1532
; 662  :         if (_STD is_constant_evaluated()) {

	call	?is_constant_evaluated@std@@YA_NXZ	; std::is_constant_evaluated
	movzx	eax, al
	test	eax, eax
	je	SHORT $LN2@deallocate

; 663  :             _Al.deallocate(_Ptr, _Count);

	mov	r8, QWORD PTR _Count$[rbp]
	mov	rdx, QWORD PTR _Ptr$[rbp]
	mov	rcx, QWORD PTR _Al$[rbp]
	call	?deallocate@?$allocator@U_Container_proxy@std@@@std@@QEAAXQEAU_Container_proxy@2@_K@Z ; std::allocator<std::_Container_proxy>::deallocate

; 664  :         } else

	jmp	SHORT $LN3@deallocate
$LN2@deallocate:

; 665  : #endif // _HAS_CXX20
; 666  :         {
; 667  :             (void) _Al;
; 668  :             _Deallocate<_New_alignof<value_type>>(_Ptr, sizeof(value_type) * _Count);

	imul	rax, QWORD PTR _Count$[rbp], 16
	mov	rdx, rax
	mov	rcx, QWORD PTR _Ptr$[rbp]
	call	??$_Deallocate@$0BA@$0A@@std@@YAXPEAX_K@Z ; std::_Deallocate<16,0>
$LN3@deallocate:

; 669  :         }
; 670  :     }

	lea	rsp, QWORD PTR [rbp+200]
	pop	rdi
	pop	rbp
	ret	0
?deallocate@?$_Default_allocator_traits@V?$allocator@U_Container_proxy@std@@@std@@@std@@SAXAEAV?$allocator@U_Container_proxy@std@@@2@QEAU_Container_proxy@2@_K@Z ENDP ; std::_Default_allocator_traits<std::allocator<std::_Container_proxy> >::deallocate
_TEXT	ENDS
; Function compile flags: /Odtp /RTCsu /ZI
; File C:\Program Files\Microsoft Visual Studio\2022\Community\VC\Tools\MSVC\14.31.31103\include\xmemory
;	COMDAT ??$_Emplace_back@H@?$_Uninitialized_backout_al@V?$allocator@H@std@@@std@@QEAAX$$QEAH@Z
_TEXT	SEGMENT
tv78 = 192
tv76 = 200
tv74 = 208
this$ = 256
<_Vals_0>$ = 264
??$_Emplace_back@H@?$_Uninitialized_backout_al@V?$allocator@H@std@@@std@@QEAAX$$QEAH@Z PROC ; std::_Uninitialized_backout_al<std::allocator<int> >::_Emplace_back<int>, COMDAT

; 1651 :     _CONSTEXPR20 void _Emplace_back(_Types&&... _Vals) { // construct a new element at *_Last and increment

$LN3:
	mov	QWORD PTR [rsp+16], rdx
	mov	QWORD PTR [rsp+8], rcx
	push	rbp
	push	rdi
	sub	rsp, 264				; 00000108H
	lea	rbp, QWORD PTR [rsp+32]
	lea	rcx, OFFSET FLAT:__BBC6BDD8_xmemory
	call	__CheckForDebuggerJustMyCode

; 1652 :         allocator_traits<_Alloc>::construct(_Al, _Unfancy(_Last), _STD forward<_Types>(_Vals)...);

	mov	rcx, QWORD PTR <_Vals_0>$[rbp]
	call	??$forward@H@std@@YA$$QEAHAEAH@Z	; std::forward<int>
	mov	QWORD PTR tv78[rbp], rax
	mov	rax, QWORD PTR this$[rbp]
	mov	rcx, QWORD PTR [rax+8]
	call	??$_Unfancy@H@std@@YAPEAHPEAH@Z		; std::_Unfancy<int>
	mov	QWORD PTR tv76[rbp], rax
	mov	rax, QWORD PTR this$[rbp]
	mov	rax, QWORD PTR [rax+16]
	mov	QWORD PTR tv74[rbp], rax
	mov	r8, QWORD PTR tv78[rbp]
	mov	rdx, QWORD PTR tv76[rbp]
	mov	rcx, QWORD PTR tv74[rbp]
	call	??$construct@HH@?$_Default_allocator_traits@V?$allocator@H@std@@@std@@SAXAEAV?$allocator@H@1@QEAH$$QEAH@Z ; std::_Default_allocator_traits<std::allocator<int> >::construct<int,int>

; 1653 :         ++_Last;

	mov	rax, QWORD PTR this$[rbp]
	mov	rax, QWORD PTR [rax+8]
	add	rax, 4
	mov	rcx, QWORD PTR this$[rbp]
	mov	QWORD PTR [rcx+8], rax

; 1654 :     }

	lea	rsp, QWORD PTR [rbp+232]
	pop	rdi
	pop	rbp
	ret	0
??$_Emplace_back@H@?$_Uninitialized_backout_al@V?$allocator@H@std@@@std@@QEAAX$$QEAH@Z ENDP ; std::_Uninitialized_backout_al<std::allocator<int> >::_Emplace_back<int>
_TEXT	ENDS
; Function compile flags: /Odtp /RTCsu /ZI
;	COMDAT ?__autoclassinit2@?$_Uninitialized_backout_al@V?$allocator@H@std@@@std@@QEAAX_K@Z
_TEXT	SEGMENT
this$ = 224
classSize$ = 232
?__autoclassinit2@?$_Uninitialized_backout_al@V?$allocator@H@std@@@std@@QEAAX_K@Z PROC ; std::_Uninitialized_backout_al<std::allocator<int> >::__autoclassinit2, COMDAT
$LN3:
	mov	QWORD PTR [rsp+16], rdx
	mov	QWORD PTR [rsp+8], rcx
	push	rbp
	push	rdi
	sub	rsp, 200				; 000000c8H
	mov	rbp, rsp
	mov	rdi, QWORD PTR this$[rbp]
	xor	eax, eax
	mov	rcx, QWORD PTR classSize$[rbp]
	rep stosb
	lea	rsp, QWORD PTR [rbp+200]
	pop	rdi
	pop	rbp
	ret	0
?__autoclassinit2@?$_Uninitialized_backout_al@V?$allocator@H@std@@@std@@QEAAX_K@Z ENDP ; std::_Uninitialized_backout_al<std::allocator<int> >::__autoclassinit2
_TEXT	ENDS
; Function compile flags: /Odtp /RTCsu /ZI
; File C:\Program Files\Microsoft Visual Studio\2022\Community\VC\Tools\MSVC\14.31.31103\include\xmemory
;	COMDAT ?_Release@?$_Uninitialized_backout_al@V?$allocator@H@std@@@std@@QEAAPEAHXZ
_TEXT	SEGMENT
this$ = 224
?_Release@?$_Uninitialized_backout_al@V?$allocator@H@std@@@std@@QEAAPEAHXZ PROC ; std::_Uninitialized_backout_al<std::allocator<int> >::_Release, COMDAT

; 1656 :     constexpr pointer _Release() { // suppress any exception handling backout and return _Last

$LN3:
	mov	QWORD PTR [rsp+8], rcx
	push	rbp
	push	rdi
	sub	rsp, 232				; 000000e8H
	lea	rbp, QWORD PTR [rsp+32]
	lea	rcx, OFFSET FLAT:__BBC6BDD8_xmemory
	call	__CheckForDebuggerJustMyCode

; 1657 :         _First = _Last;

	mov	rax, QWORD PTR this$[rbp]
	mov	rcx, QWORD PTR this$[rbp]
	mov	rcx, QWORD PTR [rcx+8]
	mov	QWORD PTR [rax], rcx

; 1658 :         return _Last;

	mov	rax, QWORD PTR this$[rbp]
	mov	rax, QWORD PTR [rax+8]

; 1659 :     }

	lea	rsp, QWORD PTR [rbp+200]
	pop	rdi
	pop	rbp
	ret	0
?_Release@?$_Uninitialized_backout_al@V?$allocator@H@std@@@std@@QEAAPEAHXZ ENDP ; std::_Uninitialized_backout_al<std::allocator<int> >::_Release
_TEXT	ENDS
; Function compile flags: /Odtp /RTCsu /ZI
; File C:\Program Files\Microsoft Visual Studio\2022\Community\VC\Tools\MSVC\14.31.31103\include\xmemory
;	COMDAT ??1?$_Uninitialized_backout_al@V?$allocator@H@std@@@std@@QEAA@XZ
_TEXT	SEGMENT
this$ = 224
??1?$_Uninitialized_backout_al@V?$allocator@H@std@@@std@@QEAA@XZ PROC ; std::_Uninitialized_backout_al<std::allocator<int> >::~_Uninitialized_backout_al<std::allocator<int> >, COMDAT

; 1646 :     _CONSTEXPR20 ~_Uninitialized_backout_al() {

$LN3:
	mov	QWORD PTR [rsp+8], rcx
	push	rbp
	push	rdi
	sub	rsp, 232				; 000000e8H
	lea	rbp, QWORD PTR [rsp+32]
	lea	rcx, OFFSET FLAT:__BBC6BDD8_xmemory
	call	__CheckForDebuggerJustMyCode

; 1647 :         _Destroy_range(_First, _Last, _Al);

	mov	rax, QWORD PTR this$[rbp]
	mov	r8, QWORD PTR [rax+16]
	mov	rax, QWORD PTR this$[rbp]
	mov	rdx, QWORD PTR [rax+8]
	mov	rax, QWORD PTR this$[rbp]
	mov	rcx, QWORD PTR [rax]
	call	??$_Destroy_range@V?$allocator@H@std@@@std@@YAXPEAHQEAHAEAV?$allocator@H@0@@Z ; std::_Destroy_range<std::allocator<int> >

; 1648 :     }

	lea	rsp, QWORD PTR [rbp+200]
	pop	rdi
	pop	rbp
	ret	0
??1?$_Uninitialized_backout_al@V?$allocator@H@std@@@std@@QEAA@XZ ENDP ; std::_Uninitialized_backout_al<std::allocator<int> >::~_Uninitialized_backout_al<std::allocator<int> >
_TEXT	ENDS
; Function compile flags: /Odtp /RTCsu /ZI
; File C:\Program Files\Microsoft Visual Studio\2022\Community\VC\Tools\MSVC\14.31.31103\include\xmemory
;	COMDAT ??0?$_Uninitialized_backout_al@V?$allocator@H@std@@@std@@QEAA@PEAHAEAV?$allocator@H@1@@Z
_TEXT	SEGMENT
this$ = 224
_Dest$ = 232
_Al_$ = 240
??0?$_Uninitialized_backout_al@V?$allocator@H@std@@@std@@QEAA@PEAHAEAV?$allocator@H@1@@Z PROC ; std::_Uninitialized_backout_al<std::allocator<int> >::_Uninitialized_backout_al<std::allocator<int> >, COMDAT

; 1641 :     _CONSTEXPR20 _Uninitialized_backout_al(pointer _Dest, _Alloc& _Al_) : _First(_Dest), _Last(_Dest), _Al(_Al_) {}

$LN3:
	mov	QWORD PTR [rsp+24], r8
	mov	QWORD PTR [rsp+16], rdx
	mov	QWORD PTR [rsp+8], rcx
	push	rbp
	push	rdi
	sub	rsp, 232				; 000000e8H
	lea	rbp, QWORD PTR [rsp+32]
	lea	rcx, OFFSET FLAT:__BBC6BDD8_xmemory
	call	__CheckForDebuggerJustMyCode
	mov	rax, QWORD PTR this$[rbp]
	mov	rcx, QWORD PTR _Dest$[rbp]
	mov	QWORD PTR [rax], rcx
	mov	rax, QWORD PTR this$[rbp]
	mov	rcx, QWORD PTR _Dest$[rbp]
	mov	QWORD PTR [rax+8], rcx
	mov	rax, QWORD PTR this$[rbp]
	mov	rcx, QWORD PTR _Al_$[rbp]
	mov	QWORD PTR [rax+16], rcx
	mov	rax, QWORD PTR this$[rbp]
	lea	rsp, QWORD PTR [rbp+200]
	pop	rdi
	pop	rbp
	ret	0
??0?$_Uninitialized_backout_al@V?$allocator@H@std@@@std@@QEAA@PEAHAEAV?$allocator@H@1@@Z ENDP ; std::_Uninitialized_backout_al<std::allocator<int> >::_Uninitialized_backout_al<std::allocator<int> >
_TEXT	ENDS
; Function compile flags: /Odtp /RTCsu /ZI
; File C:\Program Files\Microsoft Visual Studio\2022\Community\VC\Tools\MSVC\14.31.31103\include\xutility
;	COMDAT ??$_Copy_memmove@PEAHPEAH@std@@YAPEAHPEAH00@Z
_TEXT	SEGMENT
_FirstPtr$ = 8
_LastPtr$ = 40
_DestPtr$ = 72
_First_ch$ = 104
_Last_ch$ = 136
_Dest_ch$ = 168
_Count$ = 200
_First$ = 448
_Last$ = 456
_Dest$ = 464
??$_Copy_memmove@PEAHPEAH@std@@YAPEAHPEAH00@Z PROC	; std::_Copy_memmove<int *,int *>, COMDAT

; 4003 : _OutCtgIt _Copy_memmove(_CtgIt _First, _CtgIt _Last, _OutCtgIt _Dest) {

$LN3:
	mov	QWORD PTR [rsp+24], r8
	mov	QWORD PTR [rsp+16], rdx
	mov	QWORD PTR [rsp+8], rcx
	push	rbp
	push	rdi
	sub	rsp, 456				; 000001c8H
	lea	rbp, QWORD PTR [rsp+32]
	lea	rcx, OFFSET FLAT:__7F396DA6_xutility
	call	__CheckForDebuggerJustMyCode

; 4004 :     auto _FirstPtr              = _To_address(_First);

	lea	rcx, QWORD PTR _First$[rbp]
	call	??$_To_address@PEAH@std@@YA?A_PAEBQEAH@Z ; std::_To_address<int *>
	mov	QWORD PTR _FirstPtr$[rbp], rax

; 4005 :     auto _LastPtr               = _To_address(_Last);

	lea	rcx, QWORD PTR _Last$[rbp]
	call	??$_To_address@PEAH@std@@YA?A_PAEBQEAH@Z ; std::_To_address<int *>
	mov	QWORD PTR _LastPtr$[rbp], rax

; 4006 :     auto _DestPtr               = _To_address(_Dest);

	lea	rcx, QWORD PTR _Dest$[rbp]
	call	??$_To_address@PEAH@std@@YA?A_PAEBQEAH@Z ; std::_To_address<int *>
	mov	QWORD PTR _DestPtr$[rbp], rax

; 4007 :     const char* const _First_ch = const_cast<const char*>(reinterpret_cast<const volatile char*>(_FirstPtr));

	mov	rax, QWORD PTR _FirstPtr$[rbp]
	mov	QWORD PTR _First_ch$[rbp], rax

; 4008 :     const char* const _Last_ch  = const_cast<const char*>(reinterpret_cast<const volatile char*>(_LastPtr));

	mov	rax, QWORD PTR _LastPtr$[rbp]
	mov	QWORD PTR _Last_ch$[rbp], rax

; 4009 :     char* const _Dest_ch        = const_cast<char*>(reinterpret_cast<const volatile char*>(_DestPtr));

	mov	rax, QWORD PTR _DestPtr$[rbp]
	mov	QWORD PTR _Dest_ch$[rbp], rax

; 4010 :     const auto _Count           = static_cast<size_t>(_Last_ch - _First_ch);

	mov	rax, QWORD PTR _First_ch$[rbp]
	mov	rcx, QWORD PTR _Last_ch$[rbp]
	sub	rcx, rax
	mov	rax, rcx
	mov	QWORD PTR _Count$[rbp], rax

; 4011 :     _CSTD memmove(_Dest_ch, _First_ch, _Count);

	mov	r8, QWORD PTR _Count$[rbp]
	mov	rdx, QWORD PTR _First_ch$[rbp]
	mov	rcx, QWORD PTR _Dest_ch$[rbp]
	call	memmove

; 4012 :     if constexpr (is_pointer_v<_OutCtgIt>) {
; 4013 :         return reinterpret_cast<_OutCtgIt>(_Dest_ch + _Count);

	mov	rax, QWORD PTR _Count$[rbp]
	mov	rcx, QWORD PTR _Dest_ch$[rbp]
	add	rcx, rax
	mov	rax, rcx

; 4014 :     } else {
; 4015 :         return _Dest + (_LastPtr - _FirstPtr);
; 4016 :     }
; 4017 : }

	lea	rsp, QWORD PTR [rbp+424]
	pop	rdi
	pop	rbp
	ret	0
??$_Copy_memmove@PEAHPEAH@std@@YAPEAHPEAH00@Z ENDP	; std::_Copy_memmove<int *,int *>
_TEXT	ENDS
; Function compile flags: /Odtp /RTCsu /ZI
; File C:\Program Files\Microsoft Visual Studio\2022\Community\VC\Tools\MSVC\14.31.31103\include\xutility
;	COMDAT ??$to_address@H@std@@YAPEAHQEAH@Z
_TEXT	SEGMENT
_Val$ = 224
??$to_address@H@std@@YAPEAHQEAH@Z PROC			; std::to_address<int>, COMDAT

; 199  : _NODISCARD constexpr _Ty* to_address(_Ty* const _Val) noexcept {

$LN3:
	mov	QWORD PTR [rsp+8], rcx
	push	rbp
	push	rdi
	sub	rsp, 232				; 000000e8H
	lea	rbp, QWORD PTR [rsp+32]
	lea	rcx, OFFSET FLAT:__7F396DA6_xutility
	call	__CheckForDebuggerJustMyCode

; 200  :     static_assert(!is_function_v<_Ty>,
; 201  :         "N4810 20.10.4 [pointer.conversion]/2: The program is ill-formed if T is a function type.");
; 202  :     return _Val;

	mov	rax, QWORD PTR _Val$[rbp]

; 203  : }

	lea	rsp, QWORD PTR [rbp+200]
	pop	rdi
	pop	rbp
	ret	0
??$to_address@H@std@@YAPEAHQEAH@Z ENDP			; std::to_address<int>
_TEXT	ENDS
; Function compile flags: /Odtp /RTCsu /ZI
; File C:\Program Files\Microsoft Visual Studio\2022\Community\VC\Tools\MSVC\14.31.31103\include\xutility
;	COMDAT ??$_Get_unwrapped@AEBQEAH@std@@YA?A_TAEBQEAH@Z
_TEXT	SEGMENT
_It$ = 224
??$_Get_unwrapped@AEBQEAH@std@@YA?A_TAEBQEAH@Z PROC	; std::_Get_unwrapped<int * const &>, COMDAT

; 1231 : _NODISCARD constexpr decltype(auto) _Get_unwrapped(_Iter&& _It) {

$LN3:
	mov	QWORD PTR [rsp+8], rcx
	push	rbp
	push	rdi
	sub	rsp, 232				; 000000e8H
	lea	rbp, QWORD PTR [rsp+32]
	lea	rcx, OFFSET FLAT:__7F396DA6_xutility
	call	__CheckForDebuggerJustMyCode

; 1232 :     // unwrap an iterator previously subjected to _Adl_verify_range or otherwise validated
; 1233 :     if constexpr (is_pointer_v<decay_t<_Iter>>) { // special-case pointers and arrays
; 1234 :         return _It + 0;

	mov	rax, QWORD PTR _It$[rbp]
	mov	rax, QWORD PTR [rax]

; 1235 :     } else if constexpr (_Unwrappable_v<_Iter>) {
; 1236 :         return static_cast<_Iter&&>(_It)._Unwrapped();
; 1237 :     } else {
; 1238 :         return static_cast<_Iter&&>(_It);
; 1239 :     }
; 1240 : }

	lea	rsp, QWORD PTR [rbp+200]
	pop	rdi
	pop	rbp
	ret	0
??$_Get_unwrapped@AEBQEAH@std@@YA?A_TAEBQEAH@Z ENDP	; std::_Get_unwrapped<int * const &>
_TEXT	ENDS
; Function compile flags: /Odtp /RTCsu /ZI
; File C:\Program Files\Microsoft Visual Studio\2022\Community\VC\Tools\MSVC\14.31.31103\include\xmemory
;	COMDAT ??$_Allocate_manually_vector_aligned@U_Default_allocate_traits@std@@@std@@YAPEAX_K@Z
_TEXT	SEGMENT
_Block_size$ = 8
_Ptr_container$ = 40
_Ptr$ = 72
_Bytes$ = 320
??$_Allocate_manually_vector_aligned@U_Default_allocate_traits@std@@@std@@YAPEAX_K@Z PROC ; std::_Allocate_manually_vector_aligned<std::_Default_allocate_traits>, COMDAT

; 127  : __declspec(allocator) void* _Allocate_manually_vector_aligned(const size_t _Bytes) {

$LN13:
	mov	QWORD PTR [rsp+8], rcx
	push	rbp
	push	rdi
	sub	rsp, 344				; 00000158H
	lea	rbp, QWORD PTR [rsp+48]
	lea	rcx, OFFSET FLAT:__BBC6BDD8_xmemory
	call	__CheckForDebuggerJustMyCode

; 128  :     // allocate _Bytes manually aligned to at least _Big_allocation_alignment
; 129  :     const size_t _Block_size = _Non_user_size + _Bytes;

	mov	rax, QWORD PTR _Bytes$[rbp]
	add	rax, 47					; 0000002fH
	mov	QWORD PTR _Block_size$[rbp], rax

; 130  :     if (_Block_size <= _Bytes) {

	mov	rax, QWORD PTR _Bytes$[rbp]
	cmp	QWORD PTR _Block_size$[rbp], rax
	ja	SHORT $LN8@Allocate_m

; 131  :         _Throw_bad_array_new_length(); // add overflow

	call	?_Throw_bad_array_new_length@std@@YAXXZ	; std::_Throw_bad_array_new_length
$LN8@Allocate_m:

; 132  :     }
; 133  : 
; 134  :     const uintptr_t _Ptr_container = reinterpret_cast<uintptr_t>(_Traits::_Allocate(_Block_size));

	mov	rcx, QWORD PTR _Block_size$[rbp]
	call	?_Allocate@_Default_allocate_traits@std@@SAPEAX_K@Z ; std::_Default_allocate_traits::_Allocate
	mov	QWORD PTR _Ptr_container$[rbp], rax
$LN4@Allocate_m:

; 135  :     _STL_VERIFY(_Ptr_container != 0, "invalid argument"); // validate even in release since we're doing p[-1]

	cmp	QWORD PTR _Ptr_container$[rbp], 0
	je	SHORT $LN9@Allocate_m
	jmp	SHORT $LN10@Allocate_m
$LN9@Allocate_m:
$LN7@Allocate_m:
	lea	rax, OFFSET FLAT:??_C@_0BB@FCMFBGOM@invalid?5argument@
	mov	QWORD PTR [rsp+40], rax
	lea	rax, OFFSET FLAT:??_C@_02DKCKIIND@?$CFs@
	mov	QWORD PTR [rsp+32], rax
	xor	r9d, r9d
	mov	r8d, 135				; 00000087H
	lea	rdx, OFFSET FLAT:??_C@_0GC@DLMJMPBP@C?3?2Program?5Files?2Microsoft?5Visu@
	mov	ecx, 2
	call	QWORD PTR __imp__CrtDbgReport
	cmp	eax, 1
	jne	SHORT $LN12@Allocate_m
	int	3
	xor	eax, eax
$LN12@Allocate_m:
	mov	QWORD PTR [rsp+32], 0
	mov	r9d, 135				; 00000087H
	lea	r8, OFFSET FLAT:??_C@_1ME@MKDMFCMA@?$AAC?$AA?3?$AA?2?$AAP?$AAr?$AAo?$AAg?$AAr?$AAa?$AAm?$AA?5?$AAF?$AAi?$AAl?$AAe@
	lea	rdx, OFFSET FLAT:??_C@_11LOCGONAA@@
	lea	rcx, OFFSET FLAT:??_C@_1CG@JNLFBNGN@?$AA?$CC?$AAi?$AAn?$AAv?$AAa?$AAl?$AAi?$AAd?$AA?5?$AAa?$AAr?$AAg?$AAu?$AAm?$AAe@
	call	QWORD PTR __imp__invalid_parameter
	xor	eax, eax
	test	eax, eax
	jne	SHORT $LN7@Allocate_m
$LN10@Allocate_m:
	xor	eax, eax
	test	eax, eax
	jne	SHORT $LN4@Allocate_m

; 136  :     void* const _Ptr = reinterpret_cast<void*>((_Ptr_container + _Non_user_size) & ~(_Big_allocation_alignment - 1));

	mov	rax, QWORD PTR _Ptr_container$[rbp]
	add	rax, 47					; 0000002fH
	and	rax, -32				; ffffffffffffffe0H
	mov	QWORD PTR _Ptr$[rbp], rax

; 137  :     static_cast<uintptr_t*>(_Ptr)[-1] = _Ptr_container;

	mov	eax, 8
	imul	rax, rax, -1
	mov	rcx, QWORD PTR _Ptr$[rbp]
	mov	rdx, QWORD PTR _Ptr_container$[rbp]
	mov	QWORD PTR [rcx+rax], rdx

; 138  : 
; 139  : #ifdef _DEBUG
; 140  :     static_cast<uintptr_t*>(_Ptr)[-2] = _Big_allocation_sentinel;

	mov	eax, 8
	imul	rax, rax, -2
	mov	rcx, QWORD PTR _Ptr$[rbp]
	mov	rdx, -361700864190383366		; fafafafafafafafaH
	mov	QWORD PTR [rcx+rax], rdx

; 141  : #endif // _DEBUG
; 142  :     return _Ptr;

	mov	rax, QWORD PTR _Ptr$[rbp]
$LN11@Allocate_m:

; 143  : }

	lea	rsp, QWORD PTR [rbp+296]
	pop	rdi
	pop	rbp
	ret	0
??$_Allocate_manually_vector_aligned@U_Default_allocate_traits@std@@@std@@YAPEAX_K@Z ENDP ; std::_Allocate_manually_vector_aligned<std::_Default_allocate_traits>
_TEXT	ENDS
; Function compile flags: /Odtp /RTCsu /ZI
; File C:\Program Files\Microsoft Visual Studio\2022\Community\VC\Tools\MSVC\14.31.31103\include\xutility
;	COMDAT ??$_Voidify_iter@PEAPEAD@std@@YAPEAXPEAPEAD@Z
_TEXT	SEGMENT
_It$ = 224
??$_Voidify_iter@PEAPEAD@std@@YAPEAXPEAPEAD@Z PROC	; std::_Voidify_iter<char * *>, COMDAT

; 123  : _NODISCARD constexpr void* _Voidify_iter(_Iter _It) noexcept {

$LN3:
	mov	QWORD PTR [rsp+8], rcx
	push	rbp
	push	rdi
	sub	rsp, 232				; 000000e8H
	lea	rbp, QWORD PTR [rsp+32]
	lea	rcx, OFFSET FLAT:__7F396DA6_xutility
	call	__CheckForDebuggerJustMyCode

; 124  :     if constexpr (is_pointer_v<_Iter>) {
; 125  :         return const_cast<void*>(static_cast<const volatile void*>(_It));

	mov	rax, QWORD PTR _It$[rbp]

; 126  :     } else {
; 127  :         return const_cast<void*>(static_cast<const volatile void*>(_STD addressof(*_It)));
; 128  :     }
; 129  : }

	lea	rsp, QWORD PTR [rbp+200]
	pop	rdi
	pop	rbp
	ret	0
??$_Voidify_iter@PEAPEAD@std@@YAPEAXPEAPEAD@Z ENDP	; std::_Voidify_iter<char * *>
_TEXT	ENDS
; Function compile flags: /Odtp /RTCsu /ZI
; File C:\Program Files\Microsoft Visual Studio\2022\Community\VC\Tools\MSVC\14.31.31103\include\xutility
;	COMDAT ??$construct_at@PEADAEBQEADX@std@@YAPEAPEADQEAPEADAEBQEAD@Z
_TEXT	SEGMENT
$T1 = 200
_Location$ = 256
<_Args_0>$ = 264
??$construct_at@PEADAEBQEADX@std@@YAPEAPEADQEAPEADAEBQEAD@Z PROC ; std::construct_at<char *,char * const &,void>, COMDAT

; 135  :     noexcept(::new (_Voidify_iter(_Location)) _Ty(_STD forward<_Types>(_Args)...))) /* strengthened */ {

$LN3:
	mov	QWORD PTR [rsp+16], rdx
	mov	QWORD PTR [rsp+8], rcx
	push	rbp
	push	rdi
	sub	rsp, 264				; 00000108H
	lea	rbp, QWORD PTR [rsp+32]
	lea	rcx, OFFSET FLAT:__7F396DA6_xutility
	call	__CheckForDebuggerJustMyCode

; 136  :     return ::new (_Voidify_iter(_Location)) _Ty(_STD forward<_Types>(_Args)...);

	mov	rcx, QWORD PTR _Location$[rbp]
	call	??$_Voidify_iter@PEAPEAD@std@@YAPEAXPEAPEAD@Z ; std::_Voidify_iter<char * *>
	mov	rdx, rax
	mov	ecx, 8
	call	??2@YAPEAX_KPEAX@Z			; operator new
	mov	QWORD PTR $T1[rbp], rax
	mov	rcx, QWORD PTR <_Args_0>$[rbp]
	call	??$forward@AEBQEAD@std@@YAAEBQEADAEBQEAD@Z ; std::forward<char * const &>
	mov	rcx, QWORD PTR $T1[rbp]
	mov	rax, QWORD PTR [rax]
	mov	QWORD PTR [rcx], rax
	mov	rax, QWORD PTR $T1[rbp]

; 137  : }

	lea	rsp, QWORD PTR [rbp+232]
	pop	rdi
	pop	rbp
	ret	0
??$construct_at@PEADAEBQEADX@std@@YAPEAPEADQEAPEADAEBQEAD@Z ENDP ; std::construct_at<char *,char * const &,void>
_TEXT	ENDS
; Function compile flags: /Odtp /RTCsu /ZI
; File C:\Program Files\Microsoft Visual Studio\2022\Community\VC\Tools\MSVC\14.31.31103\include\type_traits
;	COMDAT ??$forward@AEBQEAD@std@@YAAEBQEADAEBQEAD@Z
_TEXT	SEGMENT
_Arg$ = 224
??$forward@AEBQEAD@std@@YAAEBQEADAEBQEAD@Z PROC		; std::forward<char * const &>, COMDAT

; 1341 :     remove_reference_t<_Ty>& _Arg) noexcept { // forward an lvalue as either an lvalue or an rvalue

$LN3:
	mov	QWORD PTR [rsp+8], rcx
	push	rbp
	push	rdi
	sub	rsp, 232				; 000000e8H
	lea	rbp, QWORD PTR [rsp+32]
	lea	rcx, OFFSET FLAT:__B1B1C2C4_type_traits
	call	__CheckForDebuggerJustMyCode

; 1342 :     return static_cast<_Ty&&>(_Arg);

	mov	rax, QWORD PTR _Arg$[rbp]

; 1343 : }

	lea	rsp, QWORD PTR [rbp+200]
	pop	rdi
	pop	rbp
	ret	0
??$forward@AEBQEAD@std@@YAAEBQEADAEBQEAD@Z ENDP		; std::forward<char * const &>
_TEXT	ENDS
; Function compile flags: /Odtp /RTCsu /ZI
; File C:\Program Files\Microsoft Visual Studio\2022\Community\VC\Tools\MSVC\14.31.31103\include\xstddef
;	COMDAT ??$addressof@PEAD@std@@YAPEAPEADAEAPEAD@Z
_TEXT	SEGMENT
_Val$ = 224
??$addressof@PEAD@std@@YAPEAPEADAEAPEAD@Z PROC		; std::addressof<char *>, COMDAT

; 252  : _NODISCARD constexpr _Ty* addressof(_Ty& _Val) noexcept {

$LN3:
	mov	QWORD PTR [rsp+8], rcx
	push	rbp
	push	rdi
	sub	rsp, 232				; 000000e8H
	lea	rbp, QWORD PTR [rsp+32]
	lea	rcx, OFFSET FLAT:__264C4909_xstddef
	call	__CheckForDebuggerJustMyCode

; 253  :     return __builtin_addressof(_Val);

	mov	rax, QWORD PTR _Val$[rbp]

; 254  : }

	lea	rsp, QWORD PTR [rbp+200]
	pop	rdi
	pop	rbp
	ret	0
??$addressof@PEAD@std@@YAPEAPEADAEAPEAD@Z ENDP		; std::addressof<char *>
_TEXT	ENDS
; Function compile flags: /Odtp /RTCsu /ZI
; File C:\Program Files\Microsoft Visual Studio\2022\Community\VC\Tools\MSVC\14.31.31103\include\xmemory
;	COMDAT ??$_Deallocate_plain@V?$allocator@U_Container_proxy@std@@@std@@@std@@YAXAEAV?$allocator@U_Container_proxy@std@@@0@QEAU_Container_proxy@0@@Z
_TEXT	SEGMENT
_Al$ = 224
_Ptr$ = 232
??$_Deallocate_plain@V?$allocator@U_Container_proxy@std@@@std@@@std@@YAXAEAV?$allocator@U_Container_proxy@std@@@0@QEAU_Container_proxy@0@@Z PROC ; std::_Deallocate_plain<std::allocator<std::_Container_proxy> >, COMDAT

; 968  : _CONSTEXPR20 void _Deallocate_plain(_Alloc& _Al, typename _Alloc::value_type* const _Ptr) noexcept {

$LN3:
	mov	QWORD PTR [rsp+16], rdx
	mov	QWORD PTR [rsp+8], rcx
	push	rbp
	push	rdi
	sub	rsp, 232				; 000000e8H
	lea	rbp, QWORD PTR [rsp+32]
	lea	rcx, OFFSET FLAT:__BBC6BDD8_xmemory
	call	__CheckForDebuggerJustMyCode

; 969  :     // deallocate a plain pointer using an allocator
; 970  :     using _Alloc_traits = allocator_traits<_Alloc>;
; 971  :     if constexpr (is_same_v<_Alloc_ptr_t<_Alloc>, typename _Alloc::value_type*>) {
; 972  :         _Alloc_traits::deallocate(_Al, _Ptr, 1);

	mov	r8d, 1
	mov	rdx, QWORD PTR _Ptr$[rbp]
	mov	rcx, QWORD PTR _Al$[rbp]
	call	?deallocate@?$_Default_allocator_traits@V?$allocator@U_Container_proxy@std@@@std@@@std@@SAXAEAV?$allocator@U_Container_proxy@std@@@2@QEAU_Container_proxy@2@_K@Z ; std::_Default_allocator_traits<std::allocator<std::_Container_proxy> >::deallocate
	npad	1

; 973  :     } else {
; 974  :         using _Ptr_traits = pointer_traits<_Alloc_ptr_t<_Alloc>>;
; 975  :         _Alloc_traits::deallocate(_Al, _Ptr_traits::pointer_to(*_Ptr), 1);
; 976  :     }
; 977  : }

	lea	rsp, QWORD PTR [rbp+200]
	pop	rdi
	pop	rbp
	ret	0
??$_Deallocate_plain@V?$allocator@U_Container_proxy@std@@@std@@@std@@YAXAEAV?$allocator@U_Container_proxy@std@@@0@QEAU_Container_proxy@0@@Z ENDP ; std::_Deallocate_plain<std::allocator<std::_Container_proxy> >
_TEXT	ENDS
; Function compile flags: /Odtp /RTCsu /ZI
; File C:\Program Files\Microsoft Visual Studio\2022\Community\VC\Tools\MSVC\14.31.31103\include\xmemory
;	COMDAT ??$_Uninitialized_move@PEAHV?$allocator@H@std@@@std@@YAPEAHQEAH0PEAHAEAV?$allocator@H@0@@Z
_TEXT	SEGMENT
_UFirst$ = 8
_ULast$ = 40
_Backout$ = 72
$T4 = 312
__$ArrayPad$ = 328
_First$ = 368
_Last$ = 376
_Dest$ = 384
_Al$ = 392
??$_Uninitialized_move@PEAHV?$allocator@H@std@@@std@@YAPEAHQEAH0PEAHAEAV?$allocator@H@0@@Z PROC ; std::_Uninitialized_move<int *,std::allocator<int> >, COMDAT

; 1730 :     const _InIt _First, const _InIt _Last, _Alloc_ptr_t<_Alloc> _Dest, _Alloc& _Al) {

$LN8:
	mov	QWORD PTR [rsp+32], r9
	mov	QWORD PTR [rsp+24], r8
	mov	QWORD PTR [rsp+16], rdx
	mov	QWORD PTR [rsp+8], rcx
	push	rbp
	push	rdi
	sub	rsp, 376				; 00000178H
	lea	rbp, QWORD PTR [rsp+32]
	lea	rdi, QWORD PTR [rsp+32]
	mov	ecx, 38					; 00000026H
	mov	eax, -858993460				; ccccccccH
	rep stosd
	mov	rcx, QWORD PTR [rsp+408]
	mov	rax, QWORD PTR __security_cookie
	xor	rax, rbp
	mov	QWORD PTR __$ArrayPad$[rbp], rax
	lea	rcx, OFFSET FLAT:__BBC6BDD8_xmemory
	call	__CheckForDebuggerJustMyCode

; 1731 :     // move [_First, _Last) to raw _Dest, using _Al
; 1732 :     // note: only called internally from elsewhere in the STL
; 1733 :     using _Ptrval     = typename _Alloc::value_type*;
; 1734 :     auto _UFirst      = _Get_unwrapped(_First);

	lea	rcx, QWORD PTR _First$[rbp]
	call	??$_Get_unwrapped@AEBQEAH@std@@YA?A_TAEBQEAH@Z ; std::_Get_unwrapped<int * const &>
	mov	QWORD PTR _UFirst$[rbp], rax

; 1735 :     const auto _ULast = _Get_unwrapped(_Last);

	lea	rcx, QWORD PTR _Last$[rbp]
	call	??$_Get_unwrapped@AEBQEAH@std@@YA?A_TAEBQEAH@Z ; std::_Get_unwrapped<int * const &>
	mov	QWORD PTR _ULast$[rbp], rax

; 1736 :     if constexpr (conjunction_v<bool_constant<_Iter_move_cat<decltype(_UFirst), _Ptrval>::_Bitcopy_constructible>,
; 1737 :                       _Uses_default_construct<_Alloc, _Ptrval, decltype(_STD move(*_UFirst))>>) {
; 1738 : #if _HAS_CXX20
; 1739 :         if (!_STD is_constant_evaluated())

	call	?is_constant_evaluated@std@@YA_NXZ	; std::is_constant_evaluated
	movzx	eax, al
	test	eax, eax
	jne	SHORT $LN5@Uninitiali

; 1740 : #endif // _HAS_CXX20
; 1741 :         {
; 1742 :             _Copy_memmove(_UFirst, _ULast, _Unfancy(_Dest));

	mov	rcx, QWORD PTR _Dest$[rbp]
	call	??$_Unfancy@H@std@@YAPEAHPEAH@Z		; std::_Unfancy<int>
	mov	r8, rax
	mov	rdx, QWORD PTR _ULast$[rbp]
	mov	rcx, QWORD PTR _UFirst$[rbp]
	call	??$_Copy_memmove@PEAHPEAH@std@@YAPEAHPEAH00@Z ; std::_Copy_memmove<int *,int *>

; 1743 :             return _Dest + (_ULast - _UFirst);

	mov	rax, QWORD PTR _UFirst$[rbp]
	mov	rcx, QWORD PTR _ULast$[rbp]
	sub	rcx, rax
	mov	rax, rcx
	sar	rax, 2
	mov	rcx, QWORD PTR _Dest$[rbp]
	lea	rax, QWORD PTR [rcx+rax*4]
	jmp	SHORT $LN1@Uninitiali
$LN5@Uninitiali:

; 1744 :         }
; 1745 :     }
; 1746 : 
; 1747 :     _Uninitialized_backout_al<_Alloc> _Backout{_Dest, _Al};

	mov	edx, 24
	lea	rcx, QWORD PTR _Backout$[rbp]
	call	?__autoclassinit2@?$_Uninitialized_backout_al@V?$allocator@H@std@@@std@@QEAAX_K@Z
	mov	r8, QWORD PTR _Al$[rbp]
	mov	rdx, QWORD PTR _Dest$[rbp]
	lea	rcx, QWORD PTR _Backout$[rbp]
	call	??0?$_Uninitialized_backout_al@V?$allocator@H@std@@@std@@QEAA@PEAHAEAV?$allocator@H@1@@Z ; std::_Uninitialized_backout_al<std::allocator<int> >::_Uninitialized_backout_al<std::allocator<int> >
	npad	1

; 1748 :     for (; _UFirst != _ULast; ++_UFirst) {

	jmp	SHORT $LN4@Uninitiali
$LN2@Uninitiali:
	mov	rax, QWORD PTR _UFirst$[rbp]
	add	rax, 4
	mov	QWORD PTR _UFirst$[rbp], rax
$LN4@Uninitiali:
	mov	rax, QWORD PTR _ULast$[rbp]
	cmp	QWORD PTR _UFirst$[rbp], rax
	je	SHORT $LN3@Uninitiali

; 1749 :         _Backout._Emplace_back(_STD move(*_UFirst));

	mov	rcx, QWORD PTR _UFirst$[rbp]
	call	??$move@AEAH@std@@YA$$QEAHAEAH@Z	; std::move<int &>
	mov	rdx, rax
	lea	rcx, QWORD PTR _Backout$[rbp]
	call	??$_Emplace_back@H@?$_Uninitialized_backout_al@V?$allocator@H@std@@@std@@QEAAX$$QEAH@Z ; std::_Uninitialized_backout_al<std::allocator<int> >::_Emplace_back<int>

; 1750 :     }

	jmp	SHORT $LN2@Uninitiali
$LN3@Uninitiali:

; 1751 : 
; 1752 :     return _Backout._Release();

	lea	rcx, QWORD PTR _Backout$[rbp]
	call	?_Release@?$_Uninitialized_backout_al@V?$allocator@H@std@@@std@@QEAAPEAHXZ ; std::_Uninitialized_backout_al<std::allocator<int> >::_Release
	mov	QWORD PTR $T4[rbp], rax
	lea	rcx, QWORD PTR _Backout$[rbp]
	call	??1?$_Uninitialized_backout_al@V?$allocator@H@std@@@std@@QEAA@XZ ; std::_Uninitialized_backout_al<std::allocator<int> >::~_Uninitialized_backout_al<std::allocator<int> >
	mov	rax, QWORD PTR $T4[rbp]
$LN1@Uninitiali:

; 1753 : }

	mov	rdi, rax
	lea	rcx, QWORD PTR [rbp-32]
	lea	rdx, OFFSET FLAT:??$_Uninitialized_move@PEAHV?$allocator@H@std@@@std@@YAPEAHQEAH0PEAHAEAV?$allocator@H@0@@Z$rtcFrameData
	call	_RTC_CheckStackVars
	mov	rax, rdi
	mov	rcx, QWORD PTR __$ArrayPad$[rbp]
	xor	rcx, rbp
	call	__security_check_cookie
	lea	rsp, QWORD PTR [rbp+344]
	pop	rdi
	pop	rbp
	ret	0
??$_Uninitialized_move@PEAHV?$allocator@H@std@@@std@@YAPEAHQEAH0PEAHAEAV?$allocator@H@0@@Z ENDP ; std::_Uninitialized_move<int *,std::allocator<int> >
_TEXT	ENDS
; Function compile flags: /Odtp /RTCsu /ZI
;	COMDAT text$x
text$x	SEGMENT
_UFirst$ = 8
_ULast$ = 40
_Backout$ = 72
$T4 = 312
__$ArrayPad$ = 328
_First$ = 368
_Last$ = 376
_Dest$ = 384
_Al$ = 392
?dtor$0@?0???$_Uninitialized_move@PEAHV?$allocator@H@std@@@std@@YAPEAHQEAH0PEAHAEAV?$allocator@H@0@@Z@4HA PROC ; `std::_Uninitialized_move<int *,std::allocator<int> >'::`1'::dtor$0
	mov	QWORD PTR [rsp+8], rcx
	mov	QWORD PTR [rsp+16], rdx
	push	rbp
	push	rdi
	sub	rsp, 40					; 00000028H
	lea	rbp, QWORD PTR [rdx+32]
	lea	rcx, QWORD PTR _Backout$[rbp]
	call	??1?$_Uninitialized_backout_al@V?$allocator@H@std@@@std@@QEAA@XZ ; std::_Uninitialized_backout_al<std::allocator<int> >::~_Uninitialized_backout_al<std::allocator<int> >
	add	rsp, 40					; 00000028H
	pop	rdi
	pop	rbp
	ret	0
?dtor$0@?0???$_Uninitialized_move@PEAHV?$allocator@H@std@@@std@@YAPEAHQEAH0PEAHAEAV?$allocator@H@0@@Z@4HA ENDP ; `std::_Uninitialized_move<int *,std::allocator<int> >'::`1'::dtor$0
text$x	ENDS
; Function compile flags: /Odtp /RTCsu /ZI
; File C:\Program Files\Microsoft Visual Studio\2022\Community\VC\Tools\MSVC\14.31.31103\include\xutility
;	COMDAT ??$_Voidify_iter@PEAH@std@@YAPEAXPEAH@Z
_TEXT	SEGMENT
_It$ = 224
??$_Voidify_iter@PEAH@std@@YAPEAXPEAH@Z PROC		; std::_Voidify_iter<int *>, COMDAT

; 123  : _NODISCARD constexpr void* _Voidify_iter(_Iter _It) noexcept {

$LN3:
	mov	QWORD PTR [rsp+8], rcx
	push	rbp
	push	rdi
	sub	rsp, 232				; 000000e8H
	lea	rbp, QWORD PTR [rsp+32]
	lea	rcx, OFFSET FLAT:__7F396DA6_xutility
	call	__CheckForDebuggerJustMyCode

; 124  :     if constexpr (is_pointer_v<_Iter>) {
; 125  :         return const_cast<void*>(static_cast<const volatile void*>(_It));

	mov	rax, QWORD PTR _It$[rbp]

; 126  :     } else {
; 127  :         return const_cast<void*>(static_cast<const volatile void*>(_STD addressof(*_It)));
; 128  :     }
; 129  : }

	lea	rsp, QWORD PTR [rbp+200]
	pop	rdi
	pop	rbp
	ret	0
??$_Voidify_iter@PEAH@std@@YAPEAXPEAH@Z ENDP		; std::_Voidify_iter<int *>
_TEXT	ENDS
; Function compile flags: /Odtp /RTCsu /ZI
; File C:\Program Files\Microsoft Visual Studio\2022\Community\VC\Tools\MSVC\14.31.31103\include\xutility
;	COMDAT ??$construct_at@HHX@std@@YAPEAHQEAH$$QEAH@Z
_TEXT	SEGMENT
$T1 = 200
_Location$ = 256
<_Args_0>$ = 264
??$construct_at@HHX@std@@YAPEAHQEAH$$QEAH@Z PROC	; std::construct_at<int,int,void>, COMDAT

; 135  :     noexcept(::new (_Voidify_iter(_Location)) _Ty(_STD forward<_Types>(_Args)...))) /* strengthened */ {

$LN3:
	mov	QWORD PTR [rsp+16], rdx
	mov	QWORD PTR [rsp+8], rcx
	push	rbp
	push	rdi
	sub	rsp, 264				; 00000108H
	lea	rbp, QWORD PTR [rsp+32]
	lea	rcx, OFFSET FLAT:__7F396DA6_xutility
	call	__CheckForDebuggerJustMyCode

; 136  :     return ::new (_Voidify_iter(_Location)) _Ty(_STD forward<_Types>(_Args)...);

	mov	rcx, QWORD PTR _Location$[rbp]
	call	??$_Voidify_iter@PEAH@std@@YAPEAXPEAH@Z	; std::_Voidify_iter<int *>
	mov	rdx, rax
	mov	ecx, 4
	call	??2@YAPEAX_KPEAX@Z			; operator new
	mov	QWORD PTR $T1[rbp], rax
	mov	rcx, QWORD PTR <_Args_0>$[rbp]
	call	??$forward@H@std@@YA$$QEAHAEAH@Z	; std::forward<int>
	mov	rcx, QWORD PTR $T1[rbp]
	mov	eax, DWORD PTR [rax]
	mov	DWORD PTR [rcx], eax
	mov	rax, QWORD PTR $T1[rbp]

; 137  : }

	lea	rsp, QWORD PTR [rbp+232]
	pop	rdi
	pop	rbp
	ret	0
??$construct_at@HHX@std@@YAPEAHQEAH$$QEAH@Z ENDP	; std::construct_at<int,int,void>
_TEXT	ENDS
; Function compile flags: /Odtp /RTCsu /ZI
; File C:\Program Files\Microsoft Visual Studio\2022\Community\VC\Tools\MSVC\14.31.31103\include\xstring
;	COMDAT ??$_Insert_string@DU?$char_traits@D@std@@_K@std@@YAAEAV?$basic_ostream@DU?$char_traits@D@std@@@0@AEAV10@QEBD_K@Z
_TEXT	SEGMENT
_State$ = 4
_Pad$ = 40
_Ok$ = 72
$T4 = 308
$T5 = 340
$T6 = 372
$T7 = 404
$T8 = 440
tv136 = 452
tv312 = 456
tv310 = 456
tv307 = 456
tv302 = 456
tv287 = 456
tv273 = 456
tv252 = 464
tv216 = 464
tv191 = 464
tv313 = 472
tv311 = 472
tv308 = 472
tv250 = 473
tv189 = 473
tv314 = 476
tv309 = 476
__$ArrayPad$ = 480
_Ostr$ = 528
_Data$ = 536
_Size$ = 544
??$_Insert_string@DU?$char_traits@D@std@@_K@std@@YAAEAV?$basic_ostream@DU?$char_traits@D@std@@@0@AEAV10@QEBD_K@Z PROC ; std::_Insert_string<char,std::char_traits<char>,unsigned __int64>, COMDAT

; 479  :     basic_ostream<_Elem, _Traits>& _Ostr, const _Elem* const _Data, const _SizeT _Size) {

$LN26:
	mov	QWORD PTR [rsp+24], r8
	mov	QWORD PTR [rsp+16], rdx
	mov	QWORD PTR [rsp+8], rcx
	push	rbp
	push	rdi
	sub	rsp, 536				; 00000218H
	lea	rbp, QWORD PTR [rsp+32]
	lea	rdi, QWORD PTR [rsp+32]
	mov	ecx, 78					; 0000004eH
	mov	eax, -858993460				; ccccccccH
	rep stosd
	mov	rcx, QWORD PTR [rsp+568]
	mov	rax, QWORD PTR __security_cookie
	xor	rax, rbp
	mov	QWORD PTR __$ArrayPad$[rbp], rax
	lea	rcx, OFFSET FLAT:__CF153B44_xstring
	call	__CheckForDebuggerJustMyCode

; 480  :     // insert a character-type sequence into _Ostr as if through a basic_string copy
; 481  :     using _Ostr_t                    = basic_ostream<_Elem, _Traits>;
; 482  :     typename _Ostr_t::iostate _State = _Ostr_t::goodbit;

	mov	DWORD PTR _State$[rbp], 0

; 483  : 
; 484  :     _SizeT _Pad;
; 485  :     if (_Ostr.width() <= 0 || static_cast<_SizeT>(_Ostr.width()) <= _Size) {

	mov	rax, QWORD PTR _Ostr$[rbp]
	mov	rax, QWORD PTR [rax]
	movsxd	rax, DWORD PTR [rax+4]
	mov	rcx, QWORD PTR _Ostr$[rbp]
	add	rcx, rax
	mov	rax, rcx
	mov	rcx, rax
	call	QWORD PTR __imp_?width@ios_base@std@@QEBA_JXZ
	test	rax, rax
	jle	SHORT $LN10@Insert_str
	mov	rax, QWORD PTR _Ostr$[rbp]
	mov	rax, QWORD PTR [rax]
	movsxd	rax, DWORD PTR [rax+4]
	mov	rcx, QWORD PTR _Ostr$[rbp]
	add	rcx, rax
	mov	rax, rcx
	mov	rcx, rax
	call	QWORD PTR __imp_?width@ios_base@std@@QEBA_JXZ
	cmp	rax, QWORD PTR _Size$[rbp]
	ja	SHORT $LN8@Insert_str
$LN10@Insert_str:

; 486  :         _Pad = 0;

	mov	QWORD PTR _Pad$[rbp], 0

; 487  :     } else {

	jmp	SHORT $LN9@Insert_str
$LN8@Insert_str:

; 488  :         _Pad = static_cast<_SizeT>(_Ostr.width()) - _Size;

	mov	rax, QWORD PTR _Ostr$[rbp]
	mov	rax, QWORD PTR [rax]
	movsxd	rax, DWORD PTR [rax+4]
	mov	rcx, QWORD PTR _Ostr$[rbp]
	add	rcx, rax
	mov	rax, rcx
	mov	rcx, rax
	call	QWORD PTR __imp_?width@ios_base@std@@QEBA_JXZ
	sub	rax, QWORD PTR _Size$[rbp]
	mov	QWORD PTR _Pad$[rbp], rax
$LN9@Insert_str:

; 489  :     }
; 490  : 
; 491  :     const typename _Ostr_t::sentry _Ok(_Ostr);

	mov	rdx, QWORD PTR _Ostr$[rbp]
	lea	rcx, QWORD PTR _Ok$[rbp]
	call	??0sentry@?$basic_ostream@DU?$char_traits@D@std@@@std@@QEAA@AEAV12@@Z ; std::basic_ostream<char,std::char_traits<char> >::sentry::sentry
	npad	1

; 492  : 
; 493  :     if (!_Ok) {

	lea	rcx, QWORD PTR _Ok$[rbp]
	call	??Bsentry@?$basic_ostream@DU?$char_traits@D@std@@@std@@QEBA_NXZ ; std::basic_ostream<char,std::char_traits<char> >::sentry::operator bool
	movzx	eax, al
	test	eax, eax
	jne	SHORT $LN11@Insert_str

; 494  :         _State |= _Ostr_t::badbit;

	mov	eax, DWORD PTR _State$[rbp]
	or	eax, 4
	mov	DWORD PTR _State$[rbp], eax

; 495  :     } else { // state okay, insert characters

	jmp	$LN12@Insert_str
$LN11@Insert_str:

; 496  :         _TRY_IO_BEGIN
; 497  :         if ((_Ostr.flags() & _Ostr_t::adjustfield) != _Ostr_t::left) {

	mov	rax, QWORD PTR _Ostr$[rbp]
	mov	rax, QWORD PTR [rax]
	movsxd	rax, DWORD PTR [rax+4]
	mov	rcx, QWORD PTR _Ostr$[rbp]
	add	rcx, rax
	mov	rax, rcx
	mov	rcx, rax
	call	QWORD PTR __imp_?flags@ios_base@std@@QEBAHXZ
	mov	DWORD PTR tv136[rbp], eax
	mov	eax, DWORD PTR tv136[rbp]
	and	eax, 448				; 000001c0H
	cmp	eax, 64					; 00000040H
	je	$LN14@Insert_str

; 498  :             for (; 0 < _Pad; --_Pad) { // pad on left

	jmp	SHORT $LN4@Insert_str
$LN2@Insert_str:
	mov	rax, QWORD PTR _Pad$[rbp]
	dec	rax
	mov	QWORD PTR _Pad$[rbp], rax
$LN4@Insert_str:
	cmp	QWORD PTR _Pad$[rbp], 0
	jbe	$LN14@Insert_str

; 499  :                 if (_Traits::eq_int_type(_Traits::eof(), _Ostr.rdbuf()->sputc(_Ostr.fill()))) {

	mov	rax, QWORD PTR _Ostr$[rbp]
	mov	rax, QWORD PTR [rax]
	movsxd	rax, DWORD PTR [rax+4]
	mov	rcx, QWORD PTR _Ostr$[rbp]
	add	rcx, rax
	mov	rax, rcx
	mov	rcx, rax
	call	QWORD PTR __imp_?rdbuf@?$basic_ios@DU?$char_traits@D@std@@@std@@QEBAPEAV?$basic_streambuf@DU?$char_traits@D@std@@@2@XZ
	mov	QWORD PTR tv307[rbp], rax
	mov	rax, QWORD PTR tv307[rbp]
	mov	QWORD PTR tv191[rbp], rax
	mov	rax, QWORD PTR _Ostr$[rbp]
	mov	rax, QWORD PTR [rax]
	movsxd	rax, DWORD PTR [rax+4]
	mov	rcx, QWORD PTR _Ostr$[rbp]
	add	rcx, rax
	mov	rax, rcx
	mov	rcx, rax
	call	QWORD PTR __imp_?fill@?$basic_ios@DU?$char_traits@D@std@@@std@@QEBADXZ
	mov	BYTE PTR tv308[rbp], al
	movzx	eax, BYTE PTR tv308[rbp]
	mov	BYTE PTR tv189[rbp], al
	movzx	edx, BYTE PTR tv189[rbp]
	mov	rcx, QWORD PTR tv191[rbp]
	call	QWORD PTR __imp_?sputc@?$basic_streambuf@DU?$char_traits@D@std@@@std@@QEAAHD@Z
	mov	DWORD PTR tv309[rbp], eax
	mov	eax, DWORD PTR tv309[rbp]
	mov	DWORD PTR $T4[rbp], eax
	call	?eof@?$_Narrow_char_traits@DH@std@@SAHXZ ; std::_Narrow_char_traits<char,int>::eof
	mov	DWORD PTR $T5[rbp], eax
	lea	rdx, QWORD PTR $T4[rbp]
	lea	rcx, QWORD PTR $T5[rbp]
	call	?eq_int_type@?$_Narrow_char_traits@DH@std@@SA_NAEBH0@Z ; std::_Narrow_char_traits<char,int>::eq_int_type
	movzx	eax, al
	test	eax, eax
	je	SHORT $LN15@Insert_str

; 500  :                     _State |= _Ostr_t::badbit; // insertion failed, quit

	mov	eax, DWORD PTR _State$[rbp]
	or	eax, 4
	mov	DWORD PTR _State$[rbp], eax

; 501  :                     break;

	jmp	SHORT $LN14@Insert_str
$LN15@Insert_str:

; 502  :                 }
; 503  :             }

	jmp	$LN2@Insert_str
$LN14@Insert_str:

; 504  :         }
; 505  : 
; 506  :         if (_State == _Ostr_t::goodbit
; 507  :             && _Ostr.rdbuf()->sputn(_Data, static_cast<streamsize>(_Size)) != static_cast<streamsize>(_Size)) {

	cmp	DWORD PTR _State$[rbp], 0
	jne	SHORT $LN16@Insert_str
	mov	rax, QWORD PTR _Ostr$[rbp]
	mov	rax, QWORD PTR [rax]
	movsxd	rax, DWORD PTR [rax+4]
	mov	rcx, QWORD PTR _Ostr$[rbp]
	add	rcx, rax
	mov	rax, rcx
	mov	rcx, rax
	call	QWORD PTR __imp_?rdbuf@?$basic_ios@DU?$char_traits@D@std@@@std@@QEBAPEAV?$basic_streambuf@DU?$char_traits@D@std@@@2@XZ
	mov	QWORD PTR tv310[rbp], rax
	mov	rax, QWORD PTR tv310[rbp]
	mov	QWORD PTR tv216[rbp], rax
	mov	r8, QWORD PTR _Size$[rbp]
	mov	rdx, QWORD PTR _Data$[rbp]
	mov	rcx, QWORD PTR tv216[rbp]
	call	QWORD PTR __imp_?sputn@?$basic_streambuf@DU?$char_traits@D@std@@@std@@QEAA_JPEBD_J@Z
	mov	QWORD PTR tv311[rbp], rax
	mov	rax, QWORD PTR _Size$[rbp]
	cmp	QWORD PTR tv311[rbp], rax
	je	SHORT $LN16@Insert_str

; 508  :             _State |= _Ostr_t::badbit;

	mov	eax, DWORD PTR _State$[rbp]
	or	eax, 4
	mov	DWORD PTR _State$[rbp], eax

; 509  :         } else {

	jmp	$LN17@Insert_str
$LN16@Insert_str:

; 510  :             for (; 0 < _Pad; --_Pad) { // pad on right

	jmp	SHORT $LN7@Insert_str
$LN5@Insert_str:
	mov	rax, QWORD PTR _Pad$[rbp]
	dec	rax
	mov	QWORD PTR _Pad$[rbp], rax
$LN7@Insert_str:
	cmp	QWORD PTR _Pad$[rbp], 0
	jbe	$LN17@Insert_str

; 511  :                 if (_Traits::eq_int_type(_Traits::eof(), _Ostr.rdbuf()->sputc(_Ostr.fill()))) {

	mov	rax, QWORD PTR _Ostr$[rbp]
	mov	rax, QWORD PTR [rax]
	movsxd	rax, DWORD PTR [rax+4]
	mov	rcx, QWORD PTR _Ostr$[rbp]
	add	rcx, rax
	mov	rax, rcx
	mov	rcx, rax
	call	QWORD PTR __imp_?rdbuf@?$basic_ios@DU?$char_traits@D@std@@@std@@QEBAPEAV?$basic_streambuf@DU?$char_traits@D@std@@@2@XZ
	mov	QWORD PTR tv312[rbp], rax
	mov	rax, QWORD PTR tv312[rbp]
	mov	QWORD PTR tv252[rbp], rax
	mov	rax, QWORD PTR _Ostr$[rbp]
	mov	rax, QWORD PTR [rax]
	movsxd	rax, DWORD PTR [rax+4]
	mov	rcx, QWORD PTR _Ostr$[rbp]
	add	rcx, rax
	mov	rax, rcx
	mov	rcx, rax
	call	QWORD PTR __imp_?fill@?$basic_ios@DU?$char_traits@D@std@@@std@@QEBADXZ
	mov	BYTE PTR tv313[rbp], al
	movzx	eax, BYTE PTR tv313[rbp]
	mov	BYTE PTR tv250[rbp], al
	movzx	edx, BYTE PTR tv250[rbp]
	mov	rcx, QWORD PTR tv252[rbp]
	call	QWORD PTR __imp_?sputc@?$basic_streambuf@DU?$char_traits@D@std@@@std@@QEAAHD@Z
	mov	DWORD PTR tv314[rbp], eax
	mov	eax, DWORD PTR tv314[rbp]
	mov	DWORD PTR $T6[rbp], eax
	call	?eof@?$_Narrow_char_traits@DH@std@@SAHXZ ; std::_Narrow_char_traits<char,int>::eof
	mov	DWORD PTR $T7[rbp], eax
	lea	rdx, QWORD PTR $T6[rbp]
	lea	rcx, QWORD PTR $T7[rbp]
	call	?eq_int_type@?$_Narrow_char_traits@DH@std@@SA_NAEBH0@Z ; std::_Narrow_char_traits<char,int>::eq_int_type
	movzx	eax, al
	test	eax, eax
	je	SHORT $LN18@Insert_str

; 512  :                     _State |= _Ostr_t::badbit; // insertion failed, quit

	mov	eax, DWORD PTR _State$[rbp]
	or	eax, 4
	mov	DWORD PTR _State$[rbp], eax

; 513  :                     break;

	jmp	SHORT $LN17@Insert_str
$LN18@Insert_str:

; 514  :                 }
; 515  :             }

	jmp	$LN5@Insert_str
$LN17@Insert_str:

; 516  :         }
; 517  : 
; 518  :         _Ostr.width(0);

	mov	rax, QWORD PTR _Ostr$[rbp]
	mov	rax, QWORD PTR [rax]
	movsxd	rax, DWORD PTR [rax+4]
	mov	rcx, QWORD PTR _Ostr$[rbp]
	add	rcx, rax
	mov	rax, rcx
	mov	QWORD PTR tv273[rbp], rax
	xor	edx, edx
	mov	rcx, QWORD PTR tv273[rbp]
	call	QWORD PTR __imp_?width@ios_base@std@@QEAA_J_J@Z
	npad	1
	jmp	SHORT $LN12@Insert_str
$LN24@Insert_str:
$LN12@Insert_str:

; 519  :         _CATCH_IO_(_Ostr_t, _Ostr)
; 520  :     }
; 521  : 
; 522  :     _Ostr.setstate(_State);

	mov	rax, QWORD PTR _Ostr$[rbp]
	mov	rax, QWORD PTR [rax]
	movsxd	rax, DWORD PTR [rax+4]
	mov	rcx, QWORD PTR _Ostr$[rbp]
	add	rcx, rax
	mov	rax, rcx
	mov	QWORD PTR tv302[rbp], rax
	xor	r8d, r8d
	mov	edx, DWORD PTR _State$[rbp]
	mov	rcx, QWORD PTR tv302[rbp]
	call	QWORD PTR __imp_?setstate@?$basic_ios@DU?$char_traits@D@std@@@std@@QEAAXH_N@Z

; 523  :     return _Ostr;

	mov	rax, QWORD PTR _Ostr$[rbp]
	mov	QWORD PTR $T8[rbp], rax
	lea	rcx, QWORD PTR _Ok$[rbp]
	call	??1sentry@?$basic_ostream@DU?$char_traits@D@std@@@std@@QEAA@XZ ; std::basic_ostream<char,std::char_traits<char> >::sentry::~sentry
	mov	rax, QWORD PTR $T8[rbp]

; 524  : }

	mov	rdi, rax
	lea	rcx, QWORD PTR [rbp-32]
	lea	rdx, OFFSET FLAT:??$_Insert_string@DU?$char_traits@D@std@@_K@std@@YAAEAV?$basic_ostream@DU?$char_traits@D@std@@@0@AEAV10@QEBD_K@Z$rtcFrameData
	call	_RTC_CheckStackVars
	mov	rax, rdi
	mov	rcx, QWORD PTR __$ArrayPad$[rbp]
	xor	rcx, rbp
	call	__security_check_cookie
	lea	rsp, QWORD PTR [rbp+504]
	pop	rdi
	pop	rbp
	ret	0
??$_Insert_string@DU?$char_traits@D@std@@_K@std@@YAAEAV?$basic_ostream@DU?$char_traits@D@std@@@0@AEAV10@QEBD_K@Z ENDP ; std::_Insert_string<char,std::char_traits<char>,unsigned __int64>
_TEXT	ENDS
; Function compile flags: /Odtp /RTCsu /ZI
;	COMDAT text$x
text$x	SEGMENT
_State$ = 4
_Pad$ = 40
_Ok$ = 72
$T4 = 308
$T5 = 340
$T6 = 372
$T7 = 404
$T8 = 440
tv136 = 452
tv312 = 456
tv310 = 456
tv307 = 456
tv302 = 456
tv287 = 456
tv273 = 456
tv252 = 464
tv216 = 464
tv191 = 464
tv313 = 472
tv311 = 472
tv308 = 472
tv250 = 473
tv189 = 473
tv314 = 476
tv309 = 476
__$ArrayPad$ = 480
_Ostr$ = 528
_Data$ = 536
_Size$ = 544
?dtor$0@?0???$_Insert_string@DU?$char_traits@D@std@@_K@std@@YAAEAV?$basic_ostream@DU?$char_traits@D@std@@@0@AEAV10@QEBD_K@Z@4HA PROC ; `std::_Insert_string<char,std::char_traits<char>,unsigned __int64>'::`1'::dtor$0
	mov	QWORD PTR [rsp+8], rcx
	mov	QWORD PTR [rsp+16], rdx
	push	rbp
	push	rdi
	sub	rsp, 40					; 00000028H
	lea	rbp, QWORD PTR [rdx+32]
	lea	rcx, QWORD PTR _Ok$[rbp]
	call	??1sentry@?$basic_ostream@DU?$char_traits@D@std@@@std@@QEAA@XZ ; std::basic_ostream<char,std::char_traits<char> >::sentry::~sentry
	add	rsp, 40					; 00000028H
	pop	rdi
	pop	rbp
	ret	0
?dtor$0@?0???$_Insert_string@DU?$char_traits@D@std@@_K@std@@YAAEAV?$basic_ostream@DU?$char_traits@D@std@@@0@AEAV10@QEBD_K@Z@4HA ENDP ; `std::_Insert_string<char,std::char_traits<char>,unsigned __int64>'::`1'::dtor$0
text$x	ENDS
; Function compile flags: /Odtp /RTCsu /ZI
;	COMDAT text$x
text$x	SEGMENT
_State$ = 4
_Pad$ = 40
_Ok$ = 72
$T4 = 308
$T5 = 340
$T6 = 372
$T7 = 404
$T8 = 440
tv136 = 452
tv312 = 456
tv310 = 456
tv307 = 456
tv302 = 456
tv287 = 456
tv273 = 456
tv252 = 464
tv216 = 464
tv191 = 464
tv313 = 472
tv311 = 472
tv308 = 472
tv250 = 473
tv189 = 473
tv314 = 476
tv309 = 476
__$ArrayPad$ = 480
_Ostr$ = 528
_Data$ = 536
_Size$ = 544
?catch$1@?0???$_Insert_string@DU?$char_traits@D@std@@_K@std@@YAAEAV?$basic_ostream@DU?$char_traits@D@std@@@0@AEAV10@QEBD_K@Z@4HA PROC ; `std::_Insert_string<char,std::char_traits<char>,unsigned __int64>'::`1'::catch$1

; 519  :         _CATCH_IO_(_Ostr_t, _Ostr)

	mov	QWORD PTR [rsp+8], rcx
	mov	QWORD PTR [rsp+16], rdx
	push	rbp
	push	rdi
	sub	rsp, 40					; 00000028H
	lea	rbp, QWORD PTR [rdx+32]
__catch$??$_Insert_string@DU?$char_traits@D@std@@_K@std@@YAAEAV?$basic_ostream@DU?$char_traits@D@std@@@0@AEAV10@QEBD_K@Z$0:
	mov	rax, QWORD PTR _Ostr$[rbp]
	mov	rax, QWORD PTR [rax]
	movsxd	rax, DWORD PTR [rax+4]
	mov	rcx, QWORD PTR _Ostr$[rbp]
	add	rcx, rax
	mov	rax, rcx
	mov	QWORD PTR tv287[rbp], rax
	mov	r8b, 1
	mov	edx, 4
	mov	rcx, QWORD PTR tv287[rbp]
	call	QWORD PTR __imp_?setstate@?$basic_ios@DU?$char_traits@D@std@@@std@@QEAAXH_N@Z
	npad	1
	lea	rax, $LN24@catch$1
	add	rsp, 40					; 00000028H
	pop	rdi
	pop	rbp
	ret	0
	int	3
?catch$1@?0???$_Insert_string@DU?$char_traits@D@std@@_K@std@@YAAEAV?$basic_ostream@DU?$char_traits@D@std@@@0@AEAV10@QEBD_K@Z@4HA ENDP ; `std::_Insert_string<char,std::char_traits<char>,unsigned __int64>'::`1'::catch$1
text$x	ENDS
; Function compile flags: /Odtp /RTCsu /ZI
; File C:\Program Files\Microsoft Visual Studio\2022\Community\VC\Tools\MSVC\14.31.31103\include\xutility
;	COMDAT ??$construct_at@U_Container_proxy@std@@PEAU_Container_base12@2@X@std@@YAPEAU_Container_proxy@0@QEAU10@$$QEAPEAU_Container_base12@0@@Z
_TEXT	SEGMENT
$T1 = 200
tv78 = 216
_Location$ = 256
<_Args_0>$ = 264
??$construct_at@U_Container_proxy@std@@PEAU_Container_base12@2@X@std@@YAPEAU_Container_proxy@0@QEAU10@$$QEAPEAU_Container_base12@0@@Z PROC ; std::construct_at<std::_Container_proxy,std::_Container_base12 *,void>, COMDAT

; 135  :     noexcept(::new (_Voidify_iter(_Location)) _Ty(_STD forward<_Types>(_Args)...))) /* strengthened */ {

$LN3:
	mov	QWORD PTR [rsp+16], rdx
	mov	QWORD PTR [rsp+8], rcx
	push	rbp
	push	rdi
	sub	rsp, 264				; 00000108H
	lea	rbp, QWORD PTR [rsp+32]
	lea	rcx, OFFSET FLAT:__7F396DA6_xutility
	call	__CheckForDebuggerJustMyCode

; 136  :     return ::new (_Voidify_iter(_Location)) _Ty(_STD forward<_Types>(_Args)...);

	mov	rcx, QWORD PTR _Location$[rbp]
	call	??$_Voidify_iter@PEAU_Container_proxy@std@@@std@@YAPEAXPEAU_Container_proxy@0@@Z ; std::_Voidify_iter<std::_Container_proxy *>
	mov	rdx, rax
	mov	ecx, 16
	call	??2@YAPEAX_KPEAX@Z			; operator new
	mov	QWORD PTR $T1[rbp], rax
	mov	rcx, QWORD PTR <_Args_0>$[rbp]
	call	??$forward@PEAU_Container_base12@std@@@std@@YA$$QEAPEAU_Container_base12@0@AEAPEAU10@@Z ; std::forward<std::_Container_base12 *>
	mov	rax, QWORD PTR [rax]
	mov	QWORD PTR tv78[rbp], rax
	mov	rdx, QWORD PTR tv78[rbp]
	mov	rcx, QWORD PTR $T1[rbp]
	call	??0_Container_proxy@std@@QEAA@PEAU_Container_base12@1@@Z ; std::_Container_proxy::_Container_proxy

; 137  : }

	lea	rsp, QWORD PTR [rbp+232]
	pop	rdi
	pop	rbp
	ret	0
??$construct_at@U_Container_proxy@std@@PEAU_Container_base12@2@X@std@@YAPEAU_Container_proxy@0@QEAU10@$$QEAPEAU_Container_base12@0@@Z ENDP ; std::construct_at<std::_Container_proxy,std::_Container_base12 *,void>
_TEXT	ENDS
; Function compile flags: /Odtp /RTCsu /ZI
; File C:\Program Files\Microsoft Visual Studio\2022\Community\VC\Tools\MSVC\14.31.31103\include\type_traits
;	COMDAT ??$forward@PEAU_Container_base12@std@@@std@@YA$$QEAPEAU_Container_base12@0@AEAPEAU10@@Z
_TEXT	SEGMENT
_Arg$ = 224
??$forward@PEAU_Container_base12@std@@@std@@YA$$QEAPEAU_Container_base12@0@AEAPEAU10@@Z PROC ; std::forward<std::_Container_base12 *>, COMDAT

; 1341 :     remove_reference_t<_Ty>& _Arg) noexcept { // forward an lvalue as either an lvalue or an rvalue

$LN3:
	mov	QWORD PTR [rsp+8], rcx
	push	rbp
	push	rdi
	sub	rsp, 232				; 000000e8H
	lea	rbp, QWORD PTR [rsp+32]
	lea	rcx, OFFSET FLAT:__B1B1C2C4_type_traits
	call	__CheckForDebuggerJustMyCode

; 1342 :     return static_cast<_Ty&&>(_Arg);

	mov	rax, QWORD PTR _Arg$[rbp]

; 1343 : }

	lea	rsp, QWORD PTR [rbp+200]
	pop	rdi
	pop	rbp
	ret	0
??$forward@PEAU_Container_base12@std@@@std@@YA$$QEAPEAU_Container_base12@0@AEAPEAU10@@Z ENDP ; std::forward<std::_Container_base12 *>
_TEXT	ENDS
; Function compile flags: /Odtp /RTCsu /ZI
; File C:\Program Files\Microsoft Visual Studio\2022\Community\VC\Tools\MSVC\14.31.31103\include\xutility
;	COMDAT ??$_Voidify_iter@PEAU_Container_proxy@std@@@std@@YAPEAXPEAU_Container_proxy@0@@Z
_TEXT	SEGMENT
_It$ = 224
??$_Voidify_iter@PEAU_Container_proxy@std@@@std@@YAPEAXPEAU_Container_proxy@0@@Z PROC ; std::_Voidify_iter<std::_Container_proxy *>, COMDAT

; 123  : _NODISCARD constexpr void* _Voidify_iter(_Iter _It) noexcept {

$LN3:
	mov	QWORD PTR [rsp+8], rcx
	push	rbp
	push	rdi
	sub	rsp, 232				; 000000e8H
	lea	rbp, QWORD PTR [rsp+32]
	lea	rcx, OFFSET FLAT:__7F396DA6_xutility
	call	__CheckForDebuggerJustMyCode

; 124  :     if constexpr (is_pointer_v<_Iter>) {
; 125  :         return const_cast<void*>(static_cast<const volatile void*>(_It));

	mov	rax, QWORD PTR _It$[rbp]

; 126  :     } else {
; 127  :         return const_cast<void*>(static_cast<const volatile void*>(_STD addressof(*_It)));
; 128  :     }
; 129  : }

	lea	rsp, QWORD PTR [rbp+200]
	pop	rdi
	pop	rbp
	ret	0
??$_Voidify_iter@PEAU_Container_proxy@std@@@std@@YAPEAXPEAU_Container_proxy@0@@Z ENDP ; std::_Voidify_iter<std::_Container_proxy *>
_TEXT	ENDS
; Function compile flags: /Odtp /RTCsu /ZI
; File C:\Program Files\Microsoft Visual Studio\2022\Community\VC\Tools\MSVC\14.31.31103\include\xstddef
;	COMDAT ??$addressof@U_Container_proxy@std@@@std@@YAPEAU_Container_proxy@0@AEAU10@@Z
_TEXT	SEGMENT
_Val$ = 224
??$addressof@U_Container_proxy@std@@@std@@YAPEAU_Container_proxy@0@AEAU10@@Z PROC ; std::addressof<std::_Container_proxy>, COMDAT

; 252  : _NODISCARD constexpr _Ty* addressof(_Ty& _Val) noexcept {

$LN3:
	mov	QWORD PTR [rsp+8], rcx
	push	rbp
	push	rdi
	sub	rsp, 232				; 000000e8H
	lea	rbp, QWORD PTR [rsp+32]
	lea	rcx, OFFSET FLAT:__264C4909_xstddef
	call	__CheckForDebuggerJustMyCode

; 253  :     return __builtin_addressof(_Val);

	mov	rax, QWORD PTR _Val$[rbp]

; 254  : }

	lea	rsp, QWORD PTR [rbp+200]
	pop	rdi
	pop	rbp
	ret	0
??$addressof@U_Container_proxy@std@@@std@@YAPEAU_Container_proxy@0@AEAU10@@Z ENDP ; std::addressof<std::_Container_proxy>
_TEXT	ENDS
; Function compile flags: /Odtp /RTCsu /ZI
; File C:\Program Files\Microsoft Visual Studio\2022\Community\VC\Tools\MSVC\14.31.31103\include\type_traits
;	COMDAT ??$forward@AEBD@std@@YAAEBDAEBD@Z
_TEXT	SEGMENT
_Arg$ = 224
??$forward@AEBD@std@@YAAEBDAEBD@Z PROC			; std::forward<char const &>, COMDAT

; 1341 :     remove_reference_t<_Ty>& _Arg) noexcept { // forward an lvalue as either an lvalue or an rvalue

$LN3:
	mov	QWORD PTR [rsp+8], rcx
	push	rbp
	push	rdi
	sub	rsp, 232				; 000000e8H
	lea	rbp, QWORD PTR [rsp+32]
	lea	rcx, OFFSET FLAT:__B1B1C2C4_type_traits
	call	__CheckForDebuggerJustMyCode

; 1342 :     return static_cast<_Ty&&>(_Arg);

	mov	rax, QWORD PTR _Arg$[rbp]

; 1343 : }

	lea	rsp, QWORD PTR [rbp+200]
	pop	rdi
	pop	rbp
	ret	0
??$forward@AEBD@std@@YAAEBDAEBD@Z ENDP			; std::forward<char const &>
_TEXT	ENDS
; Function compile flags: /Odtp /RTCsu /ZI
; File C:\Program Files\Microsoft Visual Studio\2022\Community\VC\Tools\MSVC\14.31.31103\include\xutility
;	COMDAT ??$_Voidify_iter@PEAD@std@@YAPEAXPEAD@Z
_TEXT	SEGMENT
_It$ = 224
??$_Voidify_iter@PEAD@std@@YAPEAXPEAD@Z PROC		; std::_Voidify_iter<char *>, COMDAT

; 123  : _NODISCARD constexpr void* _Voidify_iter(_Iter _It) noexcept {

$LN3:
	mov	QWORD PTR [rsp+8], rcx
	push	rbp
	push	rdi
	sub	rsp, 232				; 000000e8H
	lea	rbp, QWORD PTR [rsp+32]
	lea	rcx, OFFSET FLAT:__7F396DA6_xutility
	call	__CheckForDebuggerJustMyCode

; 124  :     if constexpr (is_pointer_v<_Iter>) {
; 125  :         return const_cast<void*>(static_cast<const volatile void*>(_It));

	mov	rax, QWORD PTR _It$[rbp]

; 126  :     } else {
; 127  :         return const_cast<void*>(static_cast<const volatile void*>(_STD addressof(*_It)));
; 128  :     }
; 129  : }

	lea	rsp, QWORD PTR [rbp+200]
	pop	rdi
	pop	rbp
	ret	0
??$_Voidify_iter@PEAD@std@@YAPEAXPEAD@Z ENDP		; std::_Voidify_iter<char *>
_TEXT	ENDS
; Function compile flags: /Odtp /RTCsu /ZI
; File C:\Program Files\Microsoft Visual Studio\2022\Community\VC\Tools\MSVC\14.31.31103\include\xutility
;	COMDAT ??$construct_at@DAEBDX@std@@YAPEADQEADAEBD@Z
_TEXT	SEGMENT
$T1 = 200
_Location$ = 256
<_Args_0>$ = 264
??$construct_at@DAEBDX@std@@YAPEADQEADAEBD@Z PROC	; std::construct_at<char,char const &,void>, COMDAT

; 135  :     noexcept(::new (_Voidify_iter(_Location)) _Ty(_STD forward<_Types>(_Args)...))) /* strengthened */ {

$LN3:
	mov	QWORD PTR [rsp+16], rdx
	mov	QWORD PTR [rsp+8], rcx
	push	rbp
	push	rdi
	sub	rsp, 264				; 00000108H
	lea	rbp, QWORD PTR [rsp+32]
	lea	rcx, OFFSET FLAT:__7F396DA6_xutility
	call	__CheckForDebuggerJustMyCode

; 136  :     return ::new (_Voidify_iter(_Location)) _Ty(_STD forward<_Types>(_Args)...);

	mov	rcx, QWORD PTR _Location$[rbp]
	call	??$_Voidify_iter@PEAD@std@@YAPEAXPEAD@Z	; std::_Voidify_iter<char *>
	mov	rdx, rax
	mov	ecx, 1
	call	??2@YAPEAX_KPEAX@Z			; operator new
	mov	QWORD PTR $T1[rbp], rax
	mov	rcx, QWORD PTR <_Args_0>$[rbp]
	call	??$forward@AEBD@std@@YAAEBDAEBD@Z	; std::forward<char const &>
	mov	rcx, QWORD PTR $T1[rbp]
	movzx	eax, BYTE PTR [rax]
	mov	BYTE PTR [rcx], al
	mov	rax, QWORD PTR $T1[rbp]

; 137  : }

	lea	rsp, QWORD PTR [rbp+232]
	pop	rdi
	pop	rbp
	ret	0
??$construct_at@DAEBDX@std@@YAPEADQEADAEBD@Z ENDP	; std::construct_at<char,char const &,void>
_TEXT	ENDS
; Function compile flags: /Odtp /RTCsu /ZI
; File C:\Program Files\Microsoft Visual Studio\2022\Community\VC\Tools\MSVC\14.31.31103\include\xmemory
;	COMDAT ??$_Get_size_of_n@$00@std@@YA_K_K@Z
_TEXT	SEGMENT
_Overflow_is_possible$ = 4
_Count$ = 256
??$_Get_size_of_n@$00@std@@YA_K_K@Z PROC		; std::_Get_size_of_n<1>, COMDAT

; 55   : _NODISCARD constexpr size_t _Get_size_of_n(const size_t _Count) {

$LN3:
	mov	QWORD PTR [rsp+8], rcx
	push	rbp
	push	rdi
	sub	rsp, 264				; 00000108H
	lea	rbp, QWORD PTR [rsp+32]
	lea	rcx, OFFSET FLAT:__BBC6BDD8_xmemory
	call	__CheckForDebuggerJustMyCode

; 56   :     constexpr bool _Overflow_is_possible = _Ty_size > 1;

	mov	BYTE PTR _Overflow_is_possible$[rbp], 0

; 57   : 
; 58   :     if constexpr (_Overflow_is_possible) {
; 59   :         constexpr size_t _Max_possible = static_cast<size_t>(-1) / _Ty_size;
; 60   :         if (_Count > _Max_possible) {
; 61   :             _Throw_bad_array_new_length(); // multiply overflow
; 62   :         }
; 63   :     }
; 64   : 
; 65   :     return _Count * _Ty_size;

	mov	rax, QWORD PTR _Count$[rbp]

; 66   : }

	lea	rsp, QWORD PTR [rbp+232]
	pop	rdi
	pop	rbp
	ret	0
??$_Get_size_of_n@$00@std@@YA_K_K@Z ENDP		; std::_Get_size_of_n<1>
_TEXT	ENDS
; Function compile flags: /Odtp /RTCsu /ZI
; File C:\Program Files\Microsoft Visual Studio\2022\Community\VC\Tools\MSVC\14.31.31103\include\xmemory
;	COMDAT ??$_Get_size_of_n@$03@std@@YA_K_K@Z
_TEXT	SEGMENT
_Overflow_is_possible$ = 4
_Max_possible$1 = 40
_Count$ = 288
??$_Get_size_of_n@$03@std@@YA_K_K@Z PROC		; std::_Get_size_of_n<4>, COMDAT

; 55   : _NODISCARD constexpr size_t _Get_size_of_n(const size_t _Count) {

$LN4:
	mov	QWORD PTR [rsp+8], rcx
	push	rbp
	push	rdi
	sub	rsp, 296				; 00000128H
	lea	rbp, QWORD PTR [rsp+32]
	lea	rcx, OFFSET FLAT:__BBC6BDD8_xmemory
	call	__CheckForDebuggerJustMyCode

; 56   :     constexpr bool _Overflow_is_possible = _Ty_size > 1;

	mov	BYTE PTR _Overflow_is_possible$[rbp], 1

; 57   : 
; 58   :     if constexpr (_Overflow_is_possible) {
; 59   :         constexpr size_t _Max_possible = static_cast<size_t>(-1) / _Ty_size;

	mov	rax, 4611686018427387903		; 3fffffffffffffffH
	mov	QWORD PTR _Max_possible$1[rbp], rax

; 60   :         if (_Count > _Max_possible) {

	mov	rax, 4611686018427387903		; 3fffffffffffffffH
	cmp	QWORD PTR _Count$[rbp], rax
	jbe	SHORT $LN2@Get_size_o

; 61   :             _Throw_bad_array_new_length(); // multiply overflow

	call	?_Throw_bad_array_new_length@std@@YAXXZ	; std::_Throw_bad_array_new_length
$LN2@Get_size_o:

; 62   :         }
; 63   :     }
; 64   : 
; 65   :     return _Count * _Ty_size;

	mov	rax, QWORD PTR _Count$[rbp]
	shl	rax, 2
$LN3@Get_size_o:

; 66   : }

	lea	rsp, QWORD PTR [rbp+264]
	pop	rdi
	pop	rbp
	ret	0
??$_Get_size_of_n@$03@std@@YA_K_K@Z ENDP		; std::_Get_size_of_n<4>
_TEXT	ENDS
; Function compile flags: /Odtp /RTCsu /ZI
; File C:\Program Files\Microsoft Visual Studio\2022\Community\VC\Tools\MSVC\14.31.31103\include\xmemory
;	COMDAT ??$_Deallocate@$0BA@$0A@@std@@YAXPEAX_K@Z
_TEXT	SEGMENT
_Ptr$ = 224
_Bytes$ = 232
??$_Deallocate@$0BA@$0A@@std@@YAXPEAX_K@Z PROC		; std::_Deallocate<16,0>, COMDAT

; 242  : _CONSTEXPR20 void _Deallocate(void* _Ptr, size_t _Bytes) noexcept {

$LN6:
	mov	QWORD PTR [rsp+16], rdx
	mov	QWORD PTR [rsp+8], rcx
	push	rbp
	push	rdi
	sub	rsp, 232				; 000000e8H
	lea	rbp, QWORD PTR [rsp+32]
	lea	rcx, OFFSET FLAT:__BBC6BDD8_xmemory
	call	__CheckForDebuggerJustMyCode

; 243  :     // deallocate storage allocated by _Allocate when !_HAS_ALIGNED_NEW || _Align <= __STDCPP_DEFAULT_NEW_ALIGNMENT__
; 244  : #if _HAS_CXX20 // TRANSITION, GH-1532
; 245  :     if (_STD is_constant_evaluated()) {

	call	?is_constant_evaluated@std@@YA_NXZ	; std::is_constant_evaluated
	movzx	eax, al
	test	eax, eax
	je	SHORT $LN2@Deallocate

; 246  :         ::operator delete(_Ptr);

	mov	rcx, QWORD PTR _Ptr$[rbp]
	call	??3@YAXPEAX@Z				; operator delete

; 247  :     } else

	jmp	SHORT $LN3@Deallocate
$LN2@Deallocate:

; 248  : #endif // _HAS_CXX20
; 249  :     {
; 250  : #if defined(_M_IX86) || defined(_M_X64)
; 251  :         if (_Bytes >= _Big_allocation_threshold) { // boost the alignment of big allocations to help autovectorization

	cmp	QWORD PTR _Bytes$[rbp], 4096		; 00001000H
	jb	SHORT $LN4@Deallocate

; 252  :             _Adjust_manually_vector_aligned(_Ptr, _Bytes);

	lea	rdx, QWORD PTR _Bytes$[rbp]
	lea	rcx, QWORD PTR _Ptr$[rbp]
	call	?_Adjust_manually_vector_aligned@std@@YAXAEAPEAXAEA_K@Z ; std::_Adjust_manually_vector_aligned
$LN4@Deallocate:

; 253  :         }
; 254  : #endif // defined(_M_IX86) || defined(_M_X64)
; 255  :         ::operator delete(_Ptr, _Bytes);

	mov	rdx, QWORD PTR _Bytes$[rbp]
	mov	rcx, QWORD PTR _Ptr$[rbp]
	call	??3@YAXPEAX_K@Z				; operator delete
	npad	1
$LN3@Deallocate:

; 256  :     }
; 257  : }

	lea	rsp, QWORD PTR [rbp+200]
	pop	rdi
	pop	rbp
	ret	0
??$_Deallocate@$0BA@$0A@@std@@YAXPEAX_K@Z ENDP		; std::_Deallocate<16,0>
_TEXT	ENDS
; Function compile flags: /Odtp /RTCsu /ZI
; File C:\Program Files\Microsoft Visual Studio\2022\Community\VC\Tools\MSVC\14.31.31103\include\xmemory
;	COMDAT ??$_Allocate@$0BA@U_Default_allocate_traits@std@@$0A@@std@@YAPEAX_K@Z
_TEXT	SEGMENT
_Bytes$ = 224
??$_Allocate@$0BA@U_Default_allocate_traits@std@@$0A@@std@@YAPEAX_K@Z PROC ; std::_Allocate<16,std::_Default_allocate_traits,0>, COMDAT

; 221  : __declspec(allocator) _CONSTEXPR20 void* _Allocate(const size_t _Bytes) {

$LN6:
	mov	QWORD PTR [rsp+8], rcx
	push	rbp
	push	rdi
	sub	rsp, 232				; 000000e8H
	lea	rbp, QWORD PTR [rsp+32]
	lea	rcx, OFFSET FLAT:__BBC6BDD8_xmemory
	call	__CheckForDebuggerJustMyCode

; 222  :     // allocate _Bytes when !_HAS_ALIGNED_NEW || _Align <= __STDCPP_DEFAULT_NEW_ALIGNMENT__
; 223  : #if defined(_M_IX86) || defined(_M_X64)
; 224  : #if _HAS_CXX20 // TRANSITION, GH-1532
; 225  :     if (!_STD is_constant_evaluated())

	call	?is_constant_evaluated@std@@YA_NXZ	; std::is_constant_evaluated
	movzx	eax, al
	test	eax, eax
	jne	SHORT $LN2@Allocate

; 226  : #endif // _HAS_CXX20
; 227  :     {
; 228  :         if (_Bytes >= _Big_allocation_threshold) { // boost the alignment of big allocations to help autovectorization

	cmp	QWORD PTR _Bytes$[rbp], 4096		; 00001000H
	jb	SHORT $LN3@Allocate

; 229  :             return _Allocate_manually_vector_aligned<_Traits>(_Bytes);

	mov	rcx, QWORD PTR _Bytes$[rbp]
	call	??$_Allocate_manually_vector_aligned@U_Default_allocate_traits@std@@@std@@YAPEAX_K@Z ; std::_Allocate_manually_vector_aligned<std::_Default_allocate_traits>
	jmp	SHORT $LN1@Allocate
$LN3@Allocate:
$LN2@Allocate:

; 230  :         }
; 231  :     }
; 232  : #endif // defined(_M_IX86) || defined(_M_X64)
; 233  : 
; 234  :     if (_Bytes != 0) {

	cmp	QWORD PTR _Bytes$[rbp], 0
	je	SHORT $LN4@Allocate

; 235  :         return _Traits::_Allocate(_Bytes);

	mov	rcx, QWORD PTR _Bytes$[rbp]
	call	?_Allocate@_Default_allocate_traits@std@@SAPEAX_K@Z ; std::_Default_allocate_traits::_Allocate
	jmp	SHORT $LN1@Allocate
$LN4@Allocate:

; 236  :     }
; 237  : 
; 238  :     return nullptr;

	xor	eax, eax
$LN1@Allocate:

; 239  : }

	lea	rsp, QWORD PTR [rbp+200]
	pop	rdi
	pop	rbp
	ret	0
??$_Allocate@$0BA@U_Default_allocate_traits@std@@$0A@@std@@YAPEAX_K@Z ENDP ; std::_Allocate<16,std::_Default_allocate_traits,0>
_TEXT	ENDS
; Function compile flags: /Odtp /RTCsu /ZI
; File C:\Program Files\Microsoft Visual Studio\2022\Community\VC\Tools\MSVC\14.31.31103\include\xmemory
;	COMDAT ??$_Get_size_of_n@$0BA@@std@@YA_K_K@Z
_TEXT	SEGMENT
_Overflow_is_possible$ = 4
_Max_possible$1 = 40
_Count$ = 288
??$_Get_size_of_n@$0BA@@std@@YA_K_K@Z PROC		; std::_Get_size_of_n<16>, COMDAT

; 55   : _NODISCARD constexpr size_t _Get_size_of_n(const size_t _Count) {

$LN4:
	mov	QWORD PTR [rsp+8], rcx
	push	rbp
	push	rdi
	sub	rsp, 296				; 00000128H
	lea	rbp, QWORD PTR [rsp+32]
	lea	rcx, OFFSET FLAT:__BBC6BDD8_xmemory
	call	__CheckForDebuggerJustMyCode

; 56   :     constexpr bool _Overflow_is_possible = _Ty_size > 1;

	mov	BYTE PTR _Overflow_is_possible$[rbp], 1

; 57   : 
; 58   :     if constexpr (_Overflow_is_possible) {
; 59   :         constexpr size_t _Max_possible = static_cast<size_t>(-1) / _Ty_size;

	mov	rax, 1152921504606846975		; 0fffffffffffffffH
	mov	QWORD PTR _Max_possible$1[rbp], rax

; 60   :         if (_Count > _Max_possible) {

	mov	rax, 1152921504606846975		; 0fffffffffffffffH
	cmp	QWORD PTR _Count$[rbp], rax
	jbe	SHORT $LN2@Get_size_o

; 61   :             _Throw_bad_array_new_length(); // multiply overflow

	call	?_Throw_bad_array_new_length@std@@YAXXZ	; std::_Throw_bad_array_new_length
$LN2@Get_size_o:

; 62   :         }
; 63   :     }
; 64   : 
; 65   :     return _Count * _Ty_size;

	imul	rax, QWORD PTR _Count$[rbp], 16
$LN3@Get_size_o:

; 66   : }

	lea	rsp, QWORD PTR [rbp+264]
	pop	rdi
	pop	rbp
	ret	0
??$_Get_size_of_n@$0BA@@std@@YA_K_K@Z ENDP		; std::_Get_size_of_n<16>
_TEXT	ENDS
; Function compile flags: /Odtp /RTCsu /ZI
; File C:\Program Files\Microsoft Visual Studio\2022\Community\VC\Tools\MSVC\14.31.31103\include\utility
;	COMDAT ??$max@_K@std@@YAAEB_KAEB_K0@Z
_TEXT	SEGMENT
$T1 = 200
tv65 = 216
_Left$ = 256
_Right$ = 264
??$max@_K@std@@YAAEB_KAEB_K0@Z PROC			; std::max<unsigned __int64>, COMDAT

; 41   :     (max) (const _Ty& _Left, const _Ty& _Right) noexcept(noexcept(_Left < _Right)) /* strengthened */ {

$LN5:
	mov	QWORD PTR [rsp+16], rdx
	mov	QWORD PTR [rsp+8], rcx
	push	rbp
	push	rdi
	sub	rsp, 264				; 00000108H
	lea	rbp, QWORD PTR [rsp+32]
	lea	rcx, OFFSET FLAT:__D153DE1B_utility
	call	__CheckForDebuggerJustMyCode

; 42   :     // return larger of _Left and _Right
; 43   :     return _Left < _Right ? _Right : _Left;

	mov	rax, QWORD PTR _Left$[rbp]
	mov	rcx, QWORD PTR _Right$[rbp]
	mov	rcx, QWORD PTR [rcx]
	cmp	QWORD PTR [rax], rcx
	jae	SHORT $LN3@max
	mov	rax, QWORD PTR _Right$[rbp]
	mov	QWORD PTR tv65[rbp], rax
	jmp	SHORT $LN4@max
$LN3@max:
	mov	rax, QWORD PTR _Left$[rbp]
	mov	QWORD PTR tv65[rbp], rax
$LN4@max:
	mov	rax, QWORD PTR tv65[rbp]
	mov	QWORD PTR $T1[rbp], rax
	mov	rax, QWORD PTR $T1[rbp]

; 44   : }

	lea	rsp, QWORD PTR [rbp+232]
	pop	rdi
	pop	rbp
	ret	0
??$max@_K@std@@YAAEB_KAEB_K0@Z ENDP			; std::max<unsigned __int64>
_TEXT	ENDS
; Function compile flags: /Odtp /RTCsu /ZI
; File C:\Program Files\Microsoft Visual Studio\2022\Community\VC\Tools\MSVC\14.31.31103\include\xutility
;	COMDAT ??$_Construct_in_place@PEADAEBQEAD@std@@YAXAEAPEADAEBQEAD@Z
_TEXT	SEGMENT
$T1 = 200
tv77 = 216
tv75 = 224
_Obj$ = 272
<_Args_0>$ = 280
??$_Construct_in_place@PEADAEBQEAD@std@@YAXAEAPEADAEBQEAD@Z PROC ; std::_Construct_in_place<char *,char * const &>, COMDAT

; 142  :     is_nothrow_constructible_v<_Ty, _Types...>) {

$LN5:
	mov	QWORD PTR [rsp+16], rdx
	mov	QWORD PTR [rsp+8], rcx
	push	rbp
	push	rdi
	sub	rsp, 280				; 00000118H
	lea	rbp, QWORD PTR [rsp+32]
	lea	rcx, OFFSET FLAT:__7F396DA6_xutility
	call	__CheckForDebuggerJustMyCode

; 143  : #if _HAS_CXX20
; 144  :     if (_STD is_constant_evaluated()) {

	call	?is_constant_evaluated@std@@YA_NXZ	; std::is_constant_evaluated
	movzx	eax, al
	test	eax, eax
	je	SHORT $LN2@Construct_

; 145  :         _STD construct_at(_STD addressof(_Obj), _STD forward<_Types>(_Args)...);

	mov	rcx, QWORD PTR <_Args_0>$[rbp]
	call	??$forward@AEBQEAD@std@@YAAEBQEADAEBQEAD@Z ; std::forward<char * const &>
	mov	QWORD PTR tv77[rbp], rax
	mov	rcx, QWORD PTR _Obj$[rbp]
	call	??$addressof@PEAD@std@@YAPEAPEADAEAPEAD@Z ; std::addressof<char *>
	mov	QWORD PTR tv75[rbp], rax
	mov	rdx, QWORD PTR tv77[rbp]
	mov	rcx, QWORD PTR tv75[rbp]
	call	??$construct_at@PEADAEBQEADX@std@@YAPEAPEADQEAPEADAEBQEAD@Z ; std::construct_at<char *,char * const &,void>

; 146  :     } else

	jmp	SHORT $LN3@Construct_
$LN2@Construct_:

; 142  :     is_nothrow_constructible_v<_Ty, _Types...>) {

	mov	rcx, QWORD PTR _Obj$[rbp]
	call	??$addressof@PEAD@std@@YAPEAPEADAEAPEAD@Z ; std::addressof<char *>
	mov	rcx, rax
	call	??$_Voidify_iter@PEAPEAD@std@@YAPEAXPEAPEAD@Z ; std::_Voidify_iter<char * *>
	mov	rdx, rax
	mov	ecx, 8
	call	??2@YAPEAX_KPEAX@Z			; operator new
	mov	QWORD PTR $T1[rbp], rax
	mov	rcx, QWORD PTR <_Args_0>$[rbp]
	call	??$forward@AEBQEAD@std@@YAAEBQEADAEBQEAD@Z ; std::forward<char * const &>
	mov	rcx, QWORD PTR $T1[rbp]
	mov	rax, QWORD PTR [rax]
	mov	QWORD PTR [rcx], rax
$LN3@Construct_:

; 147  : #endif // _HAS_CXX20
; 148  :     {
; 149  :         ::new (_Voidify_iter(_STD addressof(_Obj))) _Ty(_STD forward<_Types>(_Args)...);
; 150  :     }
; 151  : }

	lea	rsp, QWORD PTR [rbp+248]
	pop	rdi
	pop	rbp
	ret	0
??$_Construct_in_place@PEADAEBQEAD@std@@YAXAEAPEADAEBQEAD@Z ENDP ; std::_Construct_in_place<char *,char * const &>
_TEXT	ENDS
; Function compile flags: /Odtp /RTCsu /ZI
; File C:\Program Files\Microsoft Visual Studio\2022\Community\VC\Tools\MSVC\14.31.31103\include\xmemory
;	COMDAT ??$_Pocca@V?$allocator@D@std@@@std@@YAXAEAV?$allocator@D@0@AEBV10@@Z
_TEXT	SEGMENT
_Left$ = 224
_Right$ = 232
??$_Pocca@V?$allocator@D@std@@@std@@YAXAEAV?$allocator@D@0@AEBV10@@Z PROC ; std::_Pocca<std::allocator<char> >, COMDAT

; 912  : _CONSTEXPR20 void _Pocca(_Alloc& _Left, const _Alloc& _Right) noexcept {

$LN3:
	mov	QWORD PTR [rsp+16], rdx
	mov	QWORD PTR [rsp+8], rcx
	push	rbp
	push	rdi
	sub	rsp, 232				; 000000e8H
	lea	rbp, QWORD PTR [rsp+32]
	lea	rcx, OFFSET FLAT:__BBC6BDD8_xmemory
	call	__CheckForDebuggerJustMyCode

; 913  :     if constexpr (allocator_traits<_Alloc>::propagate_on_container_copy_assignment::value) {
; 914  :         _Left = _Right;
; 915  :     }
; 916  : }

	lea	rsp, QWORD PTR [rbp+200]
	pop	rdi
	pop	rbp
	ret	0
??$_Pocca@V?$allocator@D@std@@@std@@YAXAEAV?$allocator@D@0@AEBV10@@Z ENDP ; std::_Pocca<std::allocator<char> >
_TEXT	ENDS
; Function compile flags: /Odtp /RTCsu /ZI
; File C:\Program Files\Microsoft Visual Studio\2022\Community\VC\Tools\MSVC\14.31.31103\include\xstddef
;	COMDAT ??$addressof@$$CBV?$basic_string@DU?$char_traits@D@std@@V?$allocator@D@2@@std@@@std@@YAPEBV?$basic_string@DU?$char_traits@D@std@@V?$allocator@D@2@@0@AEBV10@@Z
_TEXT	SEGMENT
_Val$ = 224
??$addressof@$$CBV?$basic_string@DU?$char_traits@D@std@@V?$allocator@D@2@@std@@@std@@YAPEBV?$basic_string@DU?$char_traits@D@std@@V?$allocator@D@2@@0@AEBV10@@Z PROC ; std::addressof<std::basic_string<char,std::char_traits<char>,std::allocator<char> > const >, COMDAT

; 252  : _NODISCARD constexpr _Ty* addressof(_Ty& _Val) noexcept {

$LN3:
	mov	QWORD PTR [rsp+8], rcx
	push	rbp
	push	rdi
	sub	rsp, 232				; 000000e8H
	lea	rbp, QWORD PTR [rsp+32]
	lea	rcx, OFFSET FLAT:__264C4909_xstddef
	call	__CheckForDebuggerJustMyCode

; 253  :     return __builtin_addressof(_Val);

	mov	rax, QWORD PTR _Val$[rbp]

; 254  : }

	lea	rsp, QWORD PTR [rbp+200]
	pop	rdi
	pop	rbp
	ret	0
??$addressof@$$CBV?$basic_string@DU?$char_traits@D@std@@V?$allocator@D@2@@std@@@std@@YAPEBV?$basic_string@DU?$char_traits@D@std@@V?$allocator@D@2@@0@AEBV10@@Z ENDP ; std::addressof<std::basic_string<char,std::char_traits<char>,std::allocator<char> > const >
_TEXT	ENDS
; Function compile flags: /Odtp /RTCsu /ZI
; File C:\Program Files\Microsoft Visual Studio\2022\Community\VC\Tools\MSVC\14.31.31103\include\xstring
;	COMDAT ??$_Reallocate_for@V<lambda_1>@?1??assign@?$basic_string@DU?$char_traits@D@std@@V?$allocator@D@2@@std@@QEAAAEAV34@QEBD_K@Z@PEBD@?$basic_string@DU?$char_traits@D@std@@V?$allocator@D@2@@std@@AEAAAEAV01@_KV<lambda_1>@?1??assign@01@QEAAAEAV01@QEBD0@Z@PEBD@Z
_TEXT	SEGMENT
_Old_capacity$ = 8
_New_capacity$ = 40
_Al$ = 72
_New_ptr$ = 104
tv91 = 312
__$ArrayPad$ = 320
this$ = 368
_New_size$ = 376
_Fn$ = 384
<_Args_0>$ = 392
??$_Reallocate_for@V<lambda_1>@?1??assign@?$basic_string@DU?$char_traits@D@std@@V?$allocator@D@2@@std@@QEAAAEAV34@QEBD_K@Z@PEBD@?$basic_string@DU?$char_traits@D@std@@V?$allocator@D@2@@std@@AEAAAEAV01@_KV<lambda_1>@?1??assign@01@QEAAAEAV01@QEBD0@Z@PEBD@Z PROC ; std::basic_string<char,std::char_traits<char>,std::allocator<char> >::_Reallocate_for<`std::basic_string<char,std::char_traits<char>,std::allocator<char> >::assign'::`2'::<lambda_1>,char const *>, COMDAT

; 4528 :     _CONSTEXPR20 basic_string& _Reallocate_for(const size_type _New_size, _Fty _Fn, _ArgTys... _Args) {

$LN7:
	mov	QWORD PTR [rsp+32], r9
	mov	BYTE PTR [rsp+24], r8b
	mov	QWORD PTR [rsp+16], rdx
	mov	QWORD PTR [rsp+8], rcx
	push	rbp
	push	rdi
	sub	rsp, 376				; 00000178H
	lea	rbp, QWORD PTR [rsp+32]
	lea	rdi, QWORD PTR [rsp+32]
	mov	ecx, 38					; 00000026H
	mov	eax, -858993460				; ccccccccH
	rep stosd
	mov	rcx, QWORD PTR [rsp+408]
	mov	rax, QWORD PTR __security_cookie
	xor	rax, rbp
	mov	QWORD PTR __$ArrayPad$[rbp], rax
	lea	rcx, OFFSET FLAT:__CF153B44_xstring
	call	__CheckForDebuggerJustMyCode

; 4529 :         // reallocate to store exactly _New_size elements, new buffer prepared by
; 4530 :         // _Fn(_New_ptr, _New_size, _Args...)
; 4531 :         if (_New_size > max_size()) {

	mov	rcx, QWORD PTR this$[rbp]
	call	?max_size@?$basic_string@DU?$char_traits@D@std@@V?$allocator@D@2@@std@@QEBA_KXZ ; std::basic_string<char,std::char_traits<char>,std::allocator<char> >::max_size
	cmp	QWORD PTR _New_size$[rbp], rax
	jbe	SHORT $LN2@Reallocate

; 4532 :             _Xlen_string(); // result too long

	call	?_Xlen_string@std@@YAXXZ		; std::_Xlen_string
$LN2@Reallocate:

; 4533 :         }
; 4534 : 
; 4535 :         const size_type _Old_capacity = _Mypair._Myval2._Myres;

	mov	rax, QWORD PTR this$[rbp]
	mov	rax, QWORD PTR [rax+32]
	mov	QWORD PTR _Old_capacity$[rbp], rax

; 4536 :         const size_type _New_capacity = _Calculate_growth(_New_size);

	mov	rdx, QWORD PTR _New_size$[rbp]
	mov	rcx, QWORD PTR this$[rbp]
	call	?_Calculate_growth@?$basic_string@DU?$char_traits@D@std@@V?$allocator@D@2@@std@@AEBA_K_K@Z ; std::basic_string<char,std::char_traits<char>,std::allocator<char> >::_Calculate_growth
	mov	QWORD PTR _New_capacity$[rbp], rax

; 4537 :         auto& _Al                     = _Getal();

	mov	rcx, QWORD PTR this$[rbp]
	call	?_Getal@?$basic_string@DU?$char_traits@D@std@@V?$allocator@D@2@@std@@AEAAAEAV?$allocator@D@2@XZ ; std::basic_string<char,std::char_traits<char>,std::allocator<char> >::_Getal
	mov	QWORD PTR _Al$[rbp], rax

; 4538 :         const pointer _New_ptr        = _Al.allocate(_New_capacity + 1); // throws

	mov	rax, QWORD PTR _New_capacity$[rbp]
	add	rax, 1
	mov	rcx, -1
	cmovb	rax, rcx
	mov	rdx, rax
	mov	rcx, QWORD PTR _Al$[rbp]
	call	?allocate@?$allocator@D@std@@QEAAPEAD_K@Z ; std::allocator<char>::allocate
	mov	QWORD PTR _New_ptr$[rbp], rax

; 4539 : 
; 4540 : #if _HAS_CXX20
; 4541 :         if (_STD is_constant_evaluated()) { // Begin the lifetimes of the objects before copying to avoid UB

	call	?is_constant_evaluated@std@@YA_NXZ	; std::is_constant_evaluated
	movzx	eax, al
	test	eax, eax
	je	SHORT $LN3@Reallocate

; 4542 :             _Traits::assign(_Unfancy(_New_ptr), _New_capacity + 1, _Elem());

	mov	rax, QWORD PTR _New_capacity$[rbp]
	inc	rax
	mov	QWORD PTR tv91[rbp], rax
	mov	rcx, QWORD PTR _New_ptr$[rbp]
	call	??$_Unfancy@D@std@@YAPEADPEAD@Z		; std::_Unfancy<char>
	xor	r8d, r8d
	mov	rcx, QWORD PTR tv91[rbp]
	mov	rdx, rcx
	mov	rcx, rax
	call	?assign@?$_Narrow_char_traits@DH@std@@SAPEADQEAD_KD@Z ; std::_Narrow_char_traits<char,int>::assign
$LN3@Reallocate:

; 4543 :         }
; 4544 : #endif // _HAS_CXX20
; 4545 :         _Mypair._Myval2._Orphan_all();

	mov	rax, QWORD PTR this$[rbp]
	mov	rcx, rax
	call	?_Orphan_all@_Container_base12@std@@QEAAXXZ ; std::_Container_base12::_Orphan_all

; 4546 :         _Mypair._Myval2._Mysize = _New_size;

	mov	rax, QWORD PTR this$[rbp]
	mov	rcx, QWORD PTR _New_size$[rbp]
	mov	QWORD PTR [rax+24], rcx

; 4547 :         _Mypair._Myval2._Myres  = _New_capacity;

	mov	rax, QWORD PTR this$[rbp]
	mov	rcx, QWORD PTR _New_capacity$[rbp]
	mov	QWORD PTR [rax+32], rcx

; 4548 :         _Fn(_Unfancy(_New_ptr), _New_size, _Args...);

	mov	rcx, QWORD PTR _New_ptr$[rbp]
	call	??$_Unfancy@D@std@@YAPEADPEAD@Z		; std::_Unfancy<char>
	mov	r9, QWORD PTR <_Args_0>$[rbp]
	mov	r8, QWORD PTR _New_size$[rbp]
	mov	rdx, rax
	lea	rcx, QWORD PTR _Fn$[rbp]
	call	??R<lambda_1>@?1??assign@?$basic_string@DU?$char_traits@D@std@@V?$allocator@D@2@@std@@QEAAAEAV23@QEBD_K@Z@QEBA@QEAD10@Z ; `std::basic_string<char,std::char_traits<char>,std::allocator<char> >::assign'::`2'::<lambda_1>::operator()

; 4549 :         if (_BUF_SIZE <= _Old_capacity) {

	cmp	QWORD PTR _Old_capacity$[rbp], 16
	jb	SHORT $LN4@Reallocate

; 4550 :             _Al.deallocate(_Mypair._Myval2._Bx._Ptr, _Old_capacity + 1);

	mov	rax, QWORD PTR _Old_capacity$[rbp]
	inc	rax
	mov	r8, rax
	mov	rax, QWORD PTR this$[rbp]
	mov	rdx, QWORD PTR [rax+8]
	mov	rcx, QWORD PTR _Al$[rbp]
	call	?deallocate@?$allocator@D@std@@QEAAXQEAD_K@Z ; std::allocator<char>::deallocate

; 4551 :             _Mypair._Myval2._Bx._Ptr = _New_ptr;

	mov	rax, QWORD PTR this$[rbp]
	mov	rcx, QWORD PTR _New_ptr$[rbp]
	mov	QWORD PTR [rax+8], rcx

; 4552 :         } else {

	jmp	SHORT $LN5@Reallocate
$LN4@Reallocate:

; 4553 :             _Construct_in_place(_Mypair._Myval2._Bx._Ptr, _New_ptr);

	mov	rax, QWORD PTR this$[rbp]
	add	rax, 8
	lea	rdx, QWORD PTR _New_ptr$[rbp]
	mov	rcx, rax
	call	??$_Construct_in_place@PEADAEBQEAD@std@@YAXAEAPEADAEBQEAD@Z ; std::_Construct_in_place<char *,char * const &>
$LN5@Reallocate:

; 4554 :         }
; 4555 : 
; 4556 :         return *this;

	mov	rax, QWORD PTR this$[rbp]
$LN6@Reallocate:

; 4557 :     }

	mov	rdi, rax
	lea	rcx, QWORD PTR [rbp-32]
	lea	rdx, OFFSET FLAT:??$_Reallocate_for@V<lambda_1>@?1??assign@?$basic_string@DU?$char_traits@D@std@@V?$allocator@D@2@@std@@QEAAAEAV34@QEBD_K@Z@PEBD@?$basic_string@DU?$char_traits@D@std@@V?$allocator@D@2@@std@@AEAAAEAV01@_KV<lambda_1>@?1??assign@01@QEAAAEAV01@QEBD0@Z@PEBD@Z$rtcFrameData
	call	_RTC_CheckStackVars
	mov	rax, rdi
	mov	rcx, QWORD PTR __$ArrayPad$[rbp]
	xor	rcx, rbp
	call	__security_check_cookie
	lea	rsp, QWORD PTR [rbp+344]
	pop	rdi
	pop	rbp
	ret	0
??$_Reallocate_for@V<lambda_1>@?1??assign@?$basic_string@DU?$char_traits@D@std@@V?$allocator@D@2@@std@@QEAAAEAV34@QEBD_K@Z@PEBD@?$basic_string@DU?$char_traits@D@std@@V?$allocator@D@2@@std@@AEAAAEAV01@_KV<lambda_1>@?1??assign@01@QEAAAEAV01@QEBD0@Z@PEBD@Z ENDP ; std::basic_string<char,std::char_traits<char>,std::allocator<char> >::_Reallocate_for<`std::basic_string<char,std::char_traits<char>,std::allocator<char> >::assign'::`2'::<lambda_1>,char const *>
_TEXT	ENDS
; Function compile flags: /Odtp /RTCsu /ZI
; File C:\Program Files\Microsoft Visual Studio\2022\Community\VC\Tools\MSVC\14.31.31103\include\xstring
;	COMDAT ??R<lambda_1>@?1??assign@?$basic_string@DU?$char_traits@D@std@@V?$allocator@D@2@@std@@QEAAAEAV23@QEBD_K@Z@QEBA@QEAD10@Z
_TEXT	SEGMENT
$T1 = 196
this$ = 256
_New_ptr$ = 264
_Count$ = 272
_Ptr$ = 280
??R<lambda_1>@?1??assign@?$basic_string@DU?$char_traits@D@std@@V?$allocator@D@2@@std@@QEAAAEAV23@QEBD_K@Z@QEBA@QEAD10@Z PROC ; `std::basic_string<char,std::char_traits<char>,std::allocator<char> >::assign'::`2'::<lambda_1>::operator(), COMDAT

; 3261 :             },

$LN3:
	mov	QWORD PTR [rsp+32], r9
	mov	QWORD PTR [rsp+24], r8
	mov	QWORD PTR [rsp+16], rdx
	mov	QWORD PTR [rsp+8], rcx
	push	rbp
	push	rdi
	sub	rsp, 264				; 00000108H
	lea	rbp, QWORD PTR [rsp+32]
	lea	rcx, OFFSET FLAT:__CF153B44_xstring
	call	__CheckForDebuggerJustMyCode

; 3259 :                 _Traits::copy(_New_ptr, _Ptr, _Count);

	mov	r8, QWORD PTR _Count$[rbp]
	mov	rdx, QWORD PTR _Ptr$[rbp]
	mov	rcx, QWORD PTR _New_ptr$[rbp]
	call	?copy@?$_Char_traits@DH@std@@SAPEADQEADQEBD_K@Z ; std::_Char_traits<char,int>::copy

; 3260 :                 _Traits::assign(_New_ptr[_Count], _Elem());

	mov	BYTE PTR $T1[rbp], 0
	mov	rax, QWORD PTR _Count$[rbp]
	mov	rcx, QWORD PTR _New_ptr$[rbp]
	add	rcx, rax
	mov	rax, rcx
	lea	rdx, QWORD PTR $T1[rbp]
	mov	rcx, rax
	call	?assign@?$_Narrow_char_traits@DH@std@@SAXAEADAEBD@Z ; std::_Narrow_char_traits<char,int>::assign

; 3261 :             },

	lea	rsp, QWORD PTR [rbp+232]
	pop	rdi
	pop	rbp
	ret	0
??R<lambda_1>@?1??assign@?$basic_string@DU?$char_traits@D@std@@V?$allocator@D@2@@std@@QEAAAEAV23@QEBD_K@Z@QEBA@QEAD10@Z ENDP ; `std::basic_string<char,std::char_traits<char>,std::allocator<char> >::assign'::`2'::<lambda_1>::operator()
_TEXT	ENDS
; Function compile flags: /Odtp /RTCsu /ZI
; File C:\Program Files\Microsoft Visual Studio\2022\Community\VC\Tools\MSVC\14.31.31103\include\xstddef
;	COMDAT ??$_Unfancy@D@std@@YAPEADPEAD@Z
_TEXT	SEGMENT
_Ptr$ = 224
??$_Unfancy@D@std@@YAPEADPEAD@Z PROC			; std::_Unfancy<char>, COMDAT

; 265  : _NODISCARD constexpr _Ty* _Unfancy(_Ty* _Ptr) noexcept { // do nothing for plain pointers

$LN3:
	mov	QWORD PTR [rsp+8], rcx
	push	rbp
	push	rdi
	sub	rsp, 232				; 000000e8H
	lea	rbp, QWORD PTR [rsp+32]
	lea	rcx, OFFSET FLAT:__264C4909_xstddef
	call	__CheckForDebuggerJustMyCode

; 266  :     return _Ptr;

	mov	rax, QWORD PTR _Ptr$[rbp]

; 267  : }

	lea	rsp, QWORD PTR [rbp+200]
	pop	rdi
	pop	rbp
	ret	0
??$_Unfancy@D@std@@YAPEADPEAD@Z ENDP			; std::_Unfancy<char>
_TEXT	ENDS
; Function compile flags: /Odtp /RTCsu /ZI
; File C:\Program Files\Microsoft Visual Studio\2022\Community\VC\Tools\MSVC\14.31.31103\include\xmemory
;	COMDAT ??$_Destroy_in_place@PEAD@std@@YAXAEAPEAD@Z
_TEXT	SEGMENT
_Obj$ = 224
??$_Destroy_in_place@PEAD@std@@YAXAEAPEAD@Z PROC	; std::_Destroy_in_place<char *>, COMDAT

; 294  : _CONSTEXPR20 void _Destroy_in_place(_Ty& _Obj) noexcept {

$LN3:
	mov	QWORD PTR [rsp+8], rcx
	push	rbp
	push	rdi
	sub	rsp, 232				; 000000e8H
	lea	rbp, QWORD PTR [rsp+32]
	lea	rcx, OFFSET FLAT:__BBC6BDD8_xmemory
	call	__CheckForDebuggerJustMyCode

; 295  :     if constexpr (is_array_v<_Ty>) {
; 296  :         _Destroy_range(_Obj, _Obj + extent_v<_Ty>);
; 297  :     } else {
; 298  :         _Obj.~_Ty();
; 299  :     }
; 300  : }

	lea	rsp, QWORD PTR [rbp+200]
	pop	rdi
	pop	rbp
	ret	0
??$_Destroy_in_place@PEAD@std@@YAXAEAPEAD@Z ENDP	; std::_Destroy_in_place<char *>
_TEXT	ENDS
; Function compile flags: /Odtp /RTCsu /ZI
; File C:\Program Files\Microsoft Visual Studio\2022\Community\VC\Tools\MSVC\14.31.31103\include\xmemory
;	COMDAT ??$_Destroy_range@V?$allocator@H@std@@@std@@YAXPEAHQEAHAEAV?$allocator@H@0@@Z
_TEXT	SEGMENT
_First$ = 224
_Last$ = 232
_Al$ = 240
??$_Destroy_range@V?$allocator@H@std@@@std@@YAXPEAHQEAHAEAV?$allocator@H@0@@Z PROC ; std::_Destroy_range<std::allocator<int> >, COMDAT

; 935  : _CONSTEXPR20 void _Destroy_range(_Alloc_ptr_t<_Alloc> _First, const _Alloc_ptr_t<_Alloc> _Last, _Alloc& _Al) noexcept {

$LN3:
	mov	QWORD PTR [rsp+24], r8
	mov	QWORD PTR [rsp+16], rdx
	mov	QWORD PTR [rsp+8], rcx
	push	rbp
	push	rdi
	sub	rsp, 232				; 000000e8H
	lea	rbp, QWORD PTR [rsp+32]
	lea	rcx, OFFSET FLAT:__BBC6BDD8_xmemory
	call	__CheckForDebuggerJustMyCode

; 936  :     // note that this is an optimization for debug mode codegen; in release mode the BE removes all of this
; 937  :     using _Ty = typename _Alloc::value_type;
; 938  :     if constexpr (!conjunction_v<is_trivially_destructible<_Ty>, _Uses_default_destroy<_Alloc, _Ty*>>) {
; 939  :         for (; _First != _Last; ++_First) {
; 940  :             allocator_traits<_Alloc>::destroy(_Al, _Unfancy(_First));
; 941  :         }
; 942  :     }
; 943  : }

	lea	rsp, QWORD PTR [rbp+200]
	pop	rdi
	pop	rbp
	ret	0
??$_Destroy_range@V?$allocator@H@std@@@std@@YAXPEAHQEAHAEAV?$allocator@H@0@@Z ENDP ; std::_Destroy_range<std::allocator<int> >
_TEXT	ENDS
; Function compile flags: /Odtp /RTCsu /ZI
; File C:\Program Files\Microsoft Visual Studio\2022\Community\VC\Tools\MSVC\14.31.31103\include\xstddef
;	COMDAT ??$_Unfancy@U_Container_proxy@std@@@std@@YAPEAU_Container_proxy@0@PEAU10@@Z
_TEXT	SEGMENT
_Ptr$ = 224
??$_Unfancy@U_Container_proxy@std@@@std@@YAPEAU_Container_proxy@0@PEAU10@@Z PROC ; std::_Unfancy<std::_Container_proxy>, COMDAT

; 265  : _NODISCARD constexpr _Ty* _Unfancy(_Ty* _Ptr) noexcept { // do nothing for plain pointers

$LN3:
	mov	QWORD PTR [rsp+8], rcx
	push	rbp
	push	rdi
	sub	rsp, 232				; 000000e8H
	lea	rbp, QWORD PTR [rsp+32]
	lea	rcx, OFFSET FLAT:__264C4909_xstddef
	call	__CheckForDebuggerJustMyCode

; 266  :     return _Ptr;

	mov	rax, QWORD PTR _Ptr$[rbp]

; 267  : }

	lea	rsp, QWORD PTR [rbp+200]
	pop	rdi
	pop	rbp
	ret	0
??$_Unfancy@U_Container_proxy@std@@@std@@YAPEAU_Container_proxy@0@PEAU10@@Z ENDP ; std::_Unfancy<std::_Container_proxy>
_TEXT	ENDS
; Function compile flags: /Odtp /RTCsu /ZI
; File C:\Program Files\Microsoft Visual Studio\2022\Community\VC\Tools\MSVC\14.31.31103\include\xmemory
;	COMDAT ??$?0$$V@?$_Compressed_pair@V?$allocator@D@std@@V?$_String_val@U?$_Simple_types@D@std@@@2@$00@std@@QEAA@U_Zero_then_variadic_args_t@1@@Z
_TEXT	SEGMENT
this$ = 224
__formal$ = 232
??$?0$$V@?$_Compressed_pair@V?$allocator@D@std@@V?$_String_val@U?$_Simple_types@D@std@@@2@$00@std@@QEAA@U_Zero_then_variadic_args_t@1@@Z PROC ; std::_Compressed_pair<std::allocator<char>,std::_String_val<std::_Simple_types<char> >,1>::_Compressed_pair<std::allocator<char>,std::_String_val<std::_Simple_types<char> >,1><>, COMDAT

; 1366 :         : _Ty1(), _Myval2(_STD forward<_Other2>(_Val2)...) {}

$LN3:
	mov	BYTE PTR [rsp+16], dl
	mov	QWORD PTR [rsp+8], rcx
	push	rbp
	push	rdi
	sub	rsp, 232				; 000000e8H
	lea	rbp, QWORD PTR [rsp+32]
	lea	rcx, OFFSET FLAT:__BBC6BDD8_xmemory
	call	__CheckForDebuggerJustMyCode
	mov	rcx, QWORD PTR this$[rbp]
	call	??0?$allocator@D@std@@QEAA@XZ		; std::allocator<char>::allocator<char>
	mov	rax, QWORD PTR this$[rbp]
	mov	rcx, rax
	call	??0?$_String_val@U?$_Simple_types@D@std@@@std@@QEAA@XZ ; std::_String_val<std::_Simple_types<char> >::_String_val<std::_Simple_types<char> >
	mov	rax, QWORD PTR this$[rbp]
	lea	rsp, QWORD PTR [rbp+200]
	pop	rdi
	pop	rbp
	ret	0
??$?0$$V@?$_Compressed_pair@V?$allocator@D@std@@V?$_String_val@U?$_Simple_types@D@std@@@2@$00@std@@QEAA@U_Zero_then_variadic_args_t@1@@Z ENDP ; std::_Compressed_pair<std::allocator<char>,std::_String_val<std::_Simple_types<char> >,1>::_Compressed_pair<std::allocator<char>,std::_String_val<std::_Simple_types<char> >,1><>
_TEXT	ENDS
; Function compile flags: /Odtp /RTCsu /ZI
; File C:\Program Files\Microsoft Visual Studio\2022\Community\VC\Tools\MSVC\14.31.31103\include\xmemory
;	COMDAT ??$?0D@?$allocator@U_Container_proxy@std@@@std@@QEAA@AEBV?$allocator@D@1@@Z
_TEXT	SEGMENT
this$ = 224
__formal$ = 232
??$?0D@?$allocator@U_Container_proxy@std@@@std@@QEAA@AEBV?$allocator@D@1@@Z PROC ; std::allocator<std::_Container_proxy>::allocator<std::_Container_proxy><char>, COMDAT

; 821  :     constexpr allocator(const allocator<_Other>&) noexcept {}

$LN3:
	mov	QWORD PTR [rsp+16], rdx
	mov	QWORD PTR [rsp+8], rcx
	push	rbp
	push	rdi
	sub	rsp, 232				; 000000e8H
	lea	rbp, QWORD PTR [rsp+32]
	lea	rcx, OFFSET FLAT:__BBC6BDD8_xmemory
	call	__CheckForDebuggerJustMyCode
	mov	rax, QWORD PTR this$[rbp]
	lea	rsp, QWORD PTR [rbp+200]
	pop	rdi
	pop	rbp
	ret	0
??$?0D@?$allocator@U_Container_proxy@std@@@std@@QEAA@AEBV?$allocator@D@1@@Z ENDP ; std::allocator<std::_Container_proxy>::allocator<std::_Container_proxy><char>
_TEXT	ENDS
; Function compile flags: /Odtp /RTCsu /ZI
; File C:\Program Files\Microsoft Visual Studio\2022\Community\VC\Tools\MSVC\14.31.31103\include\xmemory
;	COMDAT ??$_Convert_size@_K@std@@YA_K_K@Z
_TEXT	SEGMENT
_Len$ = 224
??$_Convert_size@_K@std@@YA_K_K@Z PROC			; std::_Convert_size<unsigned __int64>, COMDAT

; 956  : _NODISCARD constexpr _Size_type _Convert_size(const size_t _Len) noexcept(is_same_v<_Size_type, size_t>) {

$LN3:
	mov	QWORD PTR [rsp+8], rcx
	push	rbp
	push	rdi
	sub	rsp, 232				; 000000e8H
	lea	rbp, QWORD PTR [rsp+32]
	lea	rcx, OFFSET FLAT:__BBC6BDD8_xmemory
	call	__CheckForDebuggerJustMyCode

; 957  :     // convert size_t to _Size_type, avoiding truncation
; 958  :     if constexpr (!is_same_v<_Size_type, size_t>) {
; 959  :         if (_Len > (numeric_limits<_Size_type>::max) ()) {
; 960  :             _Xlength_error("size_t too long for _Size_type");
; 961  :         }
; 962  :     }
; 963  : 
; 964  :     return static_cast<_Size_type>(_Len);

	mov	rax, QWORD PTR _Len$[rbp]

; 965  : }

	lea	rsp, QWORD PTR [rbp+200]
	pop	rdi
	pop	rbp
	ret	0
??$_Convert_size@_K@std@@YA_K_K@Z ENDP			; std::_Convert_size<unsigned __int64>
_TEXT	ENDS
; Function compile flags: /Odtp /RTCsu /ZI
; File C:\Program Files\Microsoft Visual Studio\2022\Community\VC\Tools\MSVC\14.31.31103\include\xmemory
;	COMDAT ??1?$_Container_proxy_ptr12@V?$allocator@U_Container_proxy@std@@@std@@@std@@QEAA@XZ
_TEXT	SEGMENT
this$ = 224
??1?$_Container_proxy_ptr12@V?$allocator@U_Container_proxy@std@@@std@@@std@@QEAA@XZ PROC ; std::_Container_proxy_ptr12<std::allocator<std::_Container_proxy> >::~_Container_proxy_ptr12<std::allocator<std::_Container_proxy> >, COMDAT

; 1330 :     _CONSTEXPR20 ~_Container_proxy_ptr12() {

$LN4:
	mov	QWORD PTR [rsp+8], rcx
	push	rbp
	push	rdi
	sub	rsp, 232				; 000000e8H
	lea	rbp, QWORD PTR [rsp+32]
	lea	rcx, OFFSET FLAT:__BBC6BDD8_xmemory
	call	__CheckForDebuggerJustMyCode

; 1331 :         if (_Ptr) {

	mov	rax, QWORD PTR this$[rbp]
	cmp	QWORD PTR [rax], 0
	je	SHORT $LN2@Container_

; 1332 :             _Delete_plain_internal(_Al, _Ptr);

	mov	rax, QWORD PTR this$[rbp]
	mov	rdx, QWORD PTR [rax]
	mov	rax, QWORD PTR this$[rbp]
	mov	rcx, QWORD PTR [rax+8]
	call	??$_Delete_plain_internal@V?$allocator@U_Container_proxy@std@@@std@@@std@@YAXAEAV?$allocator@U_Container_proxy@std@@@0@QEAU_Container_proxy@0@@Z ; std::_Delete_plain_internal<std::allocator<std::_Container_proxy> >
$LN2@Container_:

; 1333 :         }
; 1334 :     }

	lea	rsp, QWORD PTR [rbp+200]
	pop	rdi
	pop	rbp
	ret	0
??1?$_Container_proxy_ptr12@V?$allocator@U_Container_proxy@std@@@std@@@std@@QEAA@XZ ENDP ; std::_Container_proxy_ptr12<std::allocator<std::_Container_proxy> >::~_Container_proxy_ptr12<std::allocator<std::_Container_proxy> >
_TEXT	ENDS
; Function compile flags: /Odtp /RTCsu /ZI
; File C:\Program Files\Microsoft Visual Studio\2022\Community\VC\Tools\MSVC\14.31.31103\include\xmemory
;	COMDAT ??0?$_Container_proxy_ptr12@V?$allocator@U_Container_proxy@std@@@std@@@std@@QEAA@AEAV?$allocator@U_Container_proxy@std@@@1@AEAU_Container_base12@1@@Z
_TEXT	SEGMENT
$T1 = 200
this$ = 256
_Al_$ = 264
_Mycont$ = 272
??0?$_Container_proxy_ptr12@V?$allocator@U_Container_proxy@std@@@std@@@std@@QEAA@AEAV?$allocator@U_Container_proxy@std@@@1@AEAU_Container_base12@1@@Z PROC ; std::_Container_proxy_ptr12<std::allocator<std::_Container_proxy> >::_Container_proxy_ptr12<std::allocator<std::_Container_proxy> >, COMDAT

; 1316 :     _CONSTEXPR20 _Container_proxy_ptr12(_Alloc& _Al_, _Container_base12& _Mycont) : _Al(_Al_) {

$LN3:
	mov	QWORD PTR [rsp+24], r8
	mov	QWORD PTR [rsp+16], rdx
	mov	QWORD PTR [rsp+8], rcx
	push	rbp
	push	rdi
	sub	rsp, 264				; 00000108H
	lea	rbp, QWORD PTR [rsp+32]
	lea	rcx, OFFSET FLAT:__BBC6BDD8_xmemory
	call	__CheckForDebuggerJustMyCode
	mov	rcx, QWORD PTR this$[rbp]
	call	??0_Basic_container_proxy_ptr12@std@@IEAA@XZ ; std::_Basic_container_proxy_ptr12::_Basic_container_proxy_ptr12
	mov	rax, QWORD PTR this$[rbp]
	mov	rcx, QWORD PTR _Al_$[rbp]
	mov	QWORD PTR [rax+8], rcx

; 1317 :         // create a new _Container_proxy pointing at _Mycont
; 1318 :         _Ptr = _Unfancy(_Al_.allocate(1));

	mov	edx, 1
	mov	rcx, QWORD PTR _Al_$[rbp]
	call	?allocate@?$allocator@U_Container_proxy@std@@@std@@QEAAPEAU_Container_proxy@2@_K@Z ; std::allocator<std::_Container_proxy>::allocate
	mov	rcx, rax
	call	??$_Unfancy@U_Container_proxy@std@@@std@@YAPEAU_Container_proxy@0@PEAU10@@Z ; std::_Unfancy<std::_Container_proxy>
	mov	rcx, QWORD PTR this$[rbp]
	mov	QWORD PTR [rcx], rax

; 1319 :         _Construct_in_place(*_Ptr, _STD addressof(_Mycont));

	mov	rcx, QWORD PTR _Mycont$[rbp]
	call	??$addressof@U_Container_base12@std@@@std@@YAPEAU_Container_base12@0@AEAU10@@Z ; std::addressof<std::_Container_base12>
	mov	QWORD PTR $T1[rbp], rax
	lea	rdx, QWORD PTR $T1[rbp]
	mov	rax, QWORD PTR this$[rbp]
	mov	rcx, QWORD PTR [rax]
	call	??$_Construct_in_place@U_Container_proxy@std@@PEAU_Container_base12@2@@std@@YAXAEAU_Container_proxy@0@$$QEAPEAU_Container_base12@0@@Z ; std::_Construct_in_place<std::_Container_proxy,std::_Container_base12 *>

; 1320 :         _Mycont._Myproxy = _Ptr;

	mov	rax, QWORD PTR _Mycont$[rbp]
	mov	rcx, QWORD PTR this$[rbp]
	mov	rcx, QWORD PTR [rcx]
	mov	QWORD PTR [rax], rcx

; 1321 :     }

	mov	rax, QWORD PTR this$[rbp]
	lea	rsp, QWORD PTR [rbp+232]
	pop	rdi
	pop	rbp
	ret	0
??0?$_Container_proxy_ptr12@V?$allocator@U_Container_proxy@std@@@std@@@std@@QEAA@AEAV?$allocator@U_Container_proxy@std@@@1@AEAU_Container_base12@1@@Z ENDP ; std::_Container_proxy_ptr12<std::allocator<std::_Container_proxy> >::_Container_proxy_ptr12<std::allocator<std::_Container_proxy> >
_TEXT	ENDS
; Function compile flags: /Odtp /RTCsu /ZI
; File C:\Program Files\Microsoft Visual Studio\2022\Community\VC\Tools\MSVC\14.31.31103\include\utility
;	COMDAT ??$min@_K@std@@YAAEB_KAEB_K0@Z
_TEXT	SEGMENT
$T1 = 200
tv65 = 216
_Left$ = 256
_Right$ = 264
??$min@_K@std@@YAAEB_KAEB_K0@Z PROC			; std::min<unsigned __int64>, COMDAT

; 64   :     (min) (const _Ty& _Left, const _Ty& _Right) noexcept(noexcept(_Right < _Left)) /* strengthened */ {

$LN5:
	mov	QWORD PTR [rsp+16], rdx
	mov	QWORD PTR [rsp+8], rcx
	push	rbp
	push	rdi
	sub	rsp, 264				; 00000108H
	lea	rbp, QWORD PTR [rsp+32]
	lea	rcx, OFFSET FLAT:__D153DE1B_utility
	call	__CheckForDebuggerJustMyCode

; 65   :     // return smaller of _Left and _Right
; 66   :     return _Right < _Left ? _Right : _Left;

	mov	rax, QWORD PTR _Right$[rbp]
	mov	rcx, QWORD PTR _Left$[rbp]
	mov	rcx, QWORD PTR [rcx]
	cmp	QWORD PTR [rax], rcx
	jae	SHORT $LN3@min
	mov	rax, QWORD PTR _Right$[rbp]
	mov	QWORD PTR tv65[rbp], rax
	jmp	SHORT $LN4@min
$LN3@min:
	mov	rax, QWORD PTR _Left$[rbp]
	mov	QWORD PTR tv65[rbp], rax
$LN4@min:
	mov	rax, QWORD PTR tv65[rbp]
	mov	QWORD PTR $T1[rbp], rax
	mov	rax, QWORD PTR $T1[rbp]

; 67   : }

	lea	rsp, QWORD PTR [rbp+232]
	pop	rdi
	pop	rbp
	ret	0
??$min@_K@std@@YAAEB_KAEB_K0@Z ENDP			; std::min<unsigned __int64>
_TEXT	ENDS
; Function compile flags: /Odtp /RTCsu /ZI
; File C:\Program Files\Microsoft Visual Studio\2022\Community\VC\Tools\MSVC\14.31.31103\include\ostream
;	COMDAT ??Bsentry@?$basic_ostream@DU?$char_traits@D@std@@@std@@QEBA_NXZ
_TEXT	SEGMENT
this$ = 224
??Bsentry@?$basic_ostream@DU?$char_traits@D@std@@@std@@QEBA_NXZ PROC ; std::basic_ostream<char,std::char_traits<char> >::sentry::operator bool, COMDAT

; 123  :         explicit __CLR_OR_THIS_CALL operator bool() const {

$LN3:
	mov	QWORD PTR [rsp+8], rcx
	push	rbp
	push	rdi
	sub	rsp, 232				; 000000e8H
	lea	rbp, QWORD PTR [rsp+32]
	lea	rcx, OFFSET FLAT:__033B95B1_ostream
	call	__CheckForDebuggerJustMyCode

; 124  :             return _Ok;

	mov	rax, QWORD PTR this$[rbp]
	movzx	eax, BYTE PTR [rax+8]

; 125  :         }

	lea	rsp, QWORD PTR [rbp+200]
	pop	rdi
	pop	rbp
	ret	0
??Bsentry@?$basic_ostream@DU?$char_traits@D@std@@@std@@QEBA_NXZ ENDP ; std::basic_ostream<char,std::char_traits<char> >::sentry::operator bool
_TEXT	ENDS
; Function compile flags: /Odtp /RTCsu /ZI
; File C:\Program Files\Microsoft Visual Studio\2022\Community\VC\Tools\MSVC\14.31.31103\include\ostream
;	COMDAT ??1sentry@?$basic_ostream@DU?$char_traits@D@std@@@std@@QEAA@XZ
_TEXT	SEGMENT
_Zero_uncaught_exceptions$ = 4
tv71 = 212
this$ = 256
??1sentry@?$basic_ostream@DU?$char_traits@D@std@@@std@@QEAA@XZ PROC ; std::basic_ostream<char,std::char_traits<char> >::sentry::~sentry, COMDAT

; 108  :         __CLR_OR_THIS_CALL ~sentry() noexcept {

$LN6:
	mov	QWORD PTR [rsp+8], rcx
	push	rbp
	push	rdi
	sub	rsp, 264				; 00000108H
	lea	rbp, QWORD PTR [rsp+32]
	lea	rcx, OFFSET FLAT:__033B95B1_ostream
	call	__CheckForDebuggerJustMyCode

; 109  : #if !_HAS_EXCEPTIONS
; 110  :             const bool _Zero_uncaught_exceptions = true;
; 111  : #elif _HAS_DEPRECATED_UNCAUGHT_EXCEPTION
; 112  :             const bool _Zero_uncaught_exceptions = !_STD uncaught_exception(); // TRANSITION, ArchivedOS-12000909
; 113  : #else // ^^^ _HAS_DEPRECATED_UNCAUGHT_EXCEPTION / !_HAS_DEPRECATED_UNCAUGHT_EXCEPTION vvv
; 114  :             const bool _Zero_uncaught_exceptions = _STD uncaught_exceptions() == 0;

	call	?uncaught_exceptions@std@@YAHXZ		; std::uncaught_exceptions
	test	eax, eax
	jne	SHORT $LN4@sentry
	mov	BYTE PTR tv71[rbp], 1
	jmp	SHORT $LN5@sentry
$LN4@sentry:
	mov	BYTE PTR tv71[rbp], 0
$LN5@sentry:
	movzx	eax, BYTE PTR tv71[rbp]
	mov	BYTE PTR _Zero_uncaught_exceptions$[rbp], al

; 115  : #endif // !_HAS_DEPRECATED_UNCAUGHT_EXCEPTION
; 116  : 
; 117  :             if (_Zero_uncaught_exceptions) {

	movzx	eax, BYTE PTR _Zero_uncaught_exceptions$[rbp]
	test	eax, eax
	je	SHORT $LN2@sentry

; 118  :                 this->_Myostr._Osfx();

	mov	rax, QWORD PTR this$[rbp]
	mov	rcx, QWORD PTR [rax]
	call	QWORD PTR __imp_?_Osfx@?$basic_ostream@DU?$char_traits@D@std@@@std@@QEAAXXZ
$LN2@sentry:

; 119  :             }
; 120  :         }

	mov	rcx, QWORD PTR this$[rbp]
	call	??1_Sentry_base@?$basic_ostream@DU?$char_traits@D@std@@@std@@QEAA@XZ ; std::basic_ostream<char,std::char_traits<char> >::_Sentry_base::~_Sentry_base
	npad	1
	lea	rsp, QWORD PTR [rbp+232]
	pop	rdi
	pop	rbp
	ret	0
??1sentry@?$basic_ostream@DU?$char_traits@D@std@@@std@@QEAA@XZ ENDP ; std::basic_ostream<char,std::char_traits<char> >::sentry::~sentry
_TEXT	ENDS
; Function compile flags: /Odtp /RTCsu /ZI
; File C:\Program Files\Microsoft Visual Studio\2022\Community\VC\Tools\MSVC\14.31.31103\include\ostream
;	COMDAT ??0sentry@?$basic_ostream@DU?$char_traits@D@std@@@std@@QEAA@AEAV12@@Z
_TEXT	SEGMENT
_Tied$ = 8
this$ = 256
_Ostr$ = 264
??0sentry@?$basic_ostream@DU?$char_traits@D@std@@@std@@QEAA@AEAV12@@Z PROC ; std::basic_ostream<char,std::char_traits<char> >::sentry::sentry, COMDAT

; 91   :         explicit __CLR_OR_THIS_CALL sentry(basic_ostream& _Ostr) : _Sentry_base(_Ostr) {

$LN7:
	mov	QWORD PTR [rsp+16], rdx
	mov	QWORD PTR [rsp+8], rcx
	push	rbp
	push	rdi
	sub	rsp, 264				; 00000108H
	lea	rbp, QWORD PTR [rsp+32]
	lea	rcx, OFFSET FLAT:__033B95B1_ostream
	call	__CheckForDebuggerJustMyCode
	mov	rdx, QWORD PTR _Ostr$[rbp]
	mov	rcx, QWORD PTR this$[rbp]
	call	??0_Sentry_base@?$basic_ostream@DU?$char_traits@D@std@@@std@@QEAA@AEAV12@@Z ; std::basic_ostream<char,std::char_traits<char> >::_Sentry_base::_Sentry_base
	npad	1

; 92   :             if (!_Ostr.good()) {

	mov	rax, QWORD PTR _Ostr$[rbp]
	mov	rax, QWORD PTR [rax]
	movsxd	rax, DWORD PTR [rax+4]
	mov	rcx, QWORD PTR _Ostr$[rbp]
	add	rcx, rax
	mov	rax, rcx
	mov	rcx, rax
	call	QWORD PTR __imp_?good@ios_base@std@@QEBA_NXZ
	movzx	eax, al
	test	eax, eax
	jne	SHORT $LN2@sentry

; 93   :                 _Ok = false;

	mov	rax, QWORD PTR this$[rbp]
	mov	BYTE PTR [rax+8], 0

; 94   :                 return;

	jmp	$LN1@sentry
$LN2@sentry:

; 95   :             }
; 96   : 
; 97   :             const auto _Tied = _Ostr.tie();

	mov	rax, QWORD PTR _Ostr$[rbp]
	mov	rax, QWORD PTR [rax]
	movsxd	rax, DWORD PTR [rax+4]
	mov	rcx, QWORD PTR _Ostr$[rbp]
	add	rcx, rax
	mov	rax, rcx
	mov	rcx, rax
	call	QWORD PTR __imp_?tie@?$basic_ios@DU?$char_traits@D@std@@@std@@QEBAPEAV?$basic_ostream@DU?$char_traits@D@std@@@2@XZ
	mov	QWORD PTR _Tied$[rbp], rax

; 98   :             if (!_Tied || _Tied == &_Ostr) {

	cmp	QWORD PTR _Tied$[rbp], 0
	je	SHORT $LN4@sentry
	mov	rax, QWORD PTR _Ostr$[rbp]
	cmp	QWORD PTR _Tied$[rbp], rax
	jne	SHORT $LN3@sentry
$LN4@sentry:

; 99   :                 _Ok = true;

	mov	rax, QWORD PTR this$[rbp]
	mov	BYTE PTR [rax+8], 1

; 100  :                 return;

	jmp	SHORT $LN1@sentry
$LN3@sentry:

; 101  :             }
; 102  : 
; 103  :             _Tied->flush();

	mov	rcx, QWORD PTR _Tied$[rbp]
	call	QWORD PTR __imp_?flush@?$basic_ostream@DU?$char_traits@D@std@@@std@@QEAAAEAV12@XZ

; 104  :             _Ok = _Ostr.good(); // store test only after flushing tie

	mov	rax, QWORD PTR _Ostr$[rbp]
	mov	rax, QWORD PTR [rax]
	movsxd	rax, DWORD PTR [rax+4]
	mov	rcx, QWORD PTR _Ostr$[rbp]
	add	rcx, rax
	mov	rax, rcx
	mov	rcx, rax
	call	QWORD PTR __imp_?good@ios_base@std@@QEBA_NXZ
	mov	rcx, QWORD PTR this$[rbp]
	mov	BYTE PTR [rcx+8], al
$LN1@sentry:

; 105  :         }

	mov	rax, QWORD PTR this$[rbp]
	lea	rsp, QWORD PTR [rbp+232]
	pop	rdi
	pop	rbp
	ret	0
??0sentry@?$basic_ostream@DU?$char_traits@D@std@@@std@@QEAA@AEAV12@@Z ENDP ; std::basic_ostream<char,std::char_traits<char> >::sentry::sentry
_TEXT	ENDS
; Function compile flags: /Odtp /RTCsu /ZI
;	COMDAT text$x
text$x	SEGMENT
_Tied$ = 8
this$ = 256
_Ostr$ = 264
?dtor$0@?0???0sentry@?$basic_ostream@DU?$char_traits@D@std@@@std@@QEAA@AEAV12@@Z@4HA PROC ; `std::basic_ostream<char,std::char_traits<char> >::sentry::sentry'::`1'::dtor$0
	mov	QWORD PTR [rsp+8], rcx
	mov	QWORD PTR [rsp+16], rdx
	push	rbp
	push	rdi
	sub	rsp, 40					; 00000028H
	lea	rbp, QWORD PTR [rdx+32]
	mov	rcx, QWORD PTR this$[rbp]
	call	??1_Sentry_base@?$basic_ostream@DU?$char_traits@D@std@@@std@@QEAA@XZ ; std::basic_ostream<char,std::char_traits<char> >::_Sentry_base::~_Sentry_base
	add	rsp, 40					; 00000028H
	pop	rdi
	pop	rbp
	ret	0
?dtor$0@?0???0sentry@?$basic_ostream@DU?$char_traits@D@std@@@std@@QEAA@AEAV12@@Z@4HA ENDP ; `std::basic_ostream<char,std::char_traits<char> >::sentry::sentry'::`1'::dtor$0
text$x	ENDS
; Function compile flags: /Odtp /RTCsu /ZI
; File C:\Program Files\Microsoft Visual Studio\2022\Community\VC\Tools\MSVC\14.31.31103\include\ostream
;	COMDAT ??1_Sentry_base@?$basic_ostream@DU?$char_traits@D@std@@@std@@QEAA@XZ
_TEXT	SEGMENT
_Rdbuf$ = 8
tv72 = 216
this$ = 256
??1_Sentry_base@?$basic_ostream@DU?$char_traits@D@std@@@std@@QEAA@XZ PROC ; std::basic_ostream<char,std::char_traits<char> >::_Sentry_base::~_Sentry_base, COMDAT

; 77   :         __CLR_OR_THIS_CALL ~_Sentry_base() noexcept { // destroy after unlocking

$LN4:
	mov	QWORD PTR [rsp+8], rcx
	push	rbp
	push	rdi
	sub	rsp, 264				; 00000108H
	lea	rbp, QWORD PTR [rsp+32]
	lea	rcx, OFFSET FLAT:__033B95B1_ostream
	call	__CheckForDebuggerJustMyCode

; 78   :             const auto _Rdbuf = _Myostr.rdbuf();

	mov	rax, QWORD PTR this$[rbp]
	mov	rax, QWORD PTR [rax]
	mov	QWORD PTR tv72[rbp], rax
	mov	rax, QWORD PTR tv72[rbp]
	mov	rax, QWORD PTR [rax]
	movsxd	rax, DWORD PTR [rax+4]
	mov	rcx, QWORD PTR tv72[rbp]
	add	rcx, rax
	mov	rax, rcx
	mov	rcx, rax
	call	QWORD PTR __imp_?rdbuf@?$basic_ios@DU?$char_traits@D@std@@@std@@QEBAPEAV?$basic_streambuf@DU?$char_traits@D@std@@@2@XZ
	mov	QWORD PTR _Rdbuf$[rbp], rax

; 79   :             if (_Rdbuf) {

	cmp	QWORD PTR _Rdbuf$[rbp], 0
	je	SHORT $LN2@Sentry_bas

; 80   :                 _Rdbuf->_Unlock();

	mov	rax, QWORD PTR _Rdbuf$[rbp]
	mov	rax, QWORD PTR [rax]
	mov	rcx, QWORD PTR _Rdbuf$[rbp]
	call	QWORD PTR [rax+16]
	npad	1
$LN2@Sentry_bas:

; 81   :             }
; 82   :         }

	lea	rsp, QWORD PTR [rbp+232]
	pop	rdi
	pop	rbp
	ret	0
??1_Sentry_base@?$basic_ostream@DU?$char_traits@D@std@@@std@@QEAA@XZ ENDP ; std::basic_ostream<char,std::char_traits<char> >::_Sentry_base::~_Sentry_base
_TEXT	ENDS
; Function compile flags: /Odtp /RTCsu /ZI
; File C:\Program Files\Microsoft Visual Studio\2022\Community\VC\Tools\MSVC\14.31.31103\include\ostream
;	COMDAT ??0_Sentry_base@?$basic_ostream@DU?$char_traits@D@std@@@std@@QEAA@AEAV12@@Z
_TEXT	SEGMENT
_Rdbuf$ = 8
tv73 = 216
this$ = 256
_Ostr$ = 264
??0_Sentry_base@?$basic_ostream@DU?$char_traits@D@std@@@std@@QEAA@AEAV12@@Z PROC ; std::basic_ostream<char,std::char_traits<char> >::_Sentry_base::_Sentry_base, COMDAT

; 70   :         __CLR_OR_THIS_CALL _Sentry_base(basic_ostream& _Ostr) : _Myostr(_Ostr) { // lock the stream buffer, if there

$LN4:
	mov	QWORD PTR [rsp+16], rdx
	mov	QWORD PTR [rsp+8], rcx
	push	rbp
	push	rdi
	sub	rsp, 264				; 00000108H
	lea	rbp, QWORD PTR [rsp+32]
	lea	rcx, OFFSET FLAT:__033B95B1_ostream
	call	__CheckForDebuggerJustMyCode
	mov	rax, QWORD PTR this$[rbp]
	mov	rcx, QWORD PTR _Ostr$[rbp]
	mov	QWORD PTR [rax], rcx

; 71   :             const auto _Rdbuf = _Myostr.rdbuf();

	mov	rax, QWORD PTR this$[rbp]
	mov	rax, QWORD PTR [rax]
	mov	QWORD PTR tv73[rbp], rax
	mov	rax, QWORD PTR tv73[rbp]
	mov	rax, QWORD PTR [rax]
	movsxd	rax, DWORD PTR [rax+4]
	mov	rcx, QWORD PTR tv73[rbp]
	add	rcx, rax
	mov	rax, rcx
	mov	rcx, rax
	call	QWORD PTR __imp_?rdbuf@?$basic_ios@DU?$char_traits@D@std@@@std@@QEBAPEAV?$basic_streambuf@DU?$char_traits@D@std@@@2@XZ
	mov	QWORD PTR _Rdbuf$[rbp], rax

; 72   :             if (_Rdbuf) {

	cmp	QWORD PTR _Rdbuf$[rbp], 0
	je	SHORT $LN2@Sentry_bas

; 73   :                 _Rdbuf->_Lock();

	mov	rax, QWORD PTR _Rdbuf$[rbp]
	mov	rax, QWORD PTR [rax]
	mov	rcx, QWORD PTR _Rdbuf$[rbp]
	call	QWORD PTR [rax+8]
$LN2@Sentry_bas:

; 74   :             }
; 75   :         }

	mov	rax, QWORD PTR this$[rbp]
	lea	rsp, QWORD PTR [rbp+232]
	pop	rdi
	pop	rbp
	ret	0
??0_Sentry_base@?$basic_ostream@DU?$char_traits@D@std@@@std@@QEAA@AEAV12@@Z ENDP ; std::basic_ostream<char,std::char_traits<char> >::_Sentry_base::_Sentry_base
_TEXT	ENDS
; Function compile flags: /Odtp /RTCsu /ZI
; File C:\Program Files\Microsoft Visual Studio\2022\Community\VC\Tools\MSVC\14.31.31103\include\xmemory
;	COMDAT ??$_Alloc_proxy@V?$allocator@U_Container_proxy@std@@@std@@@_Container_base12@std@@QEAAX$$QEAV?$allocator@U_Container_proxy@std@@@1@@Z
_TEXT	SEGMENT
_New_proxy$ = 8
$T1 = 232
this$ = 288
_Al$ = 296
??$_Alloc_proxy@V?$allocator@U_Container_proxy@std@@@std@@@_Container_base12@std@@QEAAX$$QEAV?$allocator@U_Container_proxy@std@@@1@@Z PROC ; std::_Container_base12::_Alloc_proxy<std::allocator<std::_Container_proxy> >, COMDAT

; 1052 :     _CONSTEXPR20 void _Alloc_proxy(_Alloc&& _Al) {

$LN3:
	mov	QWORD PTR [rsp+16], rdx
	mov	QWORD PTR [rsp+8], rcx
	push	rbp
	push	rdi
	sub	rsp, 296				; 00000128H
	lea	rbp, QWORD PTR [rsp+32]
	lea	rcx, OFFSET FLAT:__BBC6BDD8_xmemory
	call	__CheckForDebuggerJustMyCode

; 1053 :         _Container_proxy* const _New_proxy = _Unfancy(_Al.allocate(1));

	mov	edx, 1
	mov	rcx, QWORD PTR _Al$[rbp]
	call	?allocate@?$allocator@U_Container_proxy@std@@@std@@QEAAPEAU_Container_proxy@2@_K@Z ; std::allocator<std::_Container_proxy>::allocate
	mov	rcx, rax
	call	??$_Unfancy@U_Container_proxy@std@@@std@@YAPEAU_Container_proxy@0@PEAU10@@Z ; std::_Unfancy<std::_Container_proxy>
	mov	QWORD PTR _New_proxy$[rbp], rax

; 1054 :         _Construct_in_place(*_New_proxy, this);

	mov	rax, QWORD PTR this$[rbp]
	mov	QWORD PTR $T1[rbp], rax
	lea	rdx, QWORD PTR $T1[rbp]
	mov	rcx, QWORD PTR _New_proxy$[rbp]
	call	??$_Construct_in_place@U_Container_proxy@std@@PEAU_Container_base12@2@@std@@YAXAEAU_Container_proxy@0@$$QEAPEAU_Container_base12@0@@Z ; std::_Construct_in_place<std::_Container_proxy,std::_Container_base12 *>

; 1055 :         _Myproxy            = _New_proxy;

	mov	rax, QWORD PTR this$[rbp]
	mov	rcx, QWORD PTR _New_proxy$[rbp]
	mov	QWORD PTR [rax], rcx

; 1056 :         _New_proxy->_Mycont = this;

	mov	rax, QWORD PTR _New_proxy$[rbp]
	mov	rcx, QWORD PTR this$[rbp]
	mov	QWORD PTR [rax], rcx

; 1057 :     }

	lea	rsp, QWORD PTR [rbp+264]
	pop	rdi
	pop	rbp
	ret	0
??$_Alloc_proxy@V?$allocator@U_Container_proxy@std@@@std@@@_Container_base12@std@@QEAAX$$QEAV?$allocator@U_Container_proxy@std@@@1@@Z ENDP ; std::_Container_base12::_Alloc_proxy<std::allocator<std::_Container_proxy> >
_TEXT	ENDS
; Function compile flags: /Odtp /RTCsu /ZI
; File C:\Program Files\Microsoft Visual Studio\2022\Community\VC\Tools\MSVC\14.31.31103\include\xmemory
;	COMDAT ??$?0$$V@?$_Compressed_pair@V?$allocator@H@std@@V?$_Vector_val@U?$_Simple_types@H@std@@@2@$00@std@@QEAA@U_Zero_then_variadic_args_t@1@@Z
_TEXT	SEGMENT
this$ = 224
__formal$ = 232
??$?0$$V@?$_Compressed_pair@V?$allocator@H@std@@V?$_Vector_val@U?$_Simple_types@H@std@@@2@$00@std@@QEAA@U_Zero_then_variadic_args_t@1@@Z PROC ; std::_Compressed_pair<std::allocator<int>,std::_Vector_val<std::_Simple_types<int> >,1>::_Compressed_pair<std::allocator<int>,std::_Vector_val<std::_Simple_types<int> >,1><>, COMDAT

; 1366 :         : _Ty1(), _Myval2(_STD forward<_Other2>(_Val2)...) {}

$LN3:
	mov	BYTE PTR [rsp+16], dl
	mov	QWORD PTR [rsp+8], rcx
	push	rbp
	push	rdi
	sub	rsp, 232				; 000000e8H
	lea	rbp, QWORD PTR [rsp+32]
	lea	rcx, OFFSET FLAT:__BBC6BDD8_xmemory
	call	__CheckForDebuggerJustMyCode
	mov	rcx, QWORD PTR this$[rbp]
	call	??0?$allocator@H@std@@QEAA@XZ		; std::allocator<int>::allocator<int>
	mov	rax, QWORD PTR this$[rbp]
	mov	rcx, rax
	call	??0?$_Vector_val@U?$_Simple_types@H@std@@@std@@QEAA@XZ ; std::_Vector_val<std::_Simple_types<int> >::_Vector_val<std::_Simple_types<int> >
	mov	rax, QWORD PTR this$[rbp]
	lea	rsp, QWORD PTR [rbp+200]
	pop	rdi
	pop	rbp
	ret	0
??$?0$$V@?$_Compressed_pair@V?$allocator@H@std@@V?$_Vector_val@U?$_Simple_types@H@std@@@2@$00@std@@QEAA@U_Zero_then_variadic_args_t@1@@Z ENDP ; std::_Compressed_pair<std::allocator<int>,std::_Vector_val<std::_Simple_types<int> >,1>::_Compressed_pair<std::allocator<int>,std::_Vector_val<std::_Simple_types<int> >,1><>
_TEXT	ENDS
; Function compile flags: /Odtp /RTCsu /ZI
; File C:\Program Files\Microsoft Visual Studio\2022\Community\VC\Tools\MSVC\14.31.31103\include\xmemory
;	COMDAT ??$_Delete_plain_internal@V?$allocator@U_Container_proxy@std@@@std@@@std@@YAXAEAV?$allocator@U_Container_proxy@std@@@0@QEAU_Container_proxy@0@@Z
_TEXT	SEGMENT
_Al$ = 224
_Ptr$ = 232
??$_Delete_plain_internal@V?$allocator@U_Container_proxy@std@@@std@@@std@@YAXAEAV?$allocator@U_Container_proxy@std@@@0@QEAU_Container_proxy@0@@Z PROC ; std::_Delete_plain_internal<std::allocator<std::_Container_proxy> >, COMDAT

; 980  : _CONSTEXPR20 void _Delete_plain_internal(_Alloc& _Al, typename _Alloc::value_type* const _Ptr) noexcept {

$LN3:
	mov	QWORD PTR [rsp+16], rdx
	mov	QWORD PTR [rsp+8], rcx
	push	rbp
	push	rdi
	sub	rsp, 232				; 000000e8H
	lea	rbp, QWORD PTR [rsp+32]
	lea	rcx, OFFSET FLAT:__BBC6BDD8_xmemory
	call	__CheckForDebuggerJustMyCode

; 981  :     // destroy *_Ptr in place, then deallocate _Ptr using _Al; used for internal container types the user didn't name
; 982  :     using _Ty = typename _Alloc::value_type;
; 983  :     _Ptr->~_Ty();
; 984  :     _Deallocate_plain(_Al, _Ptr);

	mov	rdx, QWORD PTR _Ptr$[rbp]
	mov	rcx, QWORD PTR _Al$[rbp]
	call	??$_Deallocate_plain@V?$allocator@U_Container_proxy@std@@@std@@@std@@YAXAEAV?$allocator@U_Container_proxy@std@@@0@QEAU_Container_proxy@0@@Z ; std::_Deallocate_plain<std::allocator<std::_Container_proxy> >

; 985  : }

	lea	rsp, QWORD PTR [rbp+200]
	pop	rdi
	pop	rbp
	ret	0
??$_Delete_plain_internal@V?$allocator@U_Container_proxy@std@@@std@@@std@@YAXAEAV?$allocator@U_Container_proxy@std@@@0@QEAU_Container_proxy@0@@Z ENDP ; std::_Delete_plain_internal<std::allocator<std::_Container_proxy> >
_TEXT	ENDS
; Function compile flags: /Odtp /RTCsu /ZI
; File C:\Program Files\Microsoft Visual Studio\2022\Community\VC\Tools\MSVC\14.31.31103\include\utility
;	COMDAT ??$exchange@PEAU_Container_proxy@std@@$$T@std@@YAPEAU_Container_proxy@0@AEAPEAU10@$$QEA$$T@Z
_TEXT	SEGMENT
_Old_val$ = 8
_Val$ = 256
_New_val$ = 264
??$exchange@PEAU_Container_proxy@std@@$$T@std@@YAPEAU_Container_proxy@0@AEAPEAU10@$$QEA$$T@Z PROC ; std::exchange<std::_Container_proxy *,std::nullptr_t>, COMDAT

; 605  :     conjunction_v<is_nothrow_move_constructible<_Ty>, is_nothrow_assignable<_Ty&, _Other>>) {

$LN3:
	mov	QWORD PTR [rsp+16], rdx
	mov	QWORD PTR [rsp+8], rcx
	push	rbp
	push	rdi
	sub	rsp, 264				; 00000108H
	lea	rbp, QWORD PTR [rsp+32]
	lea	rcx, OFFSET FLAT:__D153DE1B_utility
	call	__CheckForDebuggerJustMyCode

; 606  :     // assign _New_val to _Val, return previous _Val
; 607  :     _Ty _Old_val = static_cast<_Ty&&>(_Val);

	mov	rax, QWORD PTR _Val$[rbp]
	mov	rax, QWORD PTR [rax]
	mov	QWORD PTR _Old_val$[rbp], rax

; 608  :     _Val         = static_cast<_Other&&>(_New_val);

	mov	rax, QWORD PTR _Val$[rbp]
	mov	rcx, QWORD PTR _New_val$[rbp]
	mov	rcx, QWORD PTR [rcx]
	mov	QWORD PTR [rax], rcx

; 609  :     return _Old_val;

	mov	rax, QWORD PTR _Old_val$[rbp]

; 610  : }

	lea	rsp, QWORD PTR [rbp+232]
	pop	rdi
	pop	rbp
	ret	0
??$exchange@PEAU_Container_proxy@std@@$$T@std@@YAPEAU_Container_proxy@0@AEAPEAU10@$$QEA$$T@Z ENDP ; std::exchange<std::_Container_proxy *,std::nullptr_t>
_TEXT	ENDS
; Function compile flags: /Odtp /RTCsu /ZI
; File C:\Program Files\Microsoft Visual Studio\2022\Community\VC\Tools\MSVC\14.31.31103\include\xmemory
;	COMDAT ??$?0H@?$allocator@U_Container_proxy@std@@@std@@QEAA@AEBV?$allocator@H@1@@Z
_TEXT	SEGMENT
this$ = 224
__formal$ = 232
??$?0H@?$allocator@U_Container_proxy@std@@@std@@QEAA@AEBV?$allocator@H@1@@Z PROC ; std::allocator<std::_Container_proxy>::allocator<std::_Container_proxy><int>, COMDAT

; 821  :     constexpr allocator(const allocator<_Other>&) noexcept {}

$LN3:
	mov	QWORD PTR [rsp+16], rdx
	mov	QWORD PTR [rsp+8], rcx
	push	rbp
	push	rdi
	sub	rsp, 232				; 000000e8H
	lea	rbp, QWORD PTR [rsp+32]
	lea	rcx, OFFSET FLAT:__BBC6BDD8_xmemory
	call	__CheckForDebuggerJustMyCode
	mov	rax, QWORD PTR this$[rbp]
	lea	rsp, QWORD PTR [rbp+200]
	pop	rdi
	pop	rbp
	ret	0
??$?0H@?$allocator@U_Container_proxy@std@@@std@@QEAA@AEBV?$allocator@H@1@@Z ENDP ; std::allocator<std::_Container_proxy>::allocator<std::_Container_proxy><int>
_TEXT	ENDS
; Function compile flags: /Odtp /RTCsu /ZI
; File C:\Program Files\Microsoft Visual Studio\2022\Community\VC\Tools\MSVC\14.31.31103\include\xmemory
;	COMDAT ?allocate@?$allocator@U_Container_proxy@std@@@std@@QEAAPEAU_Container_proxy@2@_K@Z
_TEXT	SEGMENT
this$ = 224
_Count$ = 232
?allocate@?$allocator@U_Container_proxy@std@@@std@@QEAAPEAU_Container_proxy@2@_K@Z PROC ; std::allocator<std::_Container_proxy>::allocate, COMDAT

; 830  :     _NODISCARD _CONSTEXPR20 __declspec(allocator) _Ty* allocate(_CRT_GUARDOVERFLOW const size_t _Count) {

$LN3:
	mov	QWORD PTR [rsp+16], rdx
	mov	QWORD PTR [rsp+8], rcx
	push	rbp
	push	rdi
	sub	rsp, 232				; 000000e8H
	lea	rbp, QWORD PTR [rsp+32]
	lea	rcx, OFFSET FLAT:__BBC6BDD8_xmemory
	call	__CheckForDebuggerJustMyCode

; 831  :         return static_cast<_Ty*>(_Allocate<_New_alignof<_Ty>>(_Get_size_of_n<sizeof(_Ty)>(_Count)));

	mov	rcx, QWORD PTR _Count$[rbp]
	call	??$_Get_size_of_n@$0BA@@std@@YA_K_K@Z	; std::_Get_size_of_n<16>
	mov	rcx, rax
	call	??$_Allocate@$0BA@U_Default_allocate_traits@std@@$0A@@std@@YAPEAX_K@Z ; std::_Allocate<16,std::_Default_allocate_traits,0>

; 832  :     }

	lea	rsp, QWORD PTR [rbp+200]
	pop	rdi
	pop	rbp
	ret	0
?allocate@?$allocator@U_Container_proxy@std@@@std@@QEAAPEAU_Container_proxy@2@_K@Z ENDP ; std::allocator<std::_Container_proxy>::allocate
_TEXT	ENDS
; Function compile flags: /Odtp /RTCsu /ZI
; File C:\Program Files\Microsoft Visual Studio\2022\Community\VC\Tools\MSVC\14.31.31103\include\xmemory
;	COMDAT ?deallocate@?$allocator@U_Container_proxy@std@@@std@@QEAAXQEAU_Container_proxy@2@_K@Z
_TEXT	SEGMENT
this$ = 224
_Ptr$ = 232
_Count$ = 240
?deallocate@?$allocator@U_Container_proxy@std@@@std@@QEAAXQEAU_Container_proxy@2@_K@Z PROC ; std::allocator<std::_Container_proxy>::deallocate, COMDAT

; 825  :     _CONSTEXPR20 void deallocate(_Ty* const _Ptr, const size_t _Count) {

$LN3:
	mov	QWORD PTR [rsp+24], r8
	mov	QWORD PTR [rsp+16], rdx
	mov	QWORD PTR [rsp+8], rcx
	push	rbp
	push	rdi
	sub	rsp, 232				; 000000e8H
	lea	rbp, QWORD PTR [rsp+32]
	lea	rcx, OFFSET FLAT:__BBC6BDD8_xmemory
	call	__CheckForDebuggerJustMyCode

; 826  :         // no overflow check on the following multiply; we assume _Allocate did that check
; 827  :         _Deallocate<_New_alignof<_Ty>>(_Ptr, sizeof(_Ty) * _Count);

	imul	rax, QWORD PTR _Count$[rbp], 16
	mov	rdx, rax
	mov	rcx, QWORD PTR _Ptr$[rbp]
	call	??$_Deallocate@$0BA@$0A@@std@@YAXPEAX_K@Z ; std::_Deallocate<16,0>

; 828  :     }

	lea	rsp, QWORD PTR [rbp+200]
	pop	rdi
	pop	rbp
	ret	0
?deallocate@?$allocator@U_Container_proxy@std@@@std@@QEAAXQEAU_Container_proxy@2@_K@Z ENDP ; std::allocator<std::_Container_proxy>::deallocate
_TEXT	ENDS
; Function compile flags: /Odtp /RTCsu /ZI
; File C:\Program Files\Microsoft Visual Studio\2022\Community\VC\Tools\MSVC\14.31.31103\include\vector
;	COMDAT ??$_Emplace_reallocate@H@?$vector@HV?$allocator@H@std@@@std@@QEAAPEAHQEAH$$QEAH@Z
_TEXT	SEGMENT
_Al$ = 8
_My_data$ = 40
_Myfirst$ = 72
_Mylast$ = 104
_Whereoff$ = 136
_Oldsize$ = 168
_Newsize$ = 200
_Newcapacity$ = 232
_Newvec$ = 264
_Constructed_last$ = 296
_Constructed_first$ = 328
tv134 = 536
tv132 = 544
this$ = 592
_Whereptr$ = 600
<_Val_0>$ = 608
??$_Emplace_reallocate@H@?$vector@HV?$allocator@H@std@@@std@@QEAAPEAHQEAH$$QEAH@Z PROC ; std::vector<int,std::allocator<int> >::_Emplace_reallocate<int>, COMDAT

; 646  :     _CONSTEXPR20 pointer _Emplace_reallocate(const pointer _Whereptr, _Valty&&... _Val) {

$LN13:
	mov	QWORD PTR [rsp+24], r8
	mov	QWORD PTR [rsp+16], rdx
	mov	QWORD PTR [rsp+8], rcx
	push	rbp
	push	rdi
	sub	rsp, 600				; 00000258H
	lea	rbp, QWORD PTR [rsp+32]
	lea	rcx, OFFSET FLAT:__F11C365E_vector
	call	__CheckForDebuggerJustMyCode

; 647  :         // reallocate and insert by perfectly forwarding _Val at _Whereptr
; 648  :         _Alty& _Al        = _Getal();

	mov	rcx, QWORD PTR this$[rbp]
	call	?_Getal@?$vector@HV?$allocator@H@std@@@std@@AEAAAEAV?$allocator@H@2@XZ ; std::vector<int,std::allocator<int> >::_Getal
	mov	QWORD PTR _Al$[rbp], rax

; 649  :         auto& _My_data    = _Mypair._Myval2;

	mov	rax, QWORD PTR this$[rbp]
	mov	QWORD PTR _My_data$[rbp], rax

; 650  :         pointer& _Myfirst = _My_data._Myfirst;

	mov	rax, QWORD PTR _My_data$[rbp]
	add	rax, 8
	mov	QWORD PTR _Myfirst$[rbp], rax

; 651  :         pointer& _Mylast  = _My_data._Mylast;

	mov	rax, QWORD PTR _My_data$[rbp]
	add	rax, 16
	mov	QWORD PTR _Mylast$[rbp], rax

; 652  : 
; 653  :         _STL_INTERNAL_CHECK(_Mylast == _My_data._Myend); // check that we have no unused capacity
; 654  : 
; 655  :         const auto _Whereoff = static_cast<size_type>(_Whereptr - _Myfirst);

	mov	rax, QWORD PTR _Myfirst$[rbp]
	mov	rax, QWORD PTR [rax]
	mov	rcx, QWORD PTR _Whereptr$[rbp]
	sub	rcx, rax
	mov	rax, rcx
	sar	rax, 2
	mov	QWORD PTR _Whereoff$[rbp], rax

; 656  :         const auto _Oldsize  = static_cast<size_type>(_Mylast - _Myfirst);

	mov	rax, QWORD PTR _Mylast$[rbp]
	mov	rcx, QWORD PTR _Myfirst$[rbp]
	mov	rcx, QWORD PTR [rcx]
	mov	rax, QWORD PTR [rax]
	sub	rax, rcx
	sar	rax, 2
	mov	QWORD PTR _Oldsize$[rbp], rax

; 657  : 
; 658  :         if (_Oldsize == max_size()) {

	mov	rcx, QWORD PTR this$[rbp]
	call	?max_size@?$vector@HV?$allocator@H@std@@@std@@QEBA_KXZ ; std::vector<int,std::allocator<int> >::max_size
	cmp	QWORD PTR _Oldsize$[rbp], rax
	jne	SHORT $LN2@Emplace_re

; 659  :             _Xlength();

	call	?_Xlength@?$vector@HV?$allocator@H@std@@@std@@CAXXZ ; std::vector<int,std::allocator<int> >::_Xlength
$LN2@Emplace_re:

; 660  :         }
; 661  : 
; 662  :         const size_type _Newsize     = _Oldsize + 1;

	mov	rax, QWORD PTR _Oldsize$[rbp]
	inc	rax
	mov	QWORD PTR _Newsize$[rbp], rax

; 663  :         const size_type _Newcapacity = _Calculate_growth(_Newsize);

	mov	rdx, QWORD PTR _Newsize$[rbp]
	mov	rcx, QWORD PTR this$[rbp]
	call	?_Calculate_growth@?$vector@HV?$allocator@H@std@@@std@@AEBA_K_K@Z ; std::vector<int,std::allocator<int> >::_Calculate_growth
	mov	QWORD PTR _Newcapacity$[rbp], rax

; 664  : 
; 665  :         const pointer _Newvec           = _Al.allocate(_Newcapacity);

	mov	rdx, QWORD PTR _Newcapacity$[rbp]
	mov	rcx, QWORD PTR _Al$[rbp]
	call	?allocate@?$allocator@H@std@@QEAAPEAH_K@Z ; std::allocator<int>::allocate
	mov	QWORD PTR _Newvec$[rbp], rax

; 666  :         const pointer _Constructed_last = _Newvec + _Whereoff + 1;

	mov	rax, QWORD PTR _Newvec$[rbp]
	mov	rcx, QWORD PTR _Whereoff$[rbp]
	lea	rax, QWORD PTR [rax+rcx*4+4]
	mov	QWORD PTR _Constructed_last$[rbp], rax

; 667  :         pointer _Constructed_first      = _Constructed_last;

	mov	rax, QWORD PTR _Constructed_last$[rbp]
	mov	QWORD PTR _Constructed_first$[rbp], rax

; 668  : 
; 669  :         _TRY_BEGIN
; 670  :         _Alty_traits::construct(_Al, _Unfancy(_Newvec + _Whereoff), _STD forward<_Valty>(_Val)...);

	mov	rcx, QWORD PTR <_Val_0>$[rbp]
	call	??$forward@H@std@@YA$$QEAHAEAH@Z	; std::forward<int>
	mov	QWORD PTR tv134[rbp], rax
	mov	rax, QWORD PTR _Newvec$[rbp]
	mov	rcx, QWORD PTR _Whereoff$[rbp]
	lea	rax, QWORD PTR [rax+rcx*4]
	mov	rcx, rax
	call	??$_Unfancy@H@std@@YAPEAHPEAH@Z		; std::_Unfancy<int>
	mov	QWORD PTR tv132[rbp], rax
	mov	r8, QWORD PTR tv134[rbp]
	mov	rdx, QWORD PTR tv132[rbp]
	mov	rcx, QWORD PTR _Al$[rbp]
	call	??$construct@HH@?$_Default_allocator_traits@V?$allocator@H@std@@@std@@SAXAEAV?$allocator@H@1@QEAH$$QEAH@Z ; std::_Default_allocator_traits<std::allocator<int> >::construct<int,int>

; 671  :         _Constructed_first = _Newvec + _Whereoff;

	mov	rax, QWORD PTR _Newvec$[rbp]
	mov	rcx, QWORD PTR _Whereoff$[rbp]
	lea	rax, QWORD PTR [rax+rcx*4]
	mov	QWORD PTR _Constructed_first$[rbp], rax

; 672  : 
; 673  :         if (_Whereptr == _Mylast) { // at back, provide strong guarantee

	mov	rax, QWORD PTR _Mylast$[rbp]
	mov	rax, QWORD PTR [rax]
	cmp	QWORD PTR _Whereptr$[rbp], rax
	jne	SHORT $LN4@Emplace_re

; 674  :             if constexpr (is_nothrow_move_constructible_v<_Ty> || !is_copy_constructible_v<_Ty>) {
; 675  :                 _Uninitialized_move(_Myfirst, _Mylast, _Newvec, _Al);

	mov	r9, QWORD PTR _Al$[rbp]
	mov	r8, QWORD PTR _Newvec$[rbp]
	mov	rax, QWORD PTR _Mylast$[rbp]
	mov	rdx, QWORD PTR [rax]
	mov	rax, QWORD PTR _Myfirst$[rbp]
	mov	rcx, QWORD PTR [rax]
	call	??$_Uninitialized_move@PEAHV?$allocator@H@std@@@std@@YAPEAHQEAH0PEAHAEAV?$allocator@H@0@@Z ; std::_Uninitialized_move<int *,std::allocator<int> >

; 676  :             } else {
; 677  :                 _Uninitialized_copy(_Myfirst, _Mylast, _Newvec, _Al);
; 678  :             }
; 679  :         } else { // provide basic guarantee

	jmp	SHORT $LN5@Emplace_re
$LN4@Emplace_re:

; 680  :             _Uninitialized_move(_Myfirst, _Whereptr, _Newvec, _Al);

	mov	r9, QWORD PTR _Al$[rbp]
	mov	r8, QWORD PTR _Newvec$[rbp]
	mov	rdx, QWORD PTR _Whereptr$[rbp]
	mov	rax, QWORD PTR _Myfirst$[rbp]
	mov	rcx, QWORD PTR [rax]
	call	??$_Uninitialized_move@PEAHV?$allocator@H@std@@@std@@YAPEAHQEAH0PEAHAEAV?$allocator@H@0@@Z ; std::_Uninitialized_move<int *,std::allocator<int> >

; 681  :             _Constructed_first = _Newvec;

	mov	rax, QWORD PTR _Newvec$[rbp]
	mov	QWORD PTR _Constructed_first$[rbp], rax

; 682  :             _Uninitialized_move(_Whereptr, _Mylast, _Newvec + _Whereoff + 1, _Al);

	mov	rax, QWORD PTR _Newvec$[rbp]
	mov	rcx, QWORD PTR _Whereoff$[rbp]
	lea	rax, QWORD PTR [rax+rcx*4+4]
	mov	r9, QWORD PTR _Al$[rbp]
	mov	r8, rax
	mov	rax, QWORD PTR _Mylast$[rbp]
	mov	rdx, QWORD PTR [rax]
	mov	rcx, QWORD PTR _Whereptr$[rbp]
	call	??$_Uninitialized_move@PEAHV?$allocator@H@std@@@std@@YAPEAHQEAH0PEAHAEAV?$allocator@H@0@@Z ; std::_Uninitialized_move<int *,std::allocator<int> >
	npad	1
$LN5@Emplace_re:
	jmp	SHORT $LN9@Emplace_re
$LN10@Emplace_re:
$LN9@Emplace_re:

; 683  :         }
; 684  :         _CATCH_ALL
; 685  :         _Destroy_range(_Constructed_first, _Constructed_last, _Al);
; 686  :         _Al.deallocate(_Newvec, _Newcapacity);
; 687  :         _RERAISE;
; 688  :         _CATCH_END
; 689  : 
; 690  :         _Change_array(_Newvec, _Newsize, _Newcapacity);

	mov	r9, QWORD PTR _Newcapacity$[rbp]
	mov	r8, QWORD PTR _Newsize$[rbp]
	mov	rdx, QWORD PTR _Newvec$[rbp]
	mov	rcx, QWORD PTR this$[rbp]
	call	?_Change_array@?$vector@HV?$allocator@H@std@@@std@@AEAAXQEAH_K1@Z ; std::vector<int,std::allocator<int> >::_Change_array

; 691  :         return _Newvec + _Whereoff;

	mov	rax, QWORD PTR _Newvec$[rbp]
	mov	rcx, QWORD PTR _Whereoff$[rbp]
	lea	rax, QWORD PTR [rax+rcx*4]

; 692  :     }

	lea	rsp, QWORD PTR [rbp+568]
	pop	rdi
	pop	rbp
	ret	0
$LN11@Emplace_re:
??$_Emplace_reallocate@H@?$vector@HV?$allocator@H@std@@@std@@QEAAPEAHQEAH$$QEAH@Z ENDP ; std::vector<int,std::allocator<int> >::_Emplace_reallocate<int>
_TEXT	ENDS
; Function compile flags: /Odtp /RTCsu /ZI
;	COMDAT text$x
text$x	SEGMENT
_Al$ = 8
_My_data$ = 40
_Myfirst$ = 72
_Mylast$ = 104
_Whereoff$ = 136
_Oldsize$ = 168
_Newsize$ = 200
_Newcapacity$ = 232
_Newvec$ = 264
_Constructed_last$ = 296
_Constructed_first$ = 328
tv134 = 536
tv132 = 544
this$ = 592
_Whereptr$ = 600
<_Val_0>$ = 608
?catch$0@?0???$_Emplace_reallocate@H@?$vector@HV?$allocator@H@std@@@std@@QEAAPEAHQEAH$$QEAH@Z@4HA PROC ; `std::vector<int,std::allocator<int> >::_Emplace_reallocate<int>'::`1'::catch$0

; 684  :         _CATCH_ALL

	mov	QWORD PTR [rsp+8], rcx
	mov	QWORD PTR [rsp+16], rdx
	push	rbp
	push	rdi
	sub	rsp, 40					; 00000028H
	lea	rbp, QWORD PTR [rdx+32]
__catch$??$_Emplace_reallocate@H@?$vector@HV?$allocator@H@std@@@std@@QEAAPEAHQEAH$$QEAH@Z$0:

; 685  :         _Destroy_range(_Constructed_first, _Constructed_last, _Al);

	mov	r8, QWORD PTR _Al$[rbp]
	mov	rdx, QWORD PTR _Constructed_last$[rbp]
	mov	rcx, QWORD PTR _Constructed_first$[rbp]
	call	??$_Destroy_range@V?$allocator@H@std@@@std@@YAXPEAHQEAHAEAV?$allocator@H@0@@Z ; std::_Destroy_range<std::allocator<int> >

; 686  :         _Al.deallocate(_Newvec, _Newcapacity);

	mov	r8, QWORD PTR _Newcapacity$[rbp]
	mov	rdx, QWORD PTR _Newvec$[rbp]
	mov	rcx, QWORD PTR _Al$[rbp]
	call	?deallocate@?$allocator@H@std@@QEAAXQEAH_K@Z ; std::allocator<int>::deallocate

; 687  :         _RERAISE;

	xor	edx, edx
	xor	ecx, ecx
	call	_CxxThrowException
	npad	1

; 688  :         _CATCH_END

	lea	rax, $LN10@catch$0
	add	rsp, 40					; 00000028H
	pop	rdi
	pop	rbp
	ret	0
	int	3
?catch$0@?0???$_Emplace_reallocate@H@?$vector@HV?$allocator@H@std@@@std@@QEAAPEAHQEAH$$QEAH@Z@4HA ENDP ; `std::vector<int,std::allocator<int> >::_Emplace_reallocate<int>'::`1'::catch$0
text$x	ENDS
; Function compile flags: /Odtp /RTCsu /ZI
; File C:\Program Files\Microsoft Visual Studio\2022\Community\VC\Tools\MSVC\14.31.31103\include\xmemory
;	COMDAT ??$construct@HH@?$_Default_allocator_traits@V?$allocator@H@std@@@std@@SAXAEAV?$allocator@H@1@QEAH$$QEAH@Z
_TEXT	SEGMENT
$T1 = 200
__formal$ = 256
_Ptr$ = 264
<_Args_0>$ = 272
??$construct@HH@?$_Default_allocator_traits@V?$allocator@H@std@@@std@@SAXAEAV?$allocator@H@1@QEAH$$QEAH@Z PROC ; std::_Default_allocator_traits<std::allocator<int> >::construct<int,int>, COMDAT

; 673  :     static _CONSTEXPR20 void construct(_Alloc&, _Objty* const _Ptr, _Types&&... _Args) {

$LN5:
	mov	QWORD PTR [rsp+24], r8
	mov	QWORD PTR [rsp+16], rdx
	mov	QWORD PTR [rsp+8], rcx
	push	rbp
	push	rdi
	sub	rsp, 264				; 00000108H
	lea	rbp, QWORD PTR [rsp+32]
	lea	rcx, OFFSET FLAT:__BBC6BDD8_xmemory
	call	__CheckForDebuggerJustMyCode

; 674  : #if _HAS_CXX20
; 675  :         if (_STD is_constant_evaluated()) {

	call	?is_constant_evaluated@std@@YA_NXZ	; std::is_constant_evaluated
	movzx	eax, al
	test	eax, eax
	je	SHORT $LN2@construct

; 676  :             _STD construct_at(_Ptr, _STD forward<_Types>(_Args)...);

	mov	rcx, QWORD PTR <_Args_0>$[rbp]
	call	??$forward@H@std@@YA$$QEAHAEAH@Z	; std::forward<int>
	mov	rdx, rax
	mov	rcx, QWORD PTR _Ptr$[rbp]
	call	??$construct_at@HHX@std@@YAPEAHQEAH$$QEAH@Z ; std::construct_at<int,int,void>

; 677  :         } else

	jmp	SHORT $LN3@construct
$LN2@construct:

; 673  :     static _CONSTEXPR20 void construct(_Alloc&, _Objty* const _Ptr, _Types&&... _Args) {

	mov	rcx, QWORD PTR _Ptr$[rbp]
	call	??$_Voidify_iter@PEAH@std@@YAPEAXPEAH@Z	; std::_Voidify_iter<int *>
	mov	rdx, rax
	mov	ecx, 4
	call	??2@YAPEAX_KPEAX@Z			; operator new
	mov	QWORD PTR $T1[rbp], rax
	mov	rcx, QWORD PTR <_Args_0>$[rbp]
	call	??$forward@H@std@@YA$$QEAHAEAH@Z	; std::forward<int>
	mov	rcx, QWORD PTR $T1[rbp]
	mov	eax, DWORD PTR [rax]
	mov	DWORD PTR [rcx], eax
$LN3@construct:

; 678  : #endif // _HAS_CXX20
; 679  :         {
; 680  :             ::new (_Voidify_iter(_Ptr)) _Objty(_STD forward<_Types>(_Args)...);
; 681  :         }
; 682  :     }

	lea	rsp, QWORD PTR [rbp+232]
	pop	rdi
	pop	rbp
	ret	0
??$construct@HH@?$_Default_allocator_traits@V?$allocator@H@std@@@std@@SAXAEAV?$allocator@H@1@QEAH$$QEAH@Z ENDP ; std::_Default_allocator_traits<std::allocator<int> >::construct<int,int>
_TEXT	ENDS
; Function compile flags: /Odtp /RTCsu /ZI
; File C:\Program Files\Microsoft Visual Studio\2022\Community\VC\Tools\MSVC\14.31.31103\include\xstddef
;	COMDAT ??$_Unfancy@H@std@@YAPEAHPEAH@Z
_TEXT	SEGMENT
_Ptr$ = 224
??$_Unfancy@H@std@@YAPEAHPEAH@Z PROC			; std::_Unfancy<int>, COMDAT

; 265  : _NODISCARD constexpr _Ty* _Unfancy(_Ty* _Ptr) noexcept { // do nothing for plain pointers

$LN3:
	mov	QWORD PTR [rsp+8], rcx
	push	rbp
	push	rdi
	sub	rsp, 232				; 000000e8H
	lea	rbp, QWORD PTR [rsp+32]
	lea	rcx, OFFSET FLAT:__264C4909_xstddef
	call	__CheckForDebuggerJustMyCode

; 266  :     return _Ptr;

	mov	rax, QWORD PTR _Ptr$[rbp]

; 267  : }

	lea	rsp, QWORD PTR [rbp+200]
	pop	rdi
	pop	rbp
	ret	0
??$_Unfancy@H@std@@YAPEAHPEAH@Z ENDP			; std::_Unfancy<int>
_TEXT	ENDS
; Function compile flags: /Odtp /RTCsu /ZI
; File C:\Program Files\Microsoft Visual Studio\2022\Community\VC\Tools\MSVC\14.31.31103\include\vector
;	COMDAT ??$_Emplace_back_with_unused_capacity@H@?$vector@HV?$allocator@H@std@@@std@@AEAA?A_T$$QEAH@Z
_TEXT	SEGMENT
_My_data$ = 8
_Mylast$ = 40
_Result$ = 72
tv81 = 280
tv79 = 288
tv77 = 296
this$ = 336
<_Val_0>$ = 344
??$_Emplace_back_with_unused_capacity@H@?$vector@HV?$allocator@H@std@@@std@@AEAA?A_T$$QEAH@Z PROC ; std::vector<int,std::allocator<int> >::_Emplace_back_with_unused_capacity<int>, COMDAT

; 602  :     _CONSTEXPR20 decltype(auto) _Emplace_back_with_unused_capacity(_Valty&&... _Val) {

$LN3:
	mov	QWORD PTR [rsp+16], rdx
	mov	QWORD PTR [rsp+8], rcx
	push	rbp
	push	rdi
	sub	rsp, 344				; 00000158H
	lea	rbp, QWORD PTR [rsp+32]
	lea	rcx, OFFSET FLAT:__F11C365E_vector
	call	__CheckForDebuggerJustMyCode

; 603  :         // insert by perfectly forwarding into element at end, provide strong guarantee
; 604  :         auto& _My_data   = _Mypair._Myval2;

	mov	rax, QWORD PTR this$[rbp]
	mov	QWORD PTR _My_data$[rbp], rax

; 605  :         pointer& _Mylast = _My_data._Mylast;

	mov	rax, QWORD PTR _My_data$[rbp]
	add	rax, 16
	mov	QWORD PTR _Mylast$[rbp], rax

; 606  :         _STL_INTERNAL_CHECK(_Mylast != _My_data._Myend); // check that we have unused capacity
; 607  :         _Alty_traits::construct(_Getal(), _Unfancy(_Mylast), _STD forward<_Valty>(_Val)...);

	mov	rcx, QWORD PTR <_Val_0>$[rbp]
	call	??$forward@H@std@@YA$$QEAHAEAH@Z	; std::forward<int>
	mov	QWORD PTR tv81[rbp], rax
	mov	rax, QWORD PTR _Mylast$[rbp]
	mov	rcx, QWORD PTR [rax]
	call	??$_Unfancy@H@std@@YAPEAHPEAH@Z		; std::_Unfancy<int>
	mov	QWORD PTR tv79[rbp], rax
	mov	rcx, QWORD PTR this$[rbp]
	call	?_Getal@?$vector@HV?$allocator@H@std@@@std@@AEAAAEAV?$allocator@H@2@XZ ; std::vector<int,std::allocator<int> >::_Getal
	mov	QWORD PTR tv77[rbp], rax
	mov	r8, QWORD PTR tv81[rbp]
	mov	rdx, QWORD PTR tv79[rbp]
	mov	rcx, QWORD PTR tv77[rbp]
	call	??$construct@HH@?$_Default_allocator_traits@V?$allocator@H@std@@@std@@SAXAEAV?$allocator@H@1@QEAH$$QEAH@Z ; std::_Default_allocator_traits<std::allocator<int> >::construct<int,int>

; 608  :         _Orphan_range(_Mylast, _Mylast);

	mov	rax, QWORD PTR _Mylast$[rbp]
	mov	r8, QWORD PTR [rax]
	mov	rax, QWORD PTR _Mylast$[rbp]
	mov	rdx, QWORD PTR [rax]
	mov	rcx, QWORD PTR this$[rbp]
	call	?_Orphan_range@?$vector@HV?$allocator@H@std@@@std@@AEBAXPEAH0@Z ; std::vector<int,std::allocator<int> >::_Orphan_range

; 609  :         _Ty& _Result = *_Mylast;

	mov	rax, QWORD PTR _Mylast$[rbp]
	mov	rax, QWORD PTR [rax]
	mov	QWORD PTR _Result$[rbp], rax

; 610  :         ++_Mylast;

	mov	rax, QWORD PTR _Mylast$[rbp]
	mov	rax, QWORD PTR [rax]
	add	rax, 4
	mov	rcx, QWORD PTR _Mylast$[rbp]
	mov	QWORD PTR [rcx], rax

; 611  : #if _HAS_CXX17
; 612  :         return _Result;

	mov	rax, QWORD PTR _Result$[rbp]

; 613  : #else // ^^^ _HAS_CXX17 ^^^ // vvv !_HAS_CXX17 vvv
; 614  :         (void) _Result;
; 615  : #endif // _HAS_CXX17
; 616  :     }

	lea	rsp, QWORD PTR [rbp+312]
	pop	rdi
	pop	rbp
	ret	0
??$_Emplace_back_with_unused_capacity@H@?$vector@HV?$allocator@H@std@@@std@@AEAA?A_T$$QEAH@Z ENDP ; std::vector<int,std::allocator<int> >::_Emplace_back_with_unused_capacity<int>
_TEXT	ENDS
; Function compile flags: /Odtp /RTCsu /ZI
; File C:\Program Files\Microsoft Visual Studio\2022\Community\VC\Tools\MSVC\14.31.31103\include\type_traits
;	COMDAT ??$forward@H@std@@YA$$QEAHAEAH@Z
_TEXT	SEGMENT
_Arg$ = 224
??$forward@H@std@@YA$$QEAHAEAH@Z PROC			; std::forward<int>, COMDAT

; 1341 :     remove_reference_t<_Ty>& _Arg) noexcept { // forward an lvalue as either an lvalue or an rvalue

$LN3:
	mov	QWORD PTR [rsp+8], rcx
	push	rbp
	push	rdi
	sub	rsp, 232				; 000000e8H
	lea	rbp, QWORD PTR [rsp+32]
	lea	rcx, OFFSET FLAT:__B1B1C2C4_type_traits
	call	__CheckForDebuggerJustMyCode

; 1342 :     return static_cast<_Ty&&>(_Arg);

	mov	rax, QWORD PTR _Arg$[rbp]

; 1343 : }

	lea	rsp, QWORD PTR [rbp+200]
	pop	rdi
	pop	rbp
	ret	0
??$forward@H@std@@YA$$QEAHAEAH@Z ENDP			; std::forward<int>
_TEXT	ENDS
; Function compile flags: /Odtp /RTCsu /ZI
; File C:\Program Files\Microsoft Visual Studio\2022\Community\VC\Tools\MSVC\14.31.31103\include\vector
;	COMDAT ??$emplace_back@H@?$vector@HV?$allocator@H@std@@@std@@QEAA?A_T$$QEAH@Z
_TEXT	SEGMENT
_My_data$ = 8
_Mylast$ = 40
_Result$ = 72
tv83 = 280
tv81 = 288
this$ = 336
<_Val_0>$ = 344
??$emplace_back@H@?$vector@HV?$allocator@H@std@@@std@@QEAA?A_T$$QEAH@Z PROC ; std::vector<int,std::allocator<int> >::emplace_back<int>, COMDAT

; 620  :     _CONSTEXPR20 decltype(auto) emplace_back(_Valty&&... _Val) {

$LN4:
	mov	QWORD PTR [rsp+16], rdx
	mov	QWORD PTR [rsp+8], rcx
	push	rbp
	push	rdi
	sub	rsp, 344				; 00000158H
	lea	rbp, QWORD PTR [rsp+32]
	lea	rcx, OFFSET FLAT:__F11C365E_vector
	call	__CheckForDebuggerJustMyCode

; 621  :         // insert by perfectly forwarding into element at end, provide strong guarantee
; 622  :         auto& _My_data   = _Mypair._Myval2;

	mov	rax, QWORD PTR this$[rbp]
	mov	QWORD PTR _My_data$[rbp], rax

; 623  :         pointer& _Mylast = _My_data._Mylast;

	mov	rax, QWORD PTR _My_data$[rbp]
	add	rax, 16
	mov	QWORD PTR _Mylast$[rbp], rax

; 624  :         if (_Mylast != _My_data._Myend) {

	mov	rax, QWORD PTR _Mylast$[rbp]
	mov	rcx, QWORD PTR _My_data$[rbp]
	mov	rcx, QWORD PTR [rcx+24]
	cmp	QWORD PTR [rax], rcx
	je	SHORT $LN2@emplace_ba

; 625  :             return _Emplace_back_with_unused_capacity(_STD forward<_Valty>(_Val)...);

	mov	rcx, QWORD PTR <_Val_0>$[rbp]
	call	??$forward@H@std@@YA$$QEAHAEAH@Z	; std::forward<int>
	mov	rdx, rax
	mov	rcx, QWORD PTR this$[rbp]
	call	??$_Emplace_back_with_unused_capacity@H@?$vector@HV?$allocator@H@std@@@std@@AEAA?A_T$$QEAH@Z ; std::vector<int,std::allocator<int> >::_Emplace_back_with_unused_capacity<int>
	jmp	SHORT $LN1@emplace_ba
$LN2@emplace_ba:

; 626  :         }
; 627  : 
; 628  :         _Ty& _Result = *_Emplace_reallocate(_Mylast, _STD forward<_Valty>(_Val)...);

	mov	rcx, QWORD PTR <_Val_0>$[rbp]
	call	??$forward@H@std@@YA$$QEAHAEAH@Z	; std::forward<int>
	mov	QWORD PTR tv83[rbp], rax
	mov	rax, QWORD PTR _Mylast$[rbp]
	mov	rax, QWORD PTR [rax]
	mov	QWORD PTR tv81[rbp], rax
	mov	r8, QWORD PTR tv83[rbp]
	mov	rdx, QWORD PTR tv81[rbp]
	mov	rcx, QWORD PTR this$[rbp]
	call	??$_Emplace_reallocate@H@?$vector@HV?$allocator@H@std@@@std@@QEAAPEAHQEAH$$QEAH@Z ; std::vector<int,std::allocator<int> >::_Emplace_reallocate<int>
	mov	QWORD PTR _Result$[rbp], rax

; 629  : #if _HAS_CXX17
; 630  :         return _Result;

	mov	rax, QWORD PTR _Result$[rbp]
$LN1@emplace_ba:

; 631  : #else // ^^^ _HAS_CXX17 ^^^ // vvv !_HAS_CXX17 vvv
; 632  :         (void) _Result;
; 633  : #endif // _HAS_CXX17
; 634  :     }

	lea	rsp, QWORD PTR [rbp+312]
	pop	rdi
	pop	rbp
	ret	0
??$emplace_back@H@?$vector@HV?$allocator@H@std@@@std@@QEAA?A_T$$QEAH@Z ENDP ; std::vector<int,std::allocator<int> >::emplace_back<int>
_TEXT	ENDS
; Function compile flags: /Odtp /RTCsu /ZI
; File C:\Program Files\Microsoft Visual Studio\2022\Community\VC\Tools\MSVC\14.31.31103\include\type_traits
;	COMDAT ??$move@AEAH@std@@YA$$QEAHAEAH@Z
_TEXT	SEGMENT
_Arg$ = 224
??$move@AEAH@std@@YA$$QEAHAEAH@Z PROC			; std::move<int &>, COMDAT

; 1352 : _NODISCARD constexpr remove_reference_t<_Ty>&& move(_Ty&& _Arg) noexcept { // forward _Arg as movable

$LN3:
	mov	QWORD PTR [rsp+8], rcx
	push	rbp
	push	rdi
	sub	rsp, 232				; 000000e8H
	lea	rbp, QWORD PTR [rsp+32]
	lea	rcx, OFFSET FLAT:__B1B1C2C4_type_traits
	call	__CheckForDebuggerJustMyCode

; 1353 :     return static_cast<remove_reference_t<_Ty>&&>(_Arg);

	mov	rax, QWORD PTR _Arg$[rbp]

; 1354 : }

	lea	rsp, QWORD PTR [rbp+200]
	pop	rdi
	pop	rbp
	ret	0
??$move@AEAH@std@@YA$$QEAHAEAH@Z ENDP			; std::move<int &>
_TEXT	ENDS
; Function compile flags: /Odtp /RTCsu /ZI
; File C:\Dev\C++\Vector\Vector.cpp
;	COMDAT ??$PrintVector@V?$basic_string@DU?$char_traits@D@std@@V?$allocator@D@2@@std@@@@YAXAEBV?$Vector@V?$basic_string@DU?$char_traits@D@std@@V?$allocator@D@2@@std@@@@@Z
_TEXT	SEGMENT
i$1 = 8
tv75 = 216
tv77 = 224
tv82 = 232
vector$ = 272
??$PrintVector@V?$basic_string@DU?$char_traits@D@std@@V?$allocator@D@2@@std@@@@YAXAEBV?$Vector@V?$basic_string@DU?$char_traits@D@std@@V?$allocator@D@2@@std@@@@@Z PROC ; PrintVector<std::basic_string<char,std::char_traits<char>,std::allocator<char> > >, COMDAT

; 8    : void PrintVector(const Vector<T>& vector) {

$LN6:
	mov	QWORD PTR [rsp+8], rcx
	push	rbp
	push	rdi
	sub	rsp, 280				; 00000118H
	lea	rbp, QWORD PTR [rsp+32]
	lea	rcx, OFFSET FLAT:__4B95E802_Vector@cpp
	call	__CheckForDebuggerJustMyCode

; 9    : 	for (size_t i = 0; i < vector.Size(); i++) {

	mov	QWORD PTR i$1[rbp], 0
	jmp	SHORT $LN4@PrintVecto
$LN2@PrintVecto:
	mov	rax, QWORD PTR i$1[rbp]
	inc	rax
	mov	QWORD PTR i$1[rbp], rax
$LN4@PrintVecto:
	mov	rcx, QWORD PTR vector$[rbp]
	call	?Size@?$Vector@V?$basic_string@DU?$char_traits@D@std@@V?$allocator@D@2@@std@@@@QEBA_KXZ ; Vector<std::basic_string<char,std::char_traits<char>,std::allocator<char> > >::Size
	cmp	QWORD PTR i$1[rbp], rax
	jae	SHORT $LN3@PrintVecto

; 10   : 		std::cout << vector[i] << std::endl;

	mov	rax, QWORD PTR __imp_?cout@std@@3V?$basic_ostream@DU?$char_traits@D@std@@@1@A
	mov	QWORD PTR tv75[rbp], rax
	mov	rdx, QWORD PTR i$1[rbp]
	mov	rcx, QWORD PTR vector$[rbp]
	call	??A?$Vector@V?$basic_string@DU?$char_traits@D@std@@V?$allocator@D@2@@std@@@@QEBAAEBV?$basic_string@DU?$char_traits@D@std@@V?$allocator@D@2@@std@@_K@Z ; Vector<std::basic_string<char,std::char_traits<char>,std::allocator<char> > >::operator[]
	mov	QWORD PTR tv77[rbp], rax
	mov	rdx, QWORD PTR tv77[rbp]
	mov	rcx, QWORD PTR tv75[rbp]
	call	??$?6DU?$char_traits@D@std@@V?$allocator@D@1@@std@@YAAEAV?$basic_ostream@DU?$char_traits@D@std@@@0@AEAV10@AEBV?$basic_string@DU?$char_traits@D@std@@V?$allocator@D@2@@0@@Z ; std::operator<<<char,std::char_traits<char>,std::allocator<char> >
	mov	QWORD PTR tv82[rbp], rax
	lea	rdx, OFFSET FLAT:??$endl@DU?$char_traits@D@std@@@std@@YAAEAV?$basic_ostream@DU?$char_traits@D@std@@@0@AEAV10@@Z ; std::endl<char,std::char_traits<char> >
	mov	rcx, QWORD PTR tv82[rbp]
	call	QWORD PTR __imp_??6?$basic_ostream@DU?$char_traits@D@std@@@std@@QEAAAEAV01@P6AAEAV01@AEAV01@@Z@Z

; 11   : 	}

	jmp	SHORT $LN2@PrintVecto
$LN3@PrintVecto:

; 12   : 
; 13   : 	std::cout << "-------------------------\n";

	lea	rdx, OFFSET FLAT:??_C@_0BL@EGNBEPHB@?9?9?9?9?9?9?9?9?9?9?9?9?9?9?9?9?9?9?9?9?9?9?9?9?9?6@
	mov	rcx, QWORD PTR __imp_?cout@std@@3V?$basic_ostream@DU?$char_traits@D@std@@@1@A
	call	??$?6U?$char_traits@D@std@@@std@@YAAEAV?$basic_ostream@DU?$char_traits@D@std@@@0@AEAV10@PEBD@Z ; std::operator<<<std::char_traits<char> >

; 14   : }

	lea	rsp, QWORD PTR [rbp+248]
	pop	rdi
	pop	rbp
	ret	0
??$PrintVector@V?$basic_string@DU?$char_traits@D@std@@V?$allocator@D@2@@std@@@@YAXAEBV?$Vector@V?$basic_string@DU?$char_traits@D@std@@V?$allocator@D@2@@std@@@@@Z ENDP ; PrintVector<std::basic_string<char,std::char_traits<char>,std::allocator<char> > >
_TEXT	ENDS
; Function compile flags: /Odtp /RTCsu /ZI
;	COMDAT ?__autoclassinit2@?$Vector@V?$basic_string@DU?$char_traits@D@std@@V?$allocator@D@2@@std@@@@QEAAX_K@Z
_TEXT	SEGMENT
this$ = 224
classSize$ = 232
?__autoclassinit2@?$Vector@V?$basic_string@DU?$char_traits@D@std@@V?$allocator@D@2@@std@@@@QEAAX_K@Z PROC ; Vector<std::basic_string<char,std::char_traits<char>,std::allocator<char> > >::__autoclassinit2, COMDAT
$LN3:
	mov	QWORD PTR [rsp+16], rdx
	mov	QWORD PTR [rsp+8], rcx
	push	rbp
	push	rdi
	sub	rsp, 200				; 000000c8H
	mov	rbp, rsp
	mov	rdi, QWORD PTR this$[rbp]
	xor	eax, eax
	mov	rcx, QWORD PTR classSize$[rbp]
	rep stosb
	lea	rsp, QWORD PTR [rbp+200]
	pop	rdi
	pop	rbp
	ret	0
?__autoclassinit2@?$Vector@V?$basic_string@DU?$char_traits@D@std@@V?$allocator@D@2@@std@@@@QEAAX_K@Z ENDP ; Vector<std::basic_string<char,std::char_traits<char>,std::allocator<char> > >::__autoclassinit2
_TEXT	ENDS
; Function compile flags: /Odtp /RTCsu /ZI
; File C:\Dev\C++\Vector\Vector.h
;	COMDAT ?ReAlloc@?$Vector@V?$basic_string@DU?$char_traits@D@std@@V?$allocator@D@2@@std@@@@AEAAX_K@Z
_TEXT	SEGMENT
newBlock$ = 8
i$1 = 40
$T2 = 264
$T3 = 296
$T4 = 328
tv138 = 344
tv87 = 344
this$ = 384
newCapacity$ = 392
?ReAlloc@?$Vector@V?$basic_string@DU?$char_traits@D@std@@V?$allocator@D@2@@std@@@@AEAAX_K@Z PROC ; Vector<std::basic_string<char,std::char_traits<char>,std::allocator<char> > >::ReAlloc, COMDAT

; 33   : 	void ReAlloc(size_t newCapacity) {

$LN11:
	mov	QWORD PTR [rsp+16], rdx
	mov	QWORD PTR [rsp+8], rcx
	push	rbp
	push	rdi
	sub	rsp, 408				; 00000198H
	lea	rbp, QWORD PTR [rsp+48]
	lea	rcx, OFFSET FLAT:__CFFB1BB6_Vector@h
	call	__CheckForDebuggerJustMyCode

; 34   : 		// 1. allocate a new block of memory
; 35   : 		// 2. copy old elements into new block
; 36   : 		// 3. delete
; 37   : 
; 38   : 		T* newBlock = new T[newCapacity];

	mov	rax, QWORD PTR newCapacity$[rbp]
	mov	QWORD PTR $T2[rbp], rax
	mov	eax, 40					; 00000028H
	mul	QWORD PTR $T2[rbp]
	mov	rcx, -1
	cmovo	rax, rcx
	add	rax, 8
	mov	rcx, -1
	cmovb	rax, rcx
	mov	rcx, rax
	call	??_U@YAPEAX_K@Z				; operator new[]
	mov	QWORD PTR $T3[rbp], rax
	cmp	QWORD PTR $T3[rbp], 0
	je	SHORT $LN7@ReAlloc
	mov	rax, QWORD PTR $T3[rbp]
	mov	rcx, QWORD PTR $T2[rbp]
	mov	QWORD PTR [rax], rcx
	mov	rax, QWORD PTR $T3[rbp]
	add	rax, 8
	lea	rcx, OFFSET FLAT:??1?$basic_string@DU?$char_traits@D@std@@V?$allocator@D@2@@std@@QEAA@XZ ; std::basic_string<char,std::char_traits<char>,std::allocator<char> >::~basic_string<char,std::char_traits<char>,std::allocator<char> >
	mov	QWORD PTR [rsp+32], rcx
	lea	r9, OFFSET FLAT:??0?$basic_string@DU?$char_traits@D@std@@V?$allocator@D@2@@std@@QEAA@XZ ; std::basic_string<char,std::char_traits<char>,std::allocator<char> >::basic_string<char,std::char_traits<char>,std::allocator<char> >
	mov	r8, QWORD PTR $T2[rbp]
	mov	edx, 40					; 00000028H
	mov	rcx, rax
	call	??_L@YAXPEAX_K1P6AX0@Z2@Z
	mov	rax, QWORD PTR $T3[rbp]
	add	rax, 8
	mov	QWORD PTR tv87[rbp], rax
	jmp	SHORT $LN8@ReAlloc
$LN7@ReAlloc:
	mov	QWORD PTR tv87[rbp], 0
$LN8@ReAlloc:
	mov	rax, QWORD PTR tv87[rbp]
	mov	QWORD PTR newBlock$[rbp], rax

; 39   : 
; 40   : 		if (newCapacity < m_Size)

	mov	rax, QWORD PTR this$[rbp]
	mov	rax, QWORD PTR [rax+8]
	cmp	QWORD PTR newCapacity$[rbp], rax
	jae	SHORT $LN5@ReAlloc

; 41   : 			m_Size = newCapacity;

	mov	rax, QWORD PTR this$[rbp]
	mov	rcx, QWORD PTR newCapacity$[rbp]
	mov	QWORD PTR [rax+8], rcx
$LN5@ReAlloc:

; 42   : 
; 43   : 		for (size_t i = 0; i < m_Size; i++)

	mov	QWORD PTR i$1[rbp], 0
	jmp	SHORT $LN4@ReAlloc
$LN2@ReAlloc:
	mov	rax, QWORD PTR i$1[rbp]
	inc	rax
	mov	QWORD PTR i$1[rbp], rax
$LN4@ReAlloc:
	mov	rax, QWORD PTR this$[rbp]
	mov	rax, QWORD PTR [rax+8]
	cmp	QWORD PTR i$1[rbp], rax
	jae	SHORT $LN3@ReAlloc

; 44   : 			newBlock[i] = m_Data[i];

	imul	rax, QWORD PTR i$1[rbp], 40		; 00000028H
	mov	rcx, QWORD PTR this$[rbp]
	add	rax, QWORD PTR [rcx]
	imul	rcx, QWORD PTR i$1[rbp], 40		; 00000028H
	mov	rdx, QWORD PTR newBlock$[rbp]
	add	rdx, rcx
	mov	rcx, rdx
	mov	rdx, rax
	call	??4?$basic_string@DU?$char_traits@D@std@@V?$allocator@D@2@@std@@QEAAAEAV01@AEBV01@@Z ; std::basic_string<char,std::char_traits<char>,std::allocator<char> >::operator=
	jmp	SHORT $LN2@ReAlloc
$LN3@ReAlloc:

; 45   : 
; 46   : 		delete[] m_Data;

	mov	rax, QWORD PTR this$[rbp]
	mov	rax, QWORD PTR [rax]
	mov	QWORD PTR $T4[rbp], rax
	cmp	QWORD PTR $T4[rbp], 0
	je	SHORT $LN9@ReAlloc
	mov	edx, 3
	mov	rcx, QWORD PTR $T4[rbp]
	call	??_E?$basic_string@DU?$char_traits@D@std@@V?$allocator@D@2@@std@@QEAAPEAXI@Z
	mov	QWORD PTR tv138[rbp], rax
	jmp	SHORT $LN10@ReAlloc
$LN9@ReAlloc:
	mov	QWORD PTR tv138[rbp], 0
$LN10@ReAlloc:

; 47   : 		m_Data = newBlock;

	mov	rax, QWORD PTR this$[rbp]
	mov	rcx, QWORD PTR newBlock$[rbp]
	mov	QWORD PTR [rax], rcx

; 48   : 		m_Capacity = newCapacity;

	mov	rax, QWORD PTR this$[rbp]
	mov	rcx, QWORD PTR newCapacity$[rbp]
	mov	QWORD PTR [rax+16], rcx

; 49   : 	}

	lea	rsp, QWORD PTR [rbp+360]
	pop	rdi
	pop	rbp
	ret	0
?ReAlloc@?$Vector@V?$basic_string@DU?$char_traits@D@std@@V?$allocator@D@2@@std@@@@AEAAX_K@Z ENDP ; Vector<std::basic_string<char,std::char_traits<char>,std::allocator<char> > >::ReAlloc
_TEXT	ENDS
; Function compile flags: /Odtp /RTCsu /ZI
; File C:\Dev\C++\Vector\Vector.h
;	COMDAT ?Size@?$Vector@V?$basic_string@DU?$char_traits@D@std@@V?$allocator@D@2@@std@@@@QEBA_KXZ
_TEXT	SEGMENT
this$ = 224
?Size@?$Vector@V?$basic_string@DU?$char_traits@D@std@@V?$allocator@D@2@@std@@@@QEBA_KXZ PROC ; Vector<std::basic_string<char,std::char_traits<char>,std::allocator<char> > >::Size, COMDAT

; 30   : 	size_t Size() const { return m_Size; }

$LN3:
	mov	QWORD PTR [rsp+8], rcx
	push	rbp
	push	rdi
	sub	rsp, 232				; 000000e8H
	lea	rbp, QWORD PTR [rsp+32]
	lea	rcx, OFFSET FLAT:__CFFB1BB6_Vector@h
	call	__CheckForDebuggerJustMyCode
	mov	rax, QWORD PTR this$[rbp]
	mov	rax, QWORD PTR [rax+8]
	lea	rsp, QWORD PTR [rbp+200]
	pop	rdi
	pop	rbp
	ret	0
?Size@?$Vector@V?$basic_string@DU?$char_traits@D@std@@V?$allocator@D@2@@std@@@@QEBA_KXZ ENDP ; Vector<std::basic_string<char,std::char_traits<char>,std::allocator<char> > >::Size
_TEXT	ENDS
; Function compile flags: /Odtp /RTCsu /ZI
; File C:\Dev\C++\Vector\Vector.h
;	COMDAT ??A?$Vector@V?$basic_string@DU?$char_traits@D@std@@V?$allocator@D@2@@std@@@@QEBAAEBV?$basic_string@DU?$char_traits@D@std@@V?$allocator@D@2@@std@@_K@Z
_TEXT	SEGMENT
this$ = 224
index$ = 232
??A?$Vector@V?$basic_string@DU?$char_traits@D@std@@V?$allocator@D@2@@std@@@@QEBAAEBV?$basic_string@DU?$char_traits@D@std@@V?$allocator@D@2@@std@@_K@Z PROC ; Vector<std::basic_string<char,std::char_traits<char>,std::allocator<char> > >::operator[], COMDAT

; 19   : 	const T& operator[](size_t index) const {

$LN4:
	mov	QWORD PTR [rsp+16], rdx
	mov	QWORD PTR [rsp+8], rcx
	push	rbp
	push	rdi
	sub	rsp, 232				; 000000e8H
	lea	rbp, QWORD PTR [rsp+32]
	lea	rcx, OFFSET FLAT:__CFFB1BB6_Vector@h
	call	__CheckForDebuggerJustMyCode

; 20   : 		if (index >= m_Size) {

	mov	rax, QWORD PTR this$[rbp]
	mov	rax, QWORD PTR [rax+8]

; 21   : 			// assert
; 22   : 		}
; 23   : 		return m_Data[index];

	imul	rax, QWORD PTR index$[rbp], 40		; 00000028H
	mov	rcx, QWORD PTR this$[rbp]
	add	rax, QWORD PTR [rcx]

; 24   : 	}

	lea	rsp, QWORD PTR [rbp+200]
	pop	rdi
	pop	rbp
	ret	0
??A?$Vector@V?$basic_string@DU?$char_traits@D@std@@V?$allocator@D@2@@std@@@@QEBAAEBV?$basic_string@DU?$char_traits@D@std@@V?$allocator@D@2@@std@@_K@Z ENDP ; Vector<std::basic_string<char,std::char_traits<char>,std::allocator<char> > >::operator[]
_TEXT	ENDS
; Function compile flags: /Odtp /RTCsu /ZI
; File C:\Dev\C++\Vector\Vector.h
;	COMDAT ?PushBack@?$Vector@V?$basic_string@DU?$char_traits@D@std@@V?$allocator@D@2@@std@@@@QEAAXAEBV?$basic_string@DU?$char_traits@D@std@@V?$allocator@D@2@@std@@@Z
_TEXT	SEGMENT
tv81 = 192
this$ = 240
value$ = 248
?PushBack@?$Vector@V?$basic_string@DU?$char_traits@D@std@@V?$allocator@D@2@@std@@@@QEAAXAEBV?$basic_string@DU?$char_traits@D@std@@V?$allocator@D@2@@std@@@Z PROC ; Vector<std::basic_string<char,std::char_traits<char>,std::allocator<char> > >::PushBack, COMDAT

; 11   : 	void PushBack(const T& value) {

$LN4:
	mov	QWORD PTR [rsp+16], rdx
	mov	QWORD PTR [rsp+8], rcx
	push	rbp
	push	rdi
	sub	rsp, 248				; 000000f8H
	lea	rbp, QWORD PTR [rsp+32]
	lea	rcx, OFFSET FLAT:__CFFB1BB6_Vector@h
	call	__CheckForDebuggerJustMyCode

; 12   : 
; 13   : 		if (m_Size >= m_Capacity)

	mov	rax, QWORD PTR this$[rbp]
	mov	rcx, QWORD PTR this$[rbp]
	mov	rcx, QWORD PTR [rcx+16]
	cmp	QWORD PTR [rax+8], rcx
	jb	SHORT $LN2@PushBack

; 14   : 			ReAlloc(m_Capacity / 2);

	xor	edx, edx
	mov	rax, QWORD PTR this$[rbp]
	mov	rax, QWORD PTR [rax+16]
	mov	ecx, 2
	div	rcx
	mov	rdx, rax
	mov	rcx, QWORD PTR this$[rbp]
	call	?ReAlloc@?$Vector@V?$basic_string@DU?$char_traits@D@std@@V?$allocator@D@2@@std@@@@AEAAX_K@Z ; Vector<std::basic_string<char,std::char_traits<char>,std::allocator<char> > >::ReAlloc
$LN2@PushBack:

; 15   : 
; 16   : 		m_Data[m_Size++] = value;

	mov	rax, QWORD PTR this$[rbp]
	imul	rax, QWORD PTR [rax+8], 40		; 00000028H
	mov	rcx, QWORD PTR this$[rbp]
	add	rax, QWORD PTR [rcx]
	mov	QWORD PTR tv81[rbp], rax
	mov	rax, QWORD PTR this$[rbp]
	mov	rax, QWORD PTR [rax+8]
	inc	rax
	mov	rcx, QWORD PTR this$[rbp]
	mov	QWORD PTR [rcx+8], rax
	mov	rdx, QWORD PTR value$[rbp]
	mov	rcx, QWORD PTR tv81[rbp]
	call	??4?$basic_string@DU?$char_traits@D@std@@V?$allocator@D@2@@std@@QEAAAEAV01@AEBV01@@Z ; std::basic_string<char,std::char_traits<char>,std::allocator<char> >::operator=

; 17   : 	}

	lea	rsp, QWORD PTR [rbp+216]
	pop	rdi
	pop	rbp
	ret	0
?PushBack@?$Vector@V?$basic_string@DU?$char_traits@D@std@@V?$allocator@D@2@@std@@@@QEAAXAEBV?$basic_string@DU?$char_traits@D@std@@V?$allocator@D@2@@std@@@Z ENDP ; Vector<std::basic_string<char,std::char_traits<char>,std::allocator<char> > >::PushBack
_TEXT	ENDS
; Function compile flags: /Odtp /RTCsu /ZI
; File C:\Dev\C++\Vector\Vector.h
;	COMDAT ??0?$Vector@V?$basic_string@DU?$char_traits@D@std@@V?$allocator@D@2@@std@@@@QEAA@XZ
_TEXT	SEGMENT
this$ = 224
??0?$Vector@V?$basic_string@DU?$char_traits@D@std@@V?$allocator@D@2@@std@@@@QEAA@XZ PROC ; Vector<std::basic_string<char,std::char_traits<char>,std::allocator<char> > >::Vector<std::basic_string<char,std::char_traits<char>,std::allocator<char> > >, COMDAT

; 6    : 	Vector()

$LN3:
	mov	QWORD PTR [rsp+8], rcx
	push	rbp
	push	rdi
	sub	rsp, 232				; 000000e8H
	lea	rbp, QWORD PTR [rsp+32]
	lea	rcx, OFFSET FLAT:__CFFB1BB6_Vector@h
	call	__CheckForDebuggerJustMyCode

; 11   : 	void PushBack(const T& value) {
; 12   : 
; 13   : 		if (m_Size >= m_Capacity)
; 14   : 			ReAlloc(m_Capacity / 2);
; 15   : 
; 16   : 		m_Data[m_Size++] = value;
; 17   : 	}
; 18   : 
; 19   : 	const T& operator[](size_t index) const {
; 20   : 		if (index >= m_Size) {
; 21   : 			// assert
; 22   : 		}
; 23   : 		return m_Data[index];
; 24   : 	}
; 25   : 
; 26   : 	T& operator[](size_t index) {
; 27   : 		return m_Data[index];
; 28   : 	}
; 29   : 
; 30   : 	size_t Size() const { return m_Size; }
; 31   : 
; 32   : private:
; 33   : 	void ReAlloc(size_t newCapacity) {
; 34   : 		// 1. allocate a new block of memory
; 35   : 		// 2. copy old elements into new block
; 36   : 		// 3. delete
; 37   : 
; 38   : 		T* newBlock = new T[newCapacity];
; 39   : 
; 40   : 		if (newCapacity < m_Size)
; 41   : 			m_Size = newCapacity;
; 42   : 
; 43   : 		for (size_t i = 0; i < m_Size; i++)
; 44   : 			newBlock[i] = m_Data[i];
; 45   : 
; 46   : 		delete[] m_Data;
; 47   : 		m_Data = newBlock;
; 48   : 		m_Capacity = newCapacity;
; 49   : 	}
; 50   : private:
; 51   : 	T* m_Data = nullptr;

	mov	rax, QWORD PTR this$[rbp]
	mov	QWORD PTR [rax], 0

; 52   : 
; 53   : 	size_t m_Size = 0;

	mov	rax, QWORD PTR this$[rbp]
	mov	QWORD PTR [rax+8], 0

; 54   : 	size_t m_Capacity = 0;

	mov	rax, QWORD PTR this$[rbp]
	mov	QWORD PTR [rax+16], 0

; 7    : 	{
; 8    : 		//allocate 2 elements
; 9    : 		ReAlloc(2);

	mov	edx, 2
	mov	rcx, QWORD PTR this$[rbp]
	call	?ReAlloc@?$Vector@V?$basic_string@DU?$char_traits@D@std@@V?$allocator@D@2@@std@@@@AEAAX_K@Z ; Vector<std::basic_string<char,std::char_traits<char>,std::allocator<char> > >::ReAlloc

; 10   : 	}

	mov	rax, QWORD PTR this$[rbp]
	lea	rsp, QWORD PTR [rbp+200]
	pop	rdi
	pop	rbp
	ret	0
??0?$Vector@V?$basic_string@DU?$char_traits@D@std@@V?$allocator@D@2@@std@@@@QEAA@XZ ENDP ; Vector<std::basic_string<char,std::char_traits<char>,std::allocator<char> > >::Vector<std::basic_string<char,std::char_traits<char>,std::allocator<char> > >
_TEXT	ENDS
; Function compile flags: /Odtp /RTCsu /ZI
; File C:\Program Files\Microsoft Visual Studio\2022\Community\VC\Tools\MSVC\14.31.31103\include\xstring
;	COMDAT ??$?6DU?$char_traits@D@std@@V?$allocator@D@1@@std@@YAAEAV?$basic_ostream@DU?$char_traits@D@std@@@0@AEAV10@AEBV?$basic_string@DU?$char_traits@D@std@@V?$allocator@D@2@@0@@Z
_TEXT	SEGMENT
tv75 = 192
tv73 = 200
_Ostr$ = 240
_Str$ = 248
??$?6DU?$char_traits@D@std@@V?$allocator@D@1@@std@@YAAEAV?$basic_ostream@DU?$char_traits@D@std@@@0@AEAV10@AEBV?$basic_string@DU?$char_traits@D@std@@V?$allocator@D@2@@0@@Z PROC ; std::operator<<<char,std::char_traits<char>,std::allocator<char> >, COMDAT

; 4996 :     basic_ostream<_Elem, _Traits>& _Ostr, const basic_string<_Elem, _Traits, _Alloc>& _Str) {

$LN3:
	mov	QWORD PTR [rsp+16], rdx
	mov	QWORD PTR [rsp+8], rcx
	push	rbp
	push	rdi
	sub	rsp, 248				; 000000f8H
	lea	rbp, QWORD PTR [rsp+32]
	lea	rcx, OFFSET FLAT:__CF153B44_xstring
	call	__CheckForDebuggerJustMyCode

; 4997 :     return _Insert_string(_Ostr, _Str.data(), _Str.size());

	mov	rcx, QWORD PTR _Str$[rbp]
	call	?size@?$basic_string@DU?$char_traits@D@std@@V?$allocator@D@2@@std@@QEBA_KXZ ; std::basic_string<char,std::char_traits<char>,std::allocator<char> >::size
	mov	QWORD PTR tv75[rbp], rax
	mov	rcx, QWORD PTR _Str$[rbp]
	call	?data@?$basic_string@DU?$char_traits@D@std@@V?$allocator@D@2@@std@@QEBAPEBDXZ ; std::basic_string<char,std::char_traits<char>,std::allocator<char> >::data
	mov	QWORD PTR tv73[rbp], rax
	mov	r8, QWORD PTR tv75[rbp]
	mov	rdx, QWORD PTR tv73[rbp]
	mov	rcx, QWORD PTR _Ostr$[rbp]
	call	??$_Insert_string@DU?$char_traits@D@std@@_K@std@@YAAEAV?$basic_ostream@DU?$char_traits@D@std@@@0@AEAV10@QEBD_K@Z ; std::_Insert_string<char,std::char_traits<char>,unsigned __int64>

; 4998 : }

	lea	rsp, QWORD PTR [rbp+216]
	pop	rdi
	pop	rbp
	ret	0
??$?6DU?$char_traits@D@std@@V?$allocator@D@1@@std@@YAAEAV?$basic_ostream@DU?$char_traits@D@std@@@0@AEAV10@AEBV?$basic_string@DU?$char_traits@D@std@@V?$allocator@D@2@@0@@Z ENDP ; std::operator<<<char,std::char_traits<char>,std::allocator<char> >
_TEXT	ENDS
; Function compile flags: /Odtp /RTCsu /ZI
;	COMDAT ??1?$Array@V?$basic_string@DU?$char_traits@D@std@@V?$allocator@D@2@@std@@$01@@QEAA@XZ
_TEXT	SEGMENT
this$ = 224
??1?$Array@V?$basic_string@DU?$char_traits@D@std@@V?$allocator@D@2@@std@@$01@@QEAA@XZ PROC ; Array<std::basic_string<char,std::char_traits<char>,std::allocator<char> >,2>::~Array<std::basic_string<char,std::char_traits<char>,std::allocator<char> >,2>, COMDAT
$LN3:
	mov	QWORD PTR [rsp+8], rcx
	push	rbp
	push	rdi
	sub	rsp, 232				; 000000e8H
	lea	rbp, QWORD PTR [rsp+32]
	mov	rax, QWORD PTR this$[rbp]
	lea	r9, OFFSET FLAT:??1?$basic_string@DU?$char_traits@D@std@@V?$allocator@D@2@@std@@QEAA@XZ ; std::basic_string<char,std::char_traits<char>,std::allocator<char> >::~basic_string<char,std::char_traits<char>,std::allocator<char> >
	mov	r8d, 2
	mov	edx, 40					; 00000028H
	mov	rcx, rax
	call	??_M@YAXPEAX_K1P6AX0@Z@Z
	npad	1
	lea	rsp, QWORD PTR [rbp+200]
	pop	rdi
	pop	rbp
	ret	0
??1?$Array@V?$basic_string@DU?$char_traits@D@std@@V?$allocator@D@2@@std@@$01@@QEAA@XZ ENDP ; Array<std::basic_string<char,std::char_traits<char>,std::allocator<char> >,2>::~Array<std::basic_string<char,std::char_traits<char>,std::allocator<char> >,2>
_TEXT	ENDS
; Function compile flags: /Odtp /RTCsu /ZI
; File C:\Dev\C++\Vector\Array.h
;	COMDAT ??A?$Array@V?$basic_string@DU?$char_traits@D@std@@V?$allocator@D@2@@std@@$01@@QEAAAEAV?$basic_string@DU?$char_traits@D@std@@V?$allocator@D@2@@std@@_K@Z
_TEXT	SEGMENT
this$ = 224
index$ = 232
??A?$Array@V?$basic_string@DU?$char_traits@D@std@@V?$allocator@D@2@@std@@$01@@QEAAAEAV?$basic_string@DU?$char_traits@D@std@@V?$allocator@D@2@@std@@_K@Z PROC ; Array<std::basic_string<char,std::char_traits<char>,std::allocator<char> >,2>::operator[], COMDAT

; 12   : 	T& operator[](size_t index) { return m_Data[index]; }

$LN3:
	mov	QWORD PTR [rsp+16], rdx
	mov	QWORD PTR [rsp+8], rcx
	push	rbp
	push	rdi
	sub	rsp, 232				; 000000e8H
	lea	rbp, QWORD PTR [rsp+32]
	lea	rcx, OFFSET FLAT:__56798F9D_Array@h
	call	__CheckForDebuggerJustMyCode
	imul	rax, QWORD PTR index$[rbp], 40		; 00000028H
	mov	rcx, QWORD PTR this$[rbp]
	add	rcx, rax
	mov	rax, rcx
	lea	rsp, QWORD PTR [rbp+200]
	pop	rdi
	pop	rbp
	ret	0
??A?$Array@V?$basic_string@DU?$char_traits@D@std@@V?$allocator@D@2@@std@@$01@@QEAAAEAV?$basic_string@DU?$char_traits@D@std@@V?$allocator@D@2@@std@@_K@Z ENDP ; Array<std::basic_string<char,std::char_traits<char>,std::allocator<char> >,2>::operator[]
_TEXT	ENDS
; Function compile flags: /Odtp /RTCsu /ZI
; File C:\Dev\C++\Vector\Array.h
;	COMDAT ??0?$Array@V?$basic_string@DU?$char_traits@D@std@@V?$allocator@D@2@@std@@$01@@QEAA@XZ
_TEXT	SEGMENT
this$ = 224
??0?$Array@V?$basic_string@DU?$char_traits@D@std@@V?$allocator@D@2@@std@@$01@@QEAA@XZ PROC ; Array<std::basic_string<char,std::char_traits<char>,std::allocator<char> >,2>::Array<std::basic_string<char,std::char_traits<char>,std::allocator<char> >,2>, COMDAT

; 6    : 	Array()

$LN4:
	mov	QWORD PTR [rsp+8], rcx
	push	rbp
	push	rdi
	sub	rsp, 248				; 000000f8H
	lea	rbp, QWORD PTR [rsp+48]
	lea	rcx, OFFSET FLAT:__56798F9D_Array@h
	call	__CheckForDebuggerJustMyCode

; 7    : 	{

	mov	rax, QWORD PTR this$[rbp]
	lea	rcx, OFFSET FLAT:??1?$basic_string@DU?$char_traits@D@std@@V?$allocator@D@2@@std@@QEAA@XZ ; std::basic_string<char,std::char_traits<char>,std::allocator<char> >::~basic_string<char,std::char_traits<char>,std::allocator<char> >
	mov	QWORD PTR [rsp+32], rcx
	lea	r9, OFFSET FLAT:??0?$basic_string@DU?$char_traits@D@std@@V?$allocator@D@2@@std@@QEAA@XZ ; std::basic_string<char,std::char_traits<char>,std::allocator<char> >::basic_string<char,std::char_traits<char>,std::allocator<char> >
	mov	r8d, 2
	mov	edx, 40					; 00000028H
	mov	rcx, rax
	call	??_L@YAXPEAX_K1P6AX0@Z2@Z

; 8    : 	}

	mov	rax, QWORD PTR this$[rbp]
	lea	rsp, QWORD PTR [rbp+200]
	pop	rdi
	pop	rbp
	ret	0
??0?$Array@V?$basic_string@DU?$char_traits@D@std@@V?$allocator@D@2@@std@@$01@@QEAA@XZ ENDP ; Array<std::basic_string<char,std::char_traits<char>,std::allocator<char> >,2>::Array<std::basic_string<char,std::char_traits<char>,std::allocator<char> >,2>
_TEXT	ENDS
; Function compile flags: /Odtp /RTCsu /ZI
;	COMDAT ?__autoclassinit2@?$vector@HV?$allocator@H@std@@@std@@QEAAX_K@Z
_TEXT	SEGMENT
this$ = 224
classSize$ = 232
?__autoclassinit2@?$vector@HV?$allocator@H@std@@@std@@QEAAX_K@Z PROC ; std::vector<int,std::allocator<int> >::__autoclassinit2, COMDAT
$LN3:
	mov	QWORD PTR [rsp+16], rdx
	mov	QWORD PTR [rsp+8], rcx
	push	rbp
	push	rdi
	sub	rsp, 200				; 000000c8H
	mov	rbp, rsp
	mov	rdi, QWORD PTR this$[rbp]
	xor	eax, eax
	mov	rcx, QWORD PTR classSize$[rbp]
	rep stosb
	lea	rsp, QWORD PTR [rbp+200]
	pop	rdi
	pop	rbp
	ret	0
?__autoclassinit2@?$vector@HV?$allocator@H@std@@@std@@QEAAX_K@Z ENDP ; std::vector<int,std::allocator<int> >::__autoclassinit2
_TEXT	ENDS
; Function compile flags: /Odtp /RTCsu /ZI
; File C:\Program Files\Microsoft Visual Studio\2022\Community\VC\Tools\MSVC\14.31.31103\include\xmemory
;	COMDAT ?_Get_first@?$_Compressed_pair@V?$allocator@H@std@@V?$_Vector_val@U?$_Simple_types@H@std@@@2@$00@std@@QEBAAEBV?$allocator@H@2@XZ
_TEXT	SEGMENT
this$ = 224
?_Get_first@?$_Compressed_pair@V?$allocator@H@std@@V?$_Vector_val@U?$_Simple_types@H@std@@@2@$00@std@@QEBAAEBV?$allocator@H@2@XZ PROC ; std::_Compressed_pair<std::allocator<int>,std::_Vector_val<std::_Simple_types<int> >,1>::_Get_first, COMDAT

; 1377 :     constexpr const _Ty1& _Get_first() const noexcept {

$LN3:
	mov	QWORD PTR [rsp+8], rcx
	push	rbp
	push	rdi
	sub	rsp, 232				; 000000e8H
	lea	rbp, QWORD PTR [rsp+32]
	lea	rcx, OFFSET FLAT:__BBC6BDD8_xmemory
	call	__CheckForDebuggerJustMyCode

; 1378 :         return *this;

	mov	rax, QWORD PTR this$[rbp]

; 1379 :     }

	lea	rsp, QWORD PTR [rbp+200]
	pop	rdi
	pop	rbp
	ret	0
?_Get_first@?$_Compressed_pair@V?$allocator@H@std@@V?$_Vector_val@U?$_Simple_types@H@std@@@2@$00@std@@QEBAAEBV?$allocator@H@2@XZ ENDP ; std::_Compressed_pair<std::allocator<int>,std::_Vector_val<std::_Simple_types<int> >,1>::_Get_first
_TEXT	ENDS
; Function compile flags: /Odtp /RTCsu /ZI
; File C:\Program Files\Microsoft Visual Studio\2022\Community\VC\Tools\MSVC\14.31.31103\include\xmemory
;	COMDAT ?_Get_first@?$_Compressed_pair@V?$allocator@H@std@@V?$_Vector_val@U?$_Simple_types@H@std@@@2@$00@std@@QEAAAEAV?$allocator@H@2@XZ
_TEXT	SEGMENT
this$ = 224
?_Get_first@?$_Compressed_pair@V?$allocator@H@std@@V?$_Vector_val@U?$_Simple_types@H@std@@@2@$00@std@@QEAAAEAV?$allocator@H@2@XZ PROC ; std::_Compressed_pair<std::allocator<int>,std::_Vector_val<std::_Simple_types<int> >,1>::_Get_first, COMDAT

; 1373 :     constexpr _Ty1& _Get_first() noexcept {

$LN3:
	mov	QWORD PTR [rsp+8], rcx
	push	rbp
	push	rdi
	sub	rsp, 232				; 000000e8H
	lea	rbp, QWORD PTR [rsp+32]
	lea	rcx, OFFSET FLAT:__BBC6BDD8_xmemory
	call	__CheckForDebuggerJustMyCode

; 1374 :         return *this;

	mov	rax, QWORD PTR this$[rbp]

; 1375 :     }

	lea	rsp, QWORD PTR [rbp+200]
	pop	rdi
	pop	rbp
	ret	0
?_Get_first@?$_Compressed_pair@V?$allocator@H@std@@V?$_Vector_val@U?$_Simple_types@H@std@@@2@$00@std@@QEAAAEAV?$allocator@H@2@XZ ENDP ; std::_Compressed_pair<std::allocator<int>,std::_Vector_val<std::_Simple_types<int> >,1>::_Get_first
_TEXT	ENDS
; Function compile flags: /Odtp /RTCsu /ZI
; File C:\Program Files\Microsoft Visual Studio\2022\Community\VC\Tools\MSVC\14.31.31103\include\vector
;	COMDAT ??0?$_Vector_val@U?$_Simple_types@H@std@@@std@@QEAA@XZ
_TEXT	SEGMENT
this$ = 224
??0?$_Vector_val@U?$_Simple_types@H@std@@@std@@QEAA@XZ PROC ; std::_Vector_val<std::_Simple_types<int> >::_Vector_val<std::_Simple_types<int> >, COMDAT

; 392  :     _CONSTEXPR20 _Vector_val() noexcept : _Myfirst(), _Mylast(), _Myend() {}

$LN3:
	mov	QWORD PTR [rsp+8], rcx
	push	rbp
	push	rdi
	sub	rsp, 232				; 000000e8H
	lea	rbp, QWORD PTR [rsp+32]
	lea	rcx, OFFSET FLAT:__F11C365E_vector
	call	__CheckForDebuggerJustMyCode
	mov	rcx, QWORD PTR this$[rbp]
	call	??0_Container_base12@std@@QEAA@XZ	; std::_Container_base12::_Container_base12
	mov	rax, QWORD PTR this$[rbp]
	mov	QWORD PTR [rax+8], 0
	mov	rax, QWORD PTR this$[rbp]
	mov	QWORD PTR [rax+16], 0
	mov	rax, QWORD PTR this$[rbp]
	mov	QWORD PTR [rax+24], 0
	mov	rax, QWORD PTR this$[rbp]
	lea	rsp, QWORD PTR [rbp+200]
	pop	rdi
	pop	rbp
	ret	0
??0?$_Vector_val@U?$_Simple_types@H@std@@@std@@QEAA@XZ ENDP ; std::_Vector_val<std::_Simple_types<int> >::_Vector_val<std::_Simple_types<int> >
_TEXT	ENDS
; Function compile flags: /Odtp /RTCsu /ZI
; File C:\Program Files\Microsoft Visual Studio\2022\Community\VC\Tools\MSVC\14.31.31103\include\vector
;	COMDAT ?_Getal@?$vector@HV?$allocator@H@std@@@std@@AEBAAEBV?$allocator@H@2@XZ
_TEXT	SEGMENT
this$ = 224
?_Getal@?$vector@HV?$allocator@H@std@@@std@@AEBAAEBV?$allocator@H@2@XZ PROC ; std::vector<int,std::allocator<int> >::_Getal, COMDAT

; 1739 :     _NODISCARD _CONSTEXPR20 const _Alty& _Getal() const noexcept {

$LN3:
	mov	QWORD PTR [rsp+8], rcx
	push	rbp
	push	rdi
	sub	rsp, 232				; 000000e8H
	lea	rbp, QWORD PTR [rsp+32]
	lea	rcx, OFFSET FLAT:__F11C365E_vector
	call	__CheckForDebuggerJustMyCode

; 1740 :         return _Mypair._Get_first();

	mov	rax, QWORD PTR this$[rbp]
	mov	rcx, rax
	call	?_Get_first@?$_Compressed_pair@V?$allocator@H@std@@V?$_Vector_val@U?$_Simple_types@H@std@@@2@$00@std@@QEBAAEBV?$allocator@H@2@XZ ; std::_Compressed_pair<std::allocator<int>,std::_Vector_val<std::_Simple_types<int> >,1>::_Get_first

; 1741 :     }

	lea	rsp, QWORD PTR [rbp+200]
	pop	rdi
	pop	rbp
	ret	0
?_Getal@?$vector@HV?$allocator@H@std@@@std@@AEBAAEBV?$allocator@H@2@XZ ENDP ; std::vector<int,std::allocator<int> >::_Getal
_TEXT	ENDS
; Function compile flags: /Odtp /RTCsu /ZI
; File C:\Program Files\Microsoft Visual Studio\2022\Community\VC\Tools\MSVC\14.31.31103\include\vector
;	COMDAT ?_Getal@?$vector@HV?$allocator@H@std@@@std@@AEAAAEAV?$allocator@H@2@XZ
_TEXT	SEGMENT
this$ = 224
?_Getal@?$vector@HV?$allocator@H@std@@@std@@AEAAAEAV?$allocator@H@2@XZ PROC ; std::vector<int,std::allocator<int> >::_Getal, COMDAT

; 1735 :     _NODISCARD _CONSTEXPR20 _Alty& _Getal() noexcept {

$LN3:
	mov	QWORD PTR [rsp+8], rcx
	push	rbp
	push	rdi
	sub	rsp, 232				; 000000e8H
	lea	rbp, QWORD PTR [rsp+32]
	lea	rcx, OFFSET FLAT:__F11C365E_vector
	call	__CheckForDebuggerJustMyCode

; 1736 :         return _Mypair._Get_first();

	mov	rax, QWORD PTR this$[rbp]
	mov	rcx, rax
	call	?_Get_first@?$_Compressed_pair@V?$allocator@H@std@@V?$_Vector_val@U?$_Simple_types@H@std@@@2@$00@std@@QEAAAEAV?$allocator@H@2@XZ ; std::_Compressed_pair<std::allocator<int>,std::_Vector_val<std::_Simple_types<int> >,1>::_Get_first

; 1737 :     }

	lea	rsp, QWORD PTR [rbp+200]
	pop	rdi
	pop	rbp
	ret	0
?_Getal@?$vector@HV?$allocator@H@std@@@std@@AEAAAEAV?$allocator@H@2@XZ ENDP ; std::vector<int,std::allocator<int> >::_Getal
_TEXT	ENDS
; Function compile flags: /Odtp /RTCsu /ZI
; File C:\Program Files\Microsoft Visual Studio\2022\Community\VC\Tools\MSVC\14.31.31103\include\vector
;	COMDAT ?_Orphan_range@?$vector@HV?$allocator@H@std@@@std@@AEBAXPEAH0@Z
_TEXT	SEGMENT
this$ = 224
_First$ = 232
_Last$ = 240
?_Orphan_range@?$vector@HV?$allocator@H@std@@@std@@AEBAXPEAH0@Z PROC ; std::vector<int,std::allocator<int> >::_Orphan_range, COMDAT

; 1720 :     _CONSTEXPR20 void _Orphan_range(pointer _First, pointer _Last) const {

$LN5:
	mov	QWORD PTR [rsp+24], r8
	mov	QWORD PTR [rsp+16], rdx
	mov	QWORD PTR [rsp+8], rcx
	push	rbp
	push	rdi
	sub	rsp, 232				; 000000e8H
	lea	rbp, QWORD PTR [rsp+32]
	lea	rcx, OFFSET FLAT:__F11C365E_vector
	call	__CheckForDebuggerJustMyCode

; 1721 :         // orphan iterators within specified (inclusive) range
; 1722 : #if _HAS_CXX20
; 1723 :         if (_STD is_constant_evaluated()) {

	call	?is_constant_evaluated@std@@YA_NXZ	; std::is_constant_evaluated
	movzx	eax, al
	test	eax, eax
	je	SHORT $LN2@Orphan_ran

; 1724 :             _Orphan_range_unlocked(_First, _Last);

	mov	r8, QWORD PTR _Last$[rbp]
	mov	rdx, QWORD PTR _First$[rbp]
	mov	rcx, QWORD PTR this$[rbp]
	call	?_Orphan_range_unlocked@?$vector@HV?$allocator@H@std@@@std@@AEBAXPEAH0@Z ; std::vector<int,std::allocator<int> >::_Orphan_range_unlocked

; 1725 :         } else

	jmp	SHORT $LN3@Orphan_ran
$LN2@Orphan_ran:

; 1726 : #endif // _HAS_CXX20
; 1727 :         {
; 1728 :             _Orphan_range_locked(_First, _Last);

	mov	r8, QWORD PTR _Last$[rbp]
	mov	rdx, QWORD PTR _First$[rbp]
	mov	rcx, QWORD PTR this$[rbp]
	call	?_Orphan_range_locked@?$vector@HV?$allocator@H@std@@@std@@AEBAXPEAH0@Z ; std::vector<int,std::allocator<int> >::_Orphan_range_locked
$LN3@Orphan_ran:

; 1729 :         }
; 1730 :     }

	lea	rsp, QWORD PTR [rbp+200]
	pop	rdi
	pop	rbp
	ret	0
?_Orphan_range@?$vector@HV?$allocator@H@std@@@std@@AEBAXPEAH0@Z ENDP ; std::vector<int,std::allocator<int> >::_Orphan_range
_TEXT	ENDS
; Function compile flags: /Odtp /RTCsu /ZI
; File C:\Program Files\Microsoft Visual Studio\2022\Community\VC\Tools\MSVC\14.31.31103\include\vector
;	COMDAT ?_Orphan_range_locked@?$vector@HV?$allocator@H@std@@@std@@AEBAXPEAH0@Z
_TEXT	SEGMENT
_Lock$ = 4
__$ArrayPad$ = 216
this$ = 256
_First$ = 264
_Last$ = 272
?_Orphan_range_locked@?$vector@HV?$allocator@H@std@@@std@@AEBAXPEAH0@Z PROC ; std::vector<int,std::allocator<int> >::_Orphan_range_locked, COMDAT

; 1715 :     void _Orphan_range_locked(pointer _First, pointer _Last) const {

$LN4:
	mov	QWORD PTR [rsp+24], r8
	mov	QWORD PTR [rsp+16], rdx
	mov	QWORD PTR [rsp+8], rcx
	push	rbp
	push	rdi
	sub	rsp, 264				; 00000108H
	lea	rbp, QWORD PTR [rsp+32]
	lea	rdi, QWORD PTR [rsp+32]
	mov	ecx, 10
	mov	eax, -858993460				; ccccccccH
	rep stosd
	mov	rcx, QWORD PTR [rsp+296]
	mov	rax, QWORD PTR __security_cookie
	xor	rax, rbp
	mov	QWORD PTR __$ArrayPad$[rbp], rax
	lea	rcx, OFFSET FLAT:__F11C365E_vector
	call	__CheckForDebuggerJustMyCode

; 1716 :         _Lockit _Lock(_LOCK_DEBUG);

	mov	edx, 3
	lea	rcx, QWORD PTR _Lock$[rbp]
	call	QWORD PTR __imp_??0_Lockit@std@@QEAA@H@Z
	npad	1

; 1717 :         _Orphan_range_unlocked(_First, _Last);

	mov	r8, QWORD PTR _Last$[rbp]
	mov	rdx, QWORD PTR _First$[rbp]
	mov	rcx, QWORD PTR this$[rbp]
	call	?_Orphan_range_unlocked@?$vector@HV?$allocator@H@std@@@std@@AEBAXPEAH0@Z ; std::vector<int,std::allocator<int> >::_Orphan_range_unlocked
	npad	1

; 1718 :     }

	lea	rcx, QWORD PTR _Lock$[rbp]
	call	QWORD PTR __imp_??1_Lockit@std@@QEAA@XZ
	lea	rcx, QWORD PTR [rbp-32]
	lea	rdx, OFFSET FLAT:?_Orphan_range_locked@?$vector@HV?$allocator@H@std@@@std@@AEBAXPEAH0@Z$rtcFrameData
	call	_RTC_CheckStackVars
	mov	rcx, QWORD PTR __$ArrayPad$[rbp]
	xor	rcx, rbp
	call	__security_check_cookie
	lea	rsp, QWORD PTR [rbp+232]
	pop	rdi
	pop	rbp
	ret	0
?_Orphan_range_locked@?$vector@HV?$allocator@H@std@@@std@@AEBAXPEAH0@Z ENDP ; std::vector<int,std::allocator<int> >::_Orphan_range_locked
_TEXT	ENDS
; Function compile flags: /Odtp /RTCsu /ZI
;	COMDAT text$x
text$x	SEGMENT
_Lock$ = 4
__$ArrayPad$ = 216
this$ = 256
_First$ = 264
_Last$ = 272
?dtor$0@?0??_Orphan_range_locked@?$vector@HV?$allocator@H@std@@@std@@AEBAXPEAH0@Z@4HA PROC ; `std::vector<int,std::allocator<int> >::_Orphan_range_locked'::`1'::dtor$0
	mov	QWORD PTR [rsp+8], rcx
	mov	QWORD PTR [rsp+16], rdx
	push	rbp
	push	rdi
	sub	rsp, 40					; 00000028H
	lea	rbp, QWORD PTR [rdx+32]
	lea	rcx, QWORD PTR _Lock$[rbp]
	call	QWORD PTR __imp_??1_Lockit@std@@QEAA@XZ
	add	rsp, 40					; 00000028H
	pop	rdi
	pop	rbp
	ret	0
?dtor$0@?0??_Orphan_range_locked@?$vector@HV?$allocator@H@std@@@std@@AEBAXPEAH0@Z@4HA ENDP ; `std::vector<int,std::allocator<int> >::_Orphan_range_locked'::`1'::dtor$0
text$x	ENDS
; Function compile flags: /Odtp /RTCsu /ZI
; File C:\Program Files\Microsoft Visual Studio\2022\Community\VC\Tools\MSVC\14.31.31103\include\vector
;	COMDAT ?_Orphan_range_unlocked@?$vector@HV?$allocator@H@std@@@std@@AEBAXPEAH0@Z
_TEXT	SEGMENT
_Pnext$ = 8
_Pnextptr$1 = 40
_Temp$2 = 72
_Temp$3 = 104
this$ = 352
_First$ = 360
_Last$ = 368
?_Orphan_range_unlocked@?$vector@HV?$allocator@H@std@@@std@@AEBAXPEAH0@Z PROC ; std::vector<int,std::allocator<int> >::_Orphan_range_unlocked, COMDAT

; 1700 :     _CONSTEXPR20 void _Orphan_range_unlocked(pointer _First, pointer _Last) const {

$LN8:
	mov	QWORD PTR [rsp+24], r8
	mov	QWORD PTR [rsp+16], rdx
	mov	QWORD PTR [rsp+8], rcx
	push	rbp
	push	rdi
	sub	rsp, 360				; 00000168H
	lea	rbp, QWORD PTR [rsp+32]
	lea	rcx, OFFSET FLAT:__F11C365E_vector
	call	__CheckForDebuggerJustMyCode

; 1701 :         _Iterator_base12** _Pnext = &_Mypair._Myval2._Myproxy->_Myfirstiter;

	mov	rax, QWORD PTR this$[rbp]
	mov	rax, QWORD PTR [rax]
	add	rax, 8
	mov	QWORD PTR _Pnext$[rbp], rax
$LN2@Orphan_ran:

; 1702 :         while (*_Pnext) {

	mov	rax, QWORD PTR _Pnext$[rbp]
	cmp	QWORD PTR [rax], 0
	je	SHORT $LN3@Orphan_ran

; 1703 :             const auto _Pnextptr = static_cast<const_iterator&>(**_Pnext)._Ptr;

	mov	rax, QWORD PTR _Pnext$[rbp]
	mov	rax, QWORD PTR [rax]
	mov	rax, QWORD PTR [rax+16]
	mov	QWORD PTR _Pnextptr$1[rbp], rax

; 1704 :             if (_Pnextptr < _First || _Last < _Pnextptr) { // skip the iterator

	mov	rax, QWORD PTR _First$[rbp]
	cmp	QWORD PTR _Pnextptr$1[rbp], rax
	jb	SHORT $LN6@Orphan_ran
	mov	rax, QWORD PTR _Pnextptr$1[rbp]
	cmp	QWORD PTR _Last$[rbp], rax
	jae	SHORT $LN4@Orphan_ran
$LN6@Orphan_ran:

; 1705 :                 const auto _Temp = *_Pnext; // TRANSITION, VSO-1269037

	mov	rax, QWORD PTR _Pnext$[rbp]
	mov	rax, QWORD PTR [rax]
	mov	QWORD PTR _Temp$2[rbp], rax

; 1706 :                 _Pnext           = &_Temp->_Mynextiter;

	mov	rax, QWORD PTR _Temp$2[rbp]
	add	rax, 8
	mov	QWORD PTR _Pnext$[rbp], rax

; 1707 :             } else { // orphan the iterator

	jmp	SHORT $LN5@Orphan_ran
$LN4@Orphan_ran:

; 1708 :                 const auto _Temp = *_Pnext; // TRANSITION, VSO-1269037

	mov	rax, QWORD PTR _Pnext$[rbp]
	mov	rax, QWORD PTR [rax]
	mov	QWORD PTR _Temp$3[rbp], rax

; 1709 :                 _Temp->_Myproxy  = nullptr;

	mov	rax, QWORD PTR _Temp$3[rbp]
	mov	QWORD PTR [rax], 0

; 1710 :                 *_Pnext          = _Temp->_Mynextiter;

	mov	rax, QWORD PTR _Pnext$[rbp]
	mov	rcx, QWORD PTR _Temp$3[rbp]
	mov	rcx, QWORD PTR [rcx+8]
	mov	QWORD PTR [rax], rcx
$LN5@Orphan_ran:

; 1711 :             }
; 1712 :         }

	jmp	SHORT $LN2@Orphan_ran
$LN3@Orphan_ran:

; 1713 :     }

	lea	rsp, QWORD PTR [rbp+328]
	pop	rdi
	pop	rbp
	ret	0
?_Orphan_range_unlocked@?$vector@HV?$allocator@H@std@@@std@@AEBAXPEAH0@Z ENDP ; std::vector<int,std::allocator<int> >::_Orphan_range_unlocked
_TEXT	ENDS
; Function compile flags: /Odtp /RTCsu /ZI
; File C:\Program Files\Microsoft Visual Studio\2022\Community\VC\Tools\MSVC\14.31.31103\include\vector
;	COMDAT ?_Xlength@?$vector@HV?$allocator@H@std@@@std@@CAXXZ
_TEXT	SEGMENT
?_Xlength@?$vector@HV?$allocator@H@std@@@std@@CAXXZ PROC ; std::vector<int,std::allocator<int> >::_Xlength, COMDAT

; 1691 :     [[noreturn]] static void _Xlength() {

$LN3:
	push	rbp
	push	rdi
	sub	rsp, 232				; 000000e8H
	lea	rbp, QWORD PTR [rsp+32]
	lea	rcx, OFFSET FLAT:__F11C365E_vector
	call	__CheckForDebuggerJustMyCode

; 1692 :         _Xlength_error("vector too long");

	lea	rcx, OFFSET FLAT:??_C@_0BA@FOIKENOD@vector?5too?5long@
	call	?_Xlength_error@std@@YAXPEBD@Z		; std::_Xlength_error
$LN2@Xlength:

; 1693 :     }

	lea	rsp, QWORD PTR [rbp+200]
	pop	rdi
	pop	rbp
	ret	0
?_Xlength@?$vector@HV?$allocator@H@std@@@std@@CAXXZ ENDP ; std::vector<int,std::allocator<int> >::_Xlength
_TEXT	ENDS
; Function compile flags: /Odtp /RTCsu /ZI
; File C:\Program Files\Microsoft Visual Studio\2022\Community\VC\Tools\MSVC\14.31.31103\include\vector
;	COMDAT ?_Tidy@?$vector@HV?$allocator@H@std@@@std@@AEAAXXZ
_TEXT	SEGMENT
_Al$ = 8
_My_data$ = 40
_Myfirst$ = 72
_Mylast$ = 104
_Myend$ = 136
this$ = 384
?_Tidy@?$vector@HV?$allocator@H@std@@@std@@AEAAXXZ PROC	; std::vector<int,std::allocator<int> >::_Tidy, COMDAT

; 1610 :     _CONSTEXPR20 void _Tidy() noexcept { // free all storage

$LN4:
	mov	QWORD PTR [rsp+8], rcx
	push	rbp
	push	rdi
	sub	rsp, 392				; 00000188H
	lea	rbp, QWORD PTR [rsp+32]
	lea	rcx, OFFSET FLAT:__F11C365E_vector
	call	__CheckForDebuggerJustMyCode

; 1611 :         auto& _Al         = _Getal();

	mov	rcx, QWORD PTR this$[rbp]
	call	?_Getal@?$vector@HV?$allocator@H@std@@@std@@AEAAAEAV?$allocator@H@2@XZ ; std::vector<int,std::allocator<int> >::_Getal
	mov	QWORD PTR _Al$[rbp], rax

; 1612 :         auto& _My_data    = _Mypair._Myval2;

	mov	rax, QWORD PTR this$[rbp]
	mov	QWORD PTR _My_data$[rbp], rax

; 1613 :         pointer& _Myfirst = _My_data._Myfirst;

	mov	rax, QWORD PTR _My_data$[rbp]
	add	rax, 8
	mov	QWORD PTR _Myfirst$[rbp], rax

; 1614 :         pointer& _Mylast  = _My_data._Mylast;

	mov	rax, QWORD PTR _My_data$[rbp]
	add	rax, 16
	mov	QWORD PTR _Mylast$[rbp], rax

; 1615 :         pointer& _Myend   = _My_data._Myend;

	mov	rax, QWORD PTR _My_data$[rbp]
	add	rax, 24
	mov	QWORD PTR _Myend$[rbp], rax

; 1616 : 
; 1617 :         _My_data._Orphan_all();

	mov	rcx, QWORD PTR _My_data$[rbp]
	call	?_Orphan_all@_Container_base12@std@@QEAAXXZ ; std::_Container_base12::_Orphan_all

; 1618 : 
; 1619 :         if (_Myfirst) { // destroy and deallocate old array

	mov	rax, QWORD PTR _Myfirst$[rbp]
	cmp	QWORD PTR [rax], 0
	je	SHORT $LN2@Tidy

; 1620 :             _Destroy_range(_Myfirst, _Mylast, _Al);

	mov	r8, QWORD PTR _Al$[rbp]
	mov	rax, QWORD PTR _Mylast$[rbp]
	mov	rdx, QWORD PTR [rax]
	mov	rax, QWORD PTR _Myfirst$[rbp]
	mov	rcx, QWORD PTR [rax]
	call	??$_Destroy_range@V?$allocator@H@std@@@std@@YAXPEAHQEAHAEAV?$allocator@H@0@@Z ; std::_Destroy_range<std::allocator<int> >

; 1621 :             _Al.deallocate(_Myfirst, static_cast<size_type>(_Myend - _Myfirst));

	mov	rax, QWORD PTR _Myend$[rbp]
	mov	rcx, QWORD PTR _Myfirst$[rbp]
	mov	rcx, QWORD PTR [rcx]
	mov	rax, QWORD PTR [rax]
	sub	rax, rcx
	sar	rax, 2
	mov	r8, rax
	mov	rax, QWORD PTR _Myfirst$[rbp]
	mov	rdx, QWORD PTR [rax]
	mov	rcx, QWORD PTR _Al$[rbp]
	call	?deallocate@?$allocator@H@std@@QEAAXQEAH_K@Z ; std::allocator<int>::deallocate

; 1622 : 
; 1623 :             _Myfirst = nullptr;

	mov	rax, QWORD PTR _Myfirst$[rbp]
	mov	QWORD PTR [rax], 0

; 1624 :             _Mylast  = nullptr;

	mov	rax, QWORD PTR _Mylast$[rbp]
	mov	QWORD PTR [rax], 0

; 1625 :             _Myend   = nullptr;

	mov	rax, QWORD PTR _Myend$[rbp]
	mov	QWORD PTR [rax], 0
$LN2@Tidy:

; 1626 :         }
; 1627 :     }

	lea	rsp, QWORD PTR [rbp+360]
	pop	rdi
	pop	rbp
	ret	0
?_Tidy@?$vector@HV?$allocator@H@std@@@std@@AEAAXXZ ENDP	; std::vector<int,std::allocator<int> >::_Tidy
_TEXT	ENDS
; Function compile flags: /Odtp /RTCsu /ZI
; File C:\Program Files\Microsoft Visual Studio\2022\Community\VC\Tools\MSVC\14.31.31103\include\vector
;	COMDAT ?_Change_array@?$vector@HV?$allocator@H@std@@@std@@AEAAXQEAH_K1@Z
_TEXT	SEGMENT
_Al$ = 8
_My_data$ = 40
_Myfirst$ = 72
_Mylast$ = 104
_Myend$ = 136
this$ = 384
_Newvec$ = 392
_Newsize$ = 400
_Newcapacity$ = 408
?_Change_array@?$vector@HV?$allocator@H@std@@@std@@AEAAXQEAH_K1@Z PROC ; std::vector<int,std::allocator<int> >::_Change_array, COMDAT

; 1590 :     _CONSTEXPR20 void _Change_array(const pointer _Newvec, const size_type _Newsize, const size_type _Newcapacity) {

$LN4:
	mov	QWORD PTR [rsp+32], r9
	mov	QWORD PTR [rsp+24], r8
	mov	QWORD PTR [rsp+16], rdx
	mov	QWORD PTR [rsp+8], rcx
	push	rbp
	push	rdi
	sub	rsp, 392				; 00000188H
	lea	rbp, QWORD PTR [rsp+32]
	lea	rcx, OFFSET FLAT:__F11C365E_vector
	call	__CheckForDebuggerJustMyCode

; 1591 :         // orphan all iterators, discard old array, acquire new array
; 1592 :         auto& _Al         = _Getal();

	mov	rcx, QWORD PTR this$[rbp]
	call	?_Getal@?$vector@HV?$allocator@H@std@@@std@@AEAAAEAV?$allocator@H@2@XZ ; std::vector<int,std::allocator<int> >::_Getal
	mov	QWORD PTR _Al$[rbp], rax

; 1593 :         auto& _My_data    = _Mypair._Myval2;

	mov	rax, QWORD PTR this$[rbp]
	mov	QWORD PTR _My_data$[rbp], rax

; 1594 :         pointer& _Myfirst = _My_data._Myfirst;

	mov	rax, QWORD PTR _My_data$[rbp]
	add	rax, 8
	mov	QWORD PTR _Myfirst$[rbp], rax

; 1595 :         pointer& _Mylast  = _My_data._Mylast;

	mov	rax, QWORD PTR _My_data$[rbp]
	add	rax, 16
	mov	QWORD PTR _Mylast$[rbp], rax

; 1596 :         pointer& _Myend   = _My_data._Myend;

	mov	rax, QWORD PTR _My_data$[rbp]
	add	rax, 24
	mov	QWORD PTR _Myend$[rbp], rax

; 1597 : 
; 1598 :         _My_data._Orphan_all();

	mov	rcx, QWORD PTR _My_data$[rbp]
	call	?_Orphan_all@_Container_base12@std@@QEAAXXZ ; std::_Container_base12::_Orphan_all

; 1599 : 
; 1600 :         if (_Myfirst) { // destroy and deallocate old array

	mov	rax, QWORD PTR _Myfirst$[rbp]
	cmp	QWORD PTR [rax], 0
	je	SHORT $LN2@Change_arr

; 1601 :             _Destroy_range(_Myfirst, _Mylast, _Al);

	mov	r8, QWORD PTR _Al$[rbp]
	mov	rax, QWORD PTR _Mylast$[rbp]
	mov	rdx, QWORD PTR [rax]
	mov	rax, QWORD PTR _Myfirst$[rbp]
	mov	rcx, QWORD PTR [rax]
	call	??$_Destroy_range@V?$allocator@H@std@@@std@@YAXPEAHQEAHAEAV?$allocator@H@0@@Z ; std::_Destroy_range<std::allocator<int> >

; 1602 :             _Al.deallocate(_Myfirst, static_cast<size_type>(_Myend - _Myfirst));

	mov	rax, QWORD PTR _Myend$[rbp]
	mov	rcx, QWORD PTR _Myfirst$[rbp]
	mov	rcx, QWORD PTR [rcx]
	mov	rax, QWORD PTR [rax]
	sub	rax, rcx
	sar	rax, 2
	mov	r8, rax
	mov	rax, QWORD PTR _Myfirst$[rbp]
	mov	rdx, QWORD PTR [rax]
	mov	rcx, QWORD PTR _Al$[rbp]
	call	?deallocate@?$allocator@H@std@@QEAAXQEAH_K@Z ; std::allocator<int>::deallocate
$LN2@Change_arr:

; 1603 :         }
; 1604 : 
; 1605 :         _Myfirst = _Newvec;

	mov	rax, QWORD PTR _Myfirst$[rbp]
	mov	rcx, QWORD PTR _Newvec$[rbp]
	mov	QWORD PTR [rax], rcx

; 1606 :         _Mylast  = _Newvec + _Newsize;

	mov	rax, QWORD PTR _Newvec$[rbp]
	mov	rcx, QWORD PTR _Newsize$[rbp]
	lea	rax, QWORD PTR [rax+rcx*4]
	mov	rcx, QWORD PTR _Mylast$[rbp]
	mov	QWORD PTR [rcx], rax

; 1607 :         _Myend   = _Newvec + _Newcapacity;

	mov	rax, QWORD PTR _Newvec$[rbp]
	mov	rcx, QWORD PTR _Newcapacity$[rbp]
	lea	rax, QWORD PTR [rax+rcx*4]
	mov	rcx, QWORD PTR _Myend$[rbp]
	mov	QWORD PTR [rcx], rax

; 1608 :     }

	lea	rsp, QWORD PTR [rbp+360]
	pop	rdi
	pop	rbp
	ret	0
?_Change_array@?$vector@HV?$allocator@H@std@@@std@@AEAAXQEAH_K1@Z ENDP ; std::vector<int,std::allocator<int> >::_Change_array
_TEXT	ENDS
; Function compile flags: /Odtp /RTCsu /ZI
; File C:\Program Files\Microsoft Visual Studio\2022\Community\VC\Tools\MSVC\14.31.31103\include\vector
;	COMDAT ?_Calculate_growth@?$vector@HV?$allocator@H@std@@@std@@AEBA_K_K@Z
_TEXT	SEGMENT
_Oldcapacity$ = 8
_Max$ = 40
_Geometric$ = 72
this$ = 320
_Newsize$ = 328
?_Calculate_growth@?$vector@HV?$allocator@H@std@@@std@@AEBA_K_K@Z PROC ; std::vector<int,std::allocator<int> >::_Calculate_growth, COMDAT

; 1538 :     _CONSTEXPR20 size_type _Calculate_growth(const size_type _Newsize) const {

$LN5:
	mov	QWORD PTR [rsp+16], rdx
	mov	QWORD PTR [rsp+8], rcx
	push	rbp
	push	rdi
	sub	rsp, 328				; 00000148H
	lea	rbp, QWORD PTR [rsp+32]
	lea	rcx, OFFSET FLAT:__F11C365E_vector
	call	__CheckForDebuggerJustMyCode

; 1539 :         // given _Oldcapacity and _Newsize, calculate geometric growth
; 1540 :         const size_type _Oldcapacity = capacity();

	mov	rcx, QWORD PTR this$[rbp]
	call	?capacity@?$vector@HV?$allocator@H@std@@@std@@QEBA_KXZ ; std::vector<int,std::allocator<int> >::capacity
	mov	QWORD PTR _Oldcapacity$[rbp], rax

; 1541 :         const auto _Max              = max_size();

	mov	rcx, QWORD PTR this$[rbp]
	call	?max_size@?$vector@HV?$allocator@H@std@@@std@@QEBA_KXZ ; std::vector<int,std::allocator<int> >::max_size
	mov	QWORD PTR _Max$[rbp], rax

; 1542 : 
; 1543 :         if (_Oldcapacity > _Max - _Oldcapacity / 2) {

	xor	edx, edx
	mov	rax, QWORD PTR _Oldcapacity$[rbp]
	mov	ecx, 2
	div	rcx
	mov	rcx, QWORD PTR _Max$[rbp]
	sub	rcx, rax
	mov	rax, rcx
	cmp	QWORD PTR _Oldcapacity$[rbp], rax
	jbe	SHORT $LN2@Calculate_

; 1544 :             return _Max; // geometric growth would overflow

	mov	rax, QWORD PTR _Max$[rbp]
	jmp	SHORT $LN1@Calculate_
$LN2@Calculate_:

; 1545 :         }
; 1546 : 
; 1547 :         const size_type _Geometric = _Oldcapacity + _Oldcapacity / 2;

	xor	edx, edx
	mov	rax, QWORD PTR _Oldcapacity$[rbp]
	mov	ecx, 2
	div	rcx
	mov	rcx, QWORD PTR _Oldcapacity$[rbp]
	add	rcx, rax
	mov	rax, rcx
	mov	QWORD PTR _Geometric$[rbp], rax

; 1548 : 
; 1549 :         if (_Geometric < _Newsize) {

	mov	rax, QWORD PTR _Newsize$[rbp]
	cmp	QWORD PTR _Geometric$[rbp], rax
	jae	SHORT $LN3@Calculate_

; 1550 :             return _Newsize; // geometric growth would be insufficient

	mov	rax, QWORD PTR _Newsize$[rbp]
	jmp	SHORT $LN1@Calculate_
$LN3@Calculate_:

; 1551 :         }
; 1552 : 
; 1553 :         return _Geometric; // geometric growth is sufficient

	mov	rax, QWORD PTR _Geometric$[rbp]
$LN1@Calculate_:

; 1554 :     }

	lea	rsp, QWORD PTR [rbp+296]
	pop	rdi
	pop	rbp
	ret	0
?_Calculate_growth@?$vector@HV?$allocator@H@std@@@std@@AEBA_K_K@Z ENDP ; std::vector<int,std::allocator<int> >::_Calculate_growth
_TEXT	ENDS
; Function compile flags: /Odtp /RTCsu /ZI
; File C:\Program Files\Microsoft Visual Studio\2022\Community\VC\Tools\MSVC\14.31.31103\include\vector
;	COMDAT ??A?$vector@HV?$allocator@H@std@@@std@@QEAAAEAH_K@Z
_TEXT	SEGMENT
_My_data$ = 8
this$ = 256
_Pos$ = 264
??A?$vector@HV?$allocator@H@std@@@std@@QEAAAEAH_K@Z PROC ; std::vector<int,std::allocator<int> >::operator[], COMDAT

; 1459 :     _NODISCARD _CONSTEXPR20 _Ty& operator[](const size_type _Pos) noexcept /* strengthened */ {

$LN12:
	mov	QWORD PTR [rsp+16], rdx
	mov	QWORD PTR [rsp+8], rcx
	push	rbp
	push	rdi
	sub	rsp, 280				; 00000118H
	lea	rbp, QWORD PTR [rsp+48]
	lea	rcx, OFFSET FLAT:__F11C365E_vector
	call	__CheckForDebuggerJustMyCode

; 1460 :         auto& _My_data = _Mypair._Myval2;

	mov	rax, QWORD PTR this$[rbp]
	mov	QWORD PTR _My_data$[rbp], rax
$LN4@operator:

; 1461 : #if _CONTAINER_DEBUG_LEVEL > 0
; 1462 :         _STL_VERIFY(

	mov	rax, QWORD PTR _My_data$[rbp]
	mov	rcx, QWORD PTR _My_data$[rbp]
	mov	rcx, QWORD PTR [rcx+8]
	mov	rax, QWORD PTR [rax+16]
	sub	rax, rcx
	sar	rax, 2
	cmp	QWORD PTR _Pos$[rbp], rax
	jae	SHORT $LN7@operator
	jmp	SHORT $LN9@operator
$LN7@operator:
	lea	rax, OFFSET FLAT:??_C@_0BO@PFKOHNJC@vector?5subscript?5out?5of?5range@
	mov	QWORD PTR [rsp+40], rax
	lea	rax, OFFSET FLAT:??_C@_02DKCKIIND@?$CFs@
	mov	QWORD PTR [rsp+32], rax
	xor	r9d, r9d
	mov	r8d, 1463				; 000005b7H
	lea	rdx, OFFSET FLAT:??_C@_0GB@JAALAKDN@C?3?2Program?5Files?2Microsoft?5Visu@
	mov	ecx, 2
	call	QWORD PTR __imp__CrtDbgReport
	cmp	eax, 1
	jne	SHORT $LN11@operator
	int	3
	xor	eax, eax
$LN11@operator:
	mov	QWORD PTR [rsp+32], 0
	mov	r9d, 1463				; 000005b7H
	lea	r8, OFFSET FLAT:??_C@_1MC@BOBIJOFG@?$AAC?$AA?3?$AA?2?$AAP?$AAr?$AAo?$AAg?$AAr?$AAa?$AAm?$AA?5?$AAF?$AAi?$AAl?$AAe@
	lea	rdx, OFFSET FLAT:??_C@_11LOCGONAA@@
	lea	rcx, OFFSET FLAT:??_C@_1EA@LEKOKFNB@?$AA?$CC?$AAv?$AAe?$AAc?$AAt?$AAo?$AAr?$AA?5?$AAs?$AAu?$AAb?$AAs?$AAc?$AAr?$AAi@
	call	QWORD PTR __imp__invalid_parameter
	xor	eax, eax
	test	eax, eax
	jne	SHORT $LN7@operator
$LN9@operator:
	xor	eax, eax
	test	eax, eax
	jne	$LN4@operator

; 1463 :             _Pos < static_cast<size_type>(_My_data._Mylast - _My_data._Myfirst), "vector subscript out of range");
; 1464 : #endif // _CONTAINER_DEBUG_LEVEL > 0
; 1465 : 
; 1466 :         return _My_data._Myfirst[_Pos];

	mov	rax, QWORD PTR _My_data$[rbp]
	mov	rax, QWORD PTR [rax+8]
	mov	rcx, QWORD PTR _Pos$[rbp]
	lea	rax, QWORD PTR [rax+rcx*4]

; 1467 :     }

	lea	rsp, QWORD PTR [rbp+232]
	pop	rdi
	pop	rbp
	ret	0
??A?$vector@HV?$allocator@H@std@@@std@@QEAAAEAH_K@Z ENDP ; std::vector<int,std::allocator<int> >::operator[]
_TEXT	ENDS
; Function compile flags: /Odtp /RTCsu /ZI
; File C:\Program Files\Microsoft Visual Studio\2022\Community\VC\Tools\MSVC\14.31.31103\include\vector
;	COMDAT ?capacity@?$vector@HV?$allocator@H@std@@@std@@QEBA_KXZ
_TEXT	SEGMENT
_My_data$ = 8
this$ = 256
?capacity@?$vector@HV?$allocator@H@std@@@std@@QEBA_KXZ PROC ; std::vector<int,std::allocator<int> >::capacity, COMDAT

; 1454 :     _NODISCARD _CONSTEXPR20 size_type capacity() const noexcept {

$LN3:
	mov	QWORD PTR [rsp+8], rcx
	push	rbp
	push	rdi
	sub	rsp, 264				; 00000108H
	lea	rbp, QWORD PTR [rsp+32]
	lea	rcx, OFFSET FLAT:__F11C365E_vector
	call	__CheckForDebuggerJustMyCode

; 1455 :         auto& _My_data = _Mypair._Myval2;

	mov	rax, QWORD PTR this$[rbp]
	mov	QWORD PTR _My_data$[rbp], rax

; 1456 :         return static_cast<size_type>(_My_data._Myend - _My_data._Myfirst);

	mov	rax, QWORD PTR _My_data$[rbp]
	mov	rcx, QWORD PTR _My_data$[rbp]
	mov	rcx, QWORD PTR [rcx+8]
	mov	rax, QWORD PTR [rax+24]
	sub	rax, rcx
	sar	rax, 2

; 1457 :     }

	lea	rsp, QWORD PTR [rbp+232]
	pop	rdi
	pop	rbp
	ret	0
?capacity@?$vector@HV?$allocator@H@std@@@std@@QEBA_KXZ ENDP ; std::vector<int,std::allocator<int> >::capacity
_TEXT	ENDS
; Function compile flags: /Odtp /RTCsu /ZI
; File C:\Program Files\Microsoft Visual Studio\2022\Community\VC\Tools\MSVC\14.31.31103\include\vector
;	COMDAT ?max_size@?$vector@HV?$allocator@H@std@@@std@@QEBA_KXZ
_TEXT	SEGMENT
$T1 = 200
$T2 = 232
this$ = 288
?max_size@?$vector@HV?$allocator@H@std@@@std@@QEBA_KXZ PROC ; std::vector<int,std::allocator<int> >::max_size, COMDAT

; 1449 :     _NODISCARD _CONSTEXPR20 size_type max_size() const noexcept {

$LN3:
	mov	QWORD PTR [rsp+8], rcx
	push	rbp
	push	rdi
	sub	rsp, 296				; 00000128H
	lea	rbp, QWORD PTR [rsp+32]
	lea	rcx, OFFSET FLAT:__F11C365E_vector
	call	__CheckForDebuggerJustMyCode

; 1450 :         return (_STD min) (static_cast<size_type>((numeric_limits<difference_type>::max) ()),

	mov	rcx, QWORD PTR this$[rbp]
	call	?_Getal@?$vector@HV?$allocator@H@std@@@std@@AEBAAEBV?$allocator@H@2@XZ ; std::vector<int,std::allocator<int> >::_Getal
	mov	rcx, rax
	call	?max_size@?$_Default_allocator_traits@V?$allocator@H@std@@@std@@SA_KAEBV?$allocator@H@2@@Z ; std::_Default_allocator_traits<std::allocator<int> >::max_size
	mov	QWORD PTR $T1[rbp], rax
	call	?max@?$numeric_limits@_J@std@@SA_JXZ	; std::numeric_limits<__int64>::max
	mov	QWORD PTR $T2[rbp], rax
	lea	rdx, QWORD PTR $T1[rbp]
	lea	rcx, QWORD PTR $T2[rbp]
	call	??$min@_K@std@@YAAEB_KAEB_K0@Z		; std::min<unsigned __int64>
	mov	rax, QWORD PTR [rax]

; 1451 :             _Alty_traits::max_size(_Getal()));
; 1452 :     }

	lea	rsp, QWORD PTR [rbp+264]
	pop	rdi
	pop	rbp
	ret	0
?max_size@?$vector@HV?$allocator@H@std@@@std@@QEBA_KXZ ENDP ; std::vector<int,std::allocator<int> >::max_size
_TEXT	ENDS
; Function compile flags: /Odtp /RTCsu /ZI
; File C:\Program Files\Microsoft Visual Studio\2022\Community\VC\Tools\MSVC\14.31.31103\include\vector
;	COMDAT ?push_back@?$vector@HV?$allocator@H@std@@@std@@QEAAX$$QEAH@Z
_TEXT	SEGMENT
this$ = 224
_Val$ = 232
?push_back@?$vector@HV?$allocator@H@std@@@std@@QEAAX$$QEAH@Z PROC ; std::vector<int,std::allocator<int> >::push_back, COMDAT

; 640  :     _CONSTEXPR20 void push_back(_Ty&& _Val) {

$LN3:
	mov	QWORD PTR [rsp+16], rdx
	mov	QWORD PTR [rsp+8], rcx
	push	rbp
	push	rdi
	sub	rsp, 232				; 000000e8H
	lea	rbp, QWORD PTR [rsp+32]
	lea	rcx, OFFSET FLAT:__F11C365E_vector
	call	__CheckForDebuggerJustMyCode

; 641  :         // insert by moving into element at end, provide strong guarantee
; 642  :         emplace_back(_STD move(_Val));

	mov	rcx, QWORD PTR _Val$[rbp]
	call	??$move@AEAH@std@@YA$$QEAHAEAH@Z	; std::move<int &>
	mov	rdx, rax
	mov	rcx, QWORD PTR this$[rbp]
	call	??$emplace_back@H@?$vector@HV?$allocator@H@std@@@std@@QEAA?A_T$$QEAH@Z ; std::vector<int,std::allocator<int> >::emplace_back<int>

; 643  :     }

	lea	rsp, QWORD PTR [rbp+200]
	pop	rdi
	pop	rbp
	ret	0
?push_back@?$vector@HV?$allocator@H@std@@@std@@QEAAX$$QEAH@Z ENDP ; std::vector<int,std::allocator<int> >::push_back
_TEXT	ENDS
; Function compile flags: /Odtp /RTCsu /ZI
; File C:\Program Files\Microsoft Visual Studio\2022\Community\VC\Tools\MSVC\14.31.31103\include\vector
;	COMDAT ??1?$vector@HV?$allocator@H@std@@@std@@QEAA@XZ
_TEXT	SEGMENT
_Alproxy$ = 8
$S1$ = 36
$T4 = 260
__$ArrayPad$ = 280
this$ = 320
??1?$vector@HV?$allocator@H@std@@@std@@QEAA@XZ PROC	; std::vector<int,std::allocator<int> >::~vector<int,std::allocator<int> >, COMDAT

; 592  :     _CONSTEXPR20 ~vector() noexcept {

$LN3:
	mov	QWORD PTR [rsp+8], rcx
	push	rbp
	push	rdi
	sub	rsp, 328				; 00000148H
	lea	rbp, QWORD PTR [rsp+32]
	lea	rdi, QWORD PTR [rsp+32]
	mov	ecx, 26
	mov	eax, -858993460				; ccccccccH
	rep stosd
	mov	rcx, QWORD PTR [rsp+360]
	mov	rax, QWORD PTR __security_cookie
	xor	rax, rbp
	mov	QWORD PTR __$ArrayPad$[rbp], rax
	lea	rcx, OFFSET FLAT:__F11C365E_vector
	call	__CheckForDebuggerJustMyCode

; 593  :         _Tidy();

	mov	rcx, QWORD PTR this$[rbp]
	call	?_Tidy@?$vector@HV?$allocator@H@std@@@std@@AEAAXXZ ; std::vector<int,std::allocator<int> >::_Tidy

; 594  : #if _ITERATOR_DEBUG_LEVEL != 0
; 595  :         auto&& _Alproxy = _GET_PROXY_ALLOCATOR(_Alty, _Getal());

	mov	rcx, QWORD PTR this$[rbp]
	call	?_Getal@?$vector@HV?$allocator@H@std@@@std@@AEAAAEAV?$allocator@H@2@XZ ; std::vector<int,std::allocator<int> >::_Getal
	mov	rdx, rax
	lea	rcx, QWORD PTR $S1$[rbp]
	call	??$?0H@?$allocator@U_Container_proxy@std@@@std@@QEAA@AEBV?$allocator@H@1@@Z ; std::allocator<std::_Container_proxy>::allocator<std::_Container_proxy><int>
	lea	rax, QWORD PTR $S1$[rbp]
	mov	QWORD PTR _Alproxy$[rbp], rax

; 596  :         _Delete_plain_internal(_Alproxy, _STD exchange(_Mypair._Myval2._Myproxy, nullptr));

	mov	QWORD PTR $T4[rbp], 0
	mov	rax, QWORD PTR this$[rbp]
	lea	rdx, QWORD PTR $T4[rbp]
	mov	rcx, rax
	call	??$exchange@PEAU_Container_proxy@std@@$$T@std@@YAPEAU_Container_proxy@0@AEAPEAU10@$$QEA$$T@Z ; std::exchange<std::_Container_proxy *,std::nullptr_t>
	mov	rdx, rax
	mov	rcx, QWORD PTR _Alproxy$[rbp]
	call	??$_Delete_plain_internal@V?$allocator@U_Container_proxy@std@@@std@@@std@@YAXAEAV?$allocator@U_Container_proxy@std@@@0@QEAU_Container_proxy@0@@Z ; std::_Delete_plain_internal<std::allocator<std::_Container_proxy> >

; 597  : #endif // _ITERATOR_DEBUG_LEVEL != 0
; 598  :     }

	lea	rcx, QWORD PTR [rbp-32]
	lea	rdx, OFFSET FLAT:??1?$vector@HV?$allocator@H@std@@@std@@QEAA@XZ$rtcFrameData
	call	_RTC_CheckStackVars
	mov	rcx, QWORD PTR __$ArrayPad$[rbp]
	xor	rcx, rbp
	call	__security_check_cookie
	lea	rsp, QWORD PTR [rbp+296]
	pop	rdi
	pop	rbp
	ret	0
??1?$vector@HV?$allocator@H@std@@@std@@QEAA@XZ ENDP	; std::vector<int,std::allocator<int> >::~vector<int,std::allocator<int> >
_TEXT	ENDS
; Function compile flags: /Odtp /RTCsu /ZI
; File C:\Program Files\Microsoft Visual Studio\2022\Community\VC\Tools\MSVC\14.31.31103\include\vector
;	COMDAT ??0?$vector@HV?$allocator@H@std@@@std@@QEAA@XZ
_TEXT	SEGMENT
$T1 = 196
$T2 = 228
tv83 = 248
tv69 = 248
this$ = 288
??0?$vector@HV?$allocator@H@std@@@std@@QEAA@XZ PROC	; std::vector<int,std::allocator<int> >::vector<int,std::allocator<int> >, COMDAT

; 464  :     _CONSTEXPR20 vector() noexcept(is_nothrow_default_constructible_v<_Alty>) : _Mypair(_Zero_then_variadic_args_t{}) {

$LN3:
	mov	QWORD PTR [rsp+8], rcx
	push	rbp
	push	rdi
	sub	rsp, 296				; 00000128H
	lea	rbp, QWORD PTR [rsp+32]
	lea	rcx, OFFSET FLAT:__F11C365E_vector
	call	__CheckForDebuggerJustMyCode
	mov	rax, QWORD PTR this$[rbp]
	mov	QWORD PTR tv69[rbp], rax
	movzx	edx, BYTE PTR $T1[rbp]
	mov	rcx, QWORD PTR tv69[rbp]
	call	??$?0$$V@?$_Compressed_pair@V?$allocator@H@std@@V?$_Vector_val@U?$_Simple_types@H@std@@@2@$00@std@@QEAA@U_Zero_then_variadic_args_t@1@@Z ; std::_Compressed_pair<std::allocator<int>,std::_Vector_val<std::_Simple_types<int> >,1>::_Compressed_pair<std::allocator<int>,std::_Vector_val<std::_Simple_types<int> >,1><>

; 465  :         _Mypair._Myval2._Alloc_proxy(_GET_PROXY_ALLOCATOR(_Alty, _Getal()));

	mov	rax, QWORD PTR this$[rbp]
	mov	QWORD PTR tv83[rbp], rax
	mov	rcx, QWORD PTR this$[rbp]
	call	?_Getal@?$vector@HV?$allocator@H@std@@@std@@AEAAAEAV?$allocator@H@2@XZ ; std::vector<int,std::allocator<int> >::_Getal
	mov	rdx, rax
	lea	rcx, QWORD PTR $T2[rbp]
	call	??$?0H@?$allocator@U_Container_proxy@std@@@std@@QEAA@AEBV?$allocator@H@1@@Z ; std::allocator<std::_Container_proxy>::allocator<std::_Container_proxy><int>
	mov	rdx, rax
	mov	rcx, QWORD PTR tv83[rbp]
	call	??$_Alloc_proxy@V?$allocator@U_Container_proxy@std@@@std@@@_Container_base12@std@@QEAAX$$QEAV?$allocator@U_Container_proxy@std@@@1@@Z ; std::_Container_base12::_Alloc_proxy<std::allocator<std::_Container_proxy> >

; 466  :     }

	mov	rax, QWORD PTR this$[rbp]
	lea	rsp, QWORD PTR [rbp+264]
	pop	rdi
	pop	rbp
	ret	0
??0?$vector@HV?$allocator@H@std@@@std@@QEAA@XZ ENDP	; std::vector<int,std::allocator<int> >::vector<int,std::allocator<int> >
_TEXT	ENDS
; Function compile flags: /Odtp /RTCsu /ZI
; File C:\Program Files\Microsoft Visual Studio\2022\Community\VC\Tools\MSVC\14.31.31103\include\xmemory
;	COMDAT ?max_size@?$_Default_allocator_traits@V?$allocator@H@std@@@std@@SA_KAEBV?$allocator@H@2@@Z
_TEXT	SEGMENT
__formal$ = 224
?max_size@?$_Default_allocator_traits@V?$allocator@H@std@@@std@@SA_KAEBV?$allocator@H@2@@Z PROC ; std::_Default_allocator_traits<std::allocator<int> >::max_size, COMDAT

; 693  :     _NODISCARD static _CONSTEXPR20 size_type max_size(const _Alloc&) noexcept {

$LN3:
	mov	QWORD PTR [rsp+8], rcx
	push	rbp
	push	rdi
	sub	rsp, 232				; 000000e8H
	lea	rbp, QWORD PTR [rsp+32]
	lea	rcx, OFFSET FLAT:__BBC6BDD8_xmemory
	call	__CheckForDebuggerJustMyCode

; 694  :         return static_cast<size_t>(-1) / sizeof(value_type);

	mov	rax, 4611686018427387903		; 3fffffffffffffffH

; 695  :     }

	lea	rsp, QWORD PTR [rbp+200]
	pop	rdi
	pop	rbp
	ret	0
?max_size@?$_Default_allocator_traits@V?$allocator@H@std@@@std@@SA_KAEBV?$allocator@H@2@@Z ENDP ; std::_Default_allocator_traits<std::allocator<int> >::max_size
_TEXT	ENDS
; Function compile flags: /Odtp /RTCsu /ZI
; File C:\Program Files\Microsoft Visual Studio\2022\Community\VC\Tools\MSVC\14.31.31103\include\xmemory
;	COMDAT ?allocate@?$allocator@H@std@@QEAAPEAH_K@Z
_TEXT	SEGMENT
this$ = 224
_Count$ = 232
?allocate@?$allocator@H@std@@QEAAPEAH_K@Z PROC		; std::allocator<int>::allocate, COMDAT

; 830  :     _NODISCARD _CONSTEXPR20 __declspec(allocator) _Ty* allocate(_CRT_GUARDOVERFLOW const size_t _Count) {

$LN3:
	mov	QWORD PTR [rsp+16], rdx
	mov	QWORD PTR [rsp+8], rcx
	push	rbp
	push	rdi
	sub	rsp, 232				; 000000e8H
	lea	rbp, QWORD PTR [rsp+32]
	lea	rcx, OFFSET FLAT:__BBC6BDD8_xmemory
	call	__CheckForDebuggerJustMyCode

; 831  :         return static_cast<_Ty*>(_Allocate<_New_alignof<_Ty>>(_Get_size_of_n<sizeof(_Ty)>(_Count)));

	mov	rcx, QWORD PTR _Count$[rbp]
	call	??$_Get_size_of_n@$03@std@@YA_K_K@Z	; std::_Get_size_of_n<4>
	mov	rcx, rax
	call	??$_Allocate@$0BA@U_Default_allocate_traits@std@@$0A@@std@@YAPEAX_K@Z ; std::_Allocate<16,std::_Default_allocate_traits,0>

; 832  :     }

	lea	rsp, QWORD PTR [rbp+200]
	pop	rdi
	pop	rbp
	ret	0
?allocate@?$allocator@H@std@@QEAAPEAH_K@Z ENDP		; std::allocator<int>::allocate
_TEXT	ENDS
; Function compile flags: /Odtp /RTCsu /ZI
; File C:\Program Files\Microsoft Visual Studio\2022\Community\VC\Tools\MSVC\14.31.31103\include\xmemory
;	COMDAT ?deallocate@?$allocator@H@std@@QEAAXQEAH_K@Z
_TEXT	SEGMENT
this$ = 224
_Ptr$ = 232
_Count$ = 240
?deallocate@?$allocator@H@std@@QEAAXQEAH_K@Z PROC	; std::allocator<int>::deallocate, COMDAT

; 825  :     _CONSTEXPR20 void deallocate(_Ty* const _Ptr, const size_t _Count) {

$LN3:
	mov	QWORD PTR [rsp+24], r8
	mov	QWORD PTR [rsp+16], rdx
	mov	QWORD PTR [rsp+8], rcx
	push	rbp
	push	rdi
	sub	rsp, 232				; 000000e8H
	lea	rbp, QWORD PTR [rsp+32]
	lea	rcx, OFFSET FLAT:__BBC6BDD8_xmemory
	call	__CheckForDebuggerJustMyCode

; 826  :         // no overflow check on the following multiply; we assume _Allocate did that check
; 827  :         _Deallocate<_New_alignof<_Ty>>(_Ptr, sizeof(_Ty) * _Count);

	mov	rax, QWORD PTR _Count$[rbp]
	shl	rax, 2
	mov	rdx, rax
	mov	rcx, QWORD PTR _Ptr$[rbp]
	call	??$_Deallocate@$0BA@$0A@@std@@YAXPEAX_K@Z ; std::_Deallocate<16,0>

; 828  :     }

	lea	rsp, QWORD PTR [rbp+200]
	pop	rdi
	pop	rbp
	ret	0
?deallocate@?$allocator@H@std@@QEAAXQEAH_K@Z ENDP	; std::allocator<int>::deallocate
_TEXT	ENDS
; Function compile flags: /Odtp /RTCsu /ZI
; File C:\Program Files\Microsoft Visual Studio\2022\Community\VC\Tools\MSVC\14.31.31103\include\xmemory
;	COMDAT ??0?$allocator@H@std@@QEAA@XZ
_TEXT	SEGMENT
this$ = 224
??0?$allocator@H@std@@QEAA@XZ PROC			; std::allocator<int>::allocator<int>, COMDAT

; 817  :     constexpr allocator() noexcept {}

$LN3:
	mov	QWORD PTR [rsp+8], rcx
	push	rbp
	push	rdi
	sub	rsp, 232				; 000000e8H
	lea	rbp, QWORD PTR [rsp+32]
	lea	rcx, OFFSET FLAT:__BBC6BDD8_xmemory
	call	__CheckForDebuggerJustMyCode
	mov	rax, QWORD PTR this$[rbp]
	lea	rsp, QWORD PTR [rbp+200]
	pop	rdi
	pop	rbp
	ret	0
??0?$allocator@H@std@@QEAA@XZ ENDP			; std::allocator<int>::allocator<int>
_TEXT	ENDS
; Function compile flags: /Odtp /RTCsu /ZI
; File C:\Program Files\Microsoft Visual Studio\2022\Community\VC\Tools\MSVC\14.31.31103\include\ostream
;	COMDAT ??$endl@DU?$char_traits@D@std@@@std@@YAAEAV?$basic_ostream@DU?$char_traits@D@std@@@0@AEAV10@@Z
_TEXT	SEGMENT
tv80 = 192
_Ostr$ = 240
??$endl@DU?$char_traits@D@std@@@std@@YAAEAV?$basic_ostream@DU?$char_traits@D@std@@@0@AEAV10@@Z PROC ; std::endl<char,std::char_traits<char> >, COMDAT

; 1001 :     basic_ostream<_Elem, _Traits>& _Ostr) { // insert newline and flush stream

$LN3:
	mov	QWORD PTR [rsp+8], rcx
	push	rbp
	push	rdi
	sub	rsp, 248				; 000000f8H
	lea	rbp, QWORD PTR [rsp+32]
	lea	rcx, OFFSET FLAT:__033B95B1_ostream
	call	__CheckForDebuggerJustMyCode

; 1002 :     _Ostr.put(_Ostr.widen('\n'));

	mov	rax, QWORD PTR _Ostr$[rbp]
	mov	rax, QWORD PTR [rax]
	movsxd	rax, DWORD PTR [rax+4]
	mov	rcx, QWORD PTR _Ostr$[rbp]
	add	rcx, rax
	mov	rax, rcx
	mov	QWORD PTR tv80[rbp], rax
	mov	dl, 10
	mov	rcx, QWORD PTR tv80[rbp]
	call	QWORD PTR __imp_?widen@?$basic_ios@DU?$char_traits@D@std@@@std@@QEBADD@Z
	movzx	edx, al
	mov	rcx, QWORD PTR _Ostr$[rbp]
	call	QWORD PTR __imp_?put@?$basic_ostream@DU?$char_traits@D@std@@@std@@QEAAAEAV12@D@Z

; 1003 :     _Ostr.flush();

	mov	rcx, QWORD PTR _Ostr$[rbp]
	call	QWORD PTR __imp_?flush@?$basic_ostream@DU?$char_traits@D@std@@@std@@QEAAAEAV12@XZ

; 1004 :     return _Ostr;

	mov	rax, QWORD PTR _Ostr$[rbp]

; 1005 : }

	lea	rsp, QWORD PTR [rbp+216]
	pop	rdi
	pop	rbp
	ret	0
??$endl@DU?$char_traits@D@std@@@std@@YAAEAV?$basic_ostream@DU?$char_traits@D@std@@@0@AEAV10@@Z ENDP ; std::endl<char,std::char_traits<char> >
_TEXT	ENDS
; Function compile flags: /Odtp /RTCsu /ZI
; File C:\Dev\C++\Vector\Vector.cpp
;	COMDAT main
_TEXT	SEGMENT
integer$ = 4
integer2$ = 36
vec$ = 72
data$ = 144
vector$ = 248
$T6 = 676
$T7 = 708
$T8 = 740
$T9 = 772
$T10 = 804
$T11 = 840
$T12 = 904
$T13 = 964
tv194 = 980
tv182 = 980
tv170 = 980
tv158 = 980
tv146 = 980
tv254 = 984
tv240 = 984
tv226 = 984
tv206 = 984
tv199 = 984
tv187 = 984
tv175 = 984
tv163 = 984
tv151 = 984
tv92 = 984
tv85 = 984
tv78 = 984
tv71 = 984
tv242 = 992
tv228 = 992
tv247 = 1000
tv233 = 1000
__$ArrayPad$ = 1008
main	PROC						; COMDAT

; 16   : int main() {

$LN7:
	push	rbp
	push	rdi
	sub	rsp, 1064				; 00000428H
	lea	rbp, QWORD PTR [rsp+32]
	lea	rdi, QWORD PTR [rsp+32]
	mov	ecx, 162				; 000000a2H
	mov	eax, -858993460				; ccccccccH
	rep stosd
	mov	rax, QWORD PTR __security_cookie
	xor	rax, rbp
	mov	QWORD PTR __$ArrayPad$[rbp], rax
	lea	rcx, OFFSET FLAT:__4B95E802_Vector@cpp
	call	__CheckForDebuggerJustMyCode

; 17   : 
; 18   : 	std::cout << "These are integers" << std::endl;

	lea	rdx, OFFSET FLAT:??_C@_0BD@NLIPEFAP@These?5are?5integers@
	mov	rcx, QWORD PTR __imp_?cout@std@@3V?$basic_ostream@DU?$char_traits@D@std@@@1@A
	call	??$?6U?$char_traits@D@std@@@std@@YAAEAV?$basic_ostream@DU?$char_traits@D@std@@@0@AEAV10@PEBD@Z ; std::operator<<<std::char_traits<char> >
	mov	QWORD PTR tv71[rbp], rax
	lea	rdx, OFFSET FLAT:??$endl@DU?$char_traits@D@std@@@std@@YAAEAV?$basic_ostream@DU?$char_traits@D@std@@@0@AEAV10@@Z ; std::endl<char,std::char_traits<char> >
	mov	rcx, QWORD PTR tv71[rbp]
	call	QWORD PTR __imp_??6?$basic_ostream@DU?$char_traits@D@std@@@std@@QEAAAEAV01@P6AAEAV01@AEAV01@@Z@Z

; 19   : 	int integer = 0;

	mov	DWORD PTR integer$[rbp], 0

; 20   : 	int integer2 = 5;

	mov	DWORD PTR integer2$[rbp], 5

; 21   : 	
; 22   : 	std::cout << integer << std::endl;

	mov	edx, DWORD PTR integer$[rbp]
	mov	rcx, QWORD PTR __imp_?cout@std@@3V?$basic_ostream@DU?$char_traits@D@std@@@1@A
	call	QWORD PTR __imp_??6?$basic_ostream@DU?$char_traits@D@std@@@std@@QEAAAEAV01@H@Z
	mov	QWORD PTR tv78[rbp], rax
	lea	rdx, OFFSET FLAT:??$endl@DU?$char_traits@D@std@@@std@@YAAEAV?$basic_ostream@DU?$char_traits@D@std@@@0@AEAV10@@Z ; std::endl<char,std::char_traits<char> >
	mov	rcx, QWORD PTR tv78[rbp]
	call	QWORD PTR __imp_??6?$basic_ostream@DU?$char_traits@D@std@@@std@@QEAAAEAV01@P6AAEAV01@AEAV01@@Z@Z

; 23   : 	std::cout << integer2 << std::endl;

	mov	edx, DWORD PTR integer2$[rbp]
	mov	rcx, QWORD PTR __imp_?cout@std@@3V?$basic_ostream@DU?$char_traits@D@std@@@1@A
	call	QWORD PTR __imp_??6?$basic_ostream@DU?$char_traits@D@std@@@std@@QEAAAEAV01@H@Z
	mov	QWORD PTR tv85[rbp], rax
	lea	rdx, OFFSET FLAT:??$endl@DU?$char_traits@D@std@@@std@@YAAEAV?$basic_ostream@DU?$char_traits@D@std@@@0@AEAV10@@Z ; std::endl<char,std::char_traits<char> >
	mov	rcx, QWORD PTR tv85[rbp]
	call	QWORD PTR __imp_??6?$basic_ostream@DU?$char_traits@D@std@@@std@@QEAAAEAV01@P6AAEAV01@AEAV01@@Z@Z

; 24   : 
; 25   : 
; 26   : 	std::cout << "These are vector" << std::endl;

	lea	rdx, OFFSET FLAT:??_C@_0BB@JGKPHEKI@These?5are?5vector@
	mov	rcx, QWORD PTR __imp_?cout@std@@3V?$basic_ostream@DU?$char_traits@D@std@@@1@A
	call	??$?6U?$char_traits@D@std@@@std@@YAAEAV?$basic_ostream@DU?$char_traits@D@std@@@0@AEAV10@PEBD@Z ; std::operator<<<std::char_traits<char> >
	mov	QWORD PTR tv92[rbp], rax
	lea	rdx, OFFSET FLAT:??$endl@DU?$char_traits@D@std@@@std@@YAAEAV?$basic_ostream@DU?$char_traits@D@std@@@0@AEAV10@@Z ; std::endl<char,std::char_traits<char> >
	mov	rcx, QWORD PTR tv92[rbp]
	call	QWORD PTR __imp_??6?$basic_ostream@DU?$char_traits@D@std@@@std@@QEAAAEAV01@P6AAEAV01@AEAV01@@Z@Z

; 27   : 	std::vector<int> vec;

	mov	edx, 32					; 00000020H
	lea	rcx, QWORD PTR vec$[rbp]
	call	?__autoclassinit2@?$vector@HV?$allocator@H@std@@@std@@QEAAX_K@Z
	lea	rcx, QWORD PTR vec$[rbp]
	call	??0?$vector@HV?$allocator@H@std@@@std@@QEAA@XZ ; std::vector<int,std::allocator<int> >::vector<int,std::allocator<int> >
	npad	1

; 28   : 	vec.push_back(1);

	mov	DWORD PTR $T6[rbp], 1
	lea	rdx, QWORD PTR $T6[rbp]
	lea	rcx, QWORD PTR vec$[rbp]
	call	?push_back@?$vector@HV?$allocator@H@std@@@std@@QEAAX$$QEAH@Z ; std::vector<int,std::allocator<int> >::push_back

; 29   : 	vec.push_back(2);

	mov	DWORD PTR $T7[rbp], 2
	lea	rdx, QWORD PTR $T7[rbp]
	lea	rcx, QWORD PTR vec$[rbp]
	call	?push_back@?$vector@HV?$allocator@H@std@@@std@@QEAAX$$QEAH@Z ; std::vector<int,std::allocator<int> >::push_back

; 30   : 	vec.push_back(3);

	mov	DWORD PTR $T8[rbp], 3
	lea	rdx, QWORD PTR $T8[rbp]
	lea	rcx, QWORD PTR vec$[rbp]
	call	?push_back@?$vector@HV?$allocator@H@std@@@std@@QEAAX$$QEAH@Z ; std::vector<int,std::allocator<int> >::push_back

; 31   : 	vec.push_back(4);

	mov	DWORD PTR $T9[rbp], 4
	lea	rdx, QWORD PTR $T9[rbp]
	lea	rcx, QWORD PTR vec$[rbp]
	call	?push_back@?$vector@HV?$allocator@H@std@@@std@@QEAAX$$QEAH@Z ; std::vector<int,std::allocator<int> >::push_back

; 32   : 	vec.push_back(5);

	mov	DWORD PTR $T10[rbp], 5
	lea	rdx, QWORD PTR $T10[rbp]
	lea	rcx, QWORD PTR vec$[rbp]
	call	?push_back@?$vector@HV?$allocator@H@std@@@std@@QEAAX$$QEAH@Z ; std::vector<int,std::allocator<int> >::push_back

; 33   : 
; 34   : 	std::cout << vec[0] << std::endl;

	xor	edx, edx
	lea	rcx, QWORD PTR vec$[rbp]
	call	??A?$vector@HV?$allocator@H@std@@@std@@QEAAAEAH_K@Z ; std::vector<int,std::allocator<int> >::operator[]
	mov	eax, DWORD PTR [rax]
	mov	DWORD PTR tv146[rbp], eax
	mov	edx, DWORD PTR tv146[rbp]
	mov	rcx, QWORD PTR __imp_?cout@std@@3V?$basic_ostream@DU?$char_traits@D@std@@@1@A
	call	QWORD PTR __imp_??6?$basic_ostream@DU?$char_traits@D@std@@@std@@QEAAAEAV01@H@Z
	mov	QWORD PTR tv151[rbp], rax
	lea	rdx, OFFSET FLAT:??$endl@DU?$char_traits@D@std@@@std@@YAAEAV?$basic_ostream@DU?$char_traits@D@std@@@0@AEAV10@@Z ; std::endl<char,std::char_traits<char> >
	mov	rcx, QWORD PTR tv151[rbp]
	call	QWORD PTR __imp_??6?$basic_ostream@DU?$char_traits@D@std@@@std@@QEAAAEAV01@P6AAEAV01@AEAV01@@Z@Z

; 35   : 	std::cout << vec[1] << std::endl;

	mov	edx, 1
	lea	rcx, QWORD PTR vec$[rbp]
	call	??A?$vector@HV?$allocator@H@std@@@std@@QEAAAEAH_K@Z ; std::vector<int,std::allocator<int> >::operator[]
	mov	eax, DWORD PTR [rax]
	mov	DWORD PTR tv158[rbp], eax
	mov	edx, DWORD PTR tv158[rbp]
	mov	rcx, QWORD PTR __imp_?cout@std@@3V?$basic_ostream@DU?$char_traits@D@std@@@1@A
	call	QWORD PTR __imp_??6?$basic_ostream@DU?$char_traits@D@std@@@std@@QEAAAEAV01@H@Z
	mov	QWORD PTR tv163[rbp], rax
	lea	rdx, OFFSET FLAT:??$endl@DU?$char_traits@D@std@@@std@@YAAEAV?$basic_ostream@DU?$char_traits@D@std@@@0@AEAV10@@Z ; std::endl<char,std::char_traits<char> >
	mov	rcx, QWORD PTR tv163[rbp]
	call	QWORD PTR __imp_??6?$basic_ostream@DU?$char_traits@D@std@@@std@@QEAAAEAV01@P6AAEAV01@AEAV01@@Z@Z

; 36   : 	std::cout << vec[2] << std::endl;

	mov	edx, 2
	lea	rcx, QWORD PTR vec$[rbp]
	call	??A?$vector@HV?$allocator@H@std@@@std@@QEAAAEAH_K@Z ; std::vector<int,std::allocator<int> >::operator[]
	mov	eax, DWORD PTR [rax]
	mov	DWORD PTR tv170[rbp], eax
	mov	edx, DWORD PTR tv170[rbp]
	mov	rcx, QWORD PTR __imp_?cout@std@@3V?$basic_ostream@DU?$char_traits@D@std@@@1@A
	call	QWORD PTR __imp_??6?$basic_ostream@DU?$char_traits@D@std@@@std@@QEAAAEAV01@H@Z
	mov	QWORD PTR tv175[rbp], rax
	lea	rdx, OFFSET FLAT:??$endl@DU?$char_traits@D@std@@@std@@YAAEAV?$basic_ostream@DU?$char_traits@D@std@@@0@AEAV10@@Z ; std::endl<char,std::char_traits<char> >
	mov	rcx, QWORD PTR tv175[rbp]
	call	QWORD PTR __imp_??6?$basic_ostream@DU?$char_traits@D@std@@@std@@QEAAAEAV01@P6AAEAV01@AEAV01@@Z@Z

; 37   : 	std::cout << vec[3] << std::endl;

	mov	edx, 3
	lea	rcx, QWORD PTR vec$[rbp]
	call	??A?$vector@HV?$allocator@H@std@@@std@@QEAAAEAH_K@Z ; std::vector<int,std::allocator<int> >::operator[]
	mov	eax, DWORD PTR [rax]
	mov	DWORD PTR tv182[rbp], eax
	mov	edx, DWORD PTR tv182[rbp]
	mov	rcx, QWORD PTR __imp_?cout@std@@3V?$basic_ostream@DU?$char_traits@D@std@@@1@A
	call	QWORD PTR __imp_??6?$basic_ostream@DU?$char_traits@D@std@@@std@@QEAAAEAV01@H@Z
	mov	QWORD PTR tv187[rbp], rax
	lea	rdx, OFFSET FLAT:??$endl@DU?$char_traits@D@std@@@std@@YAAEAV?$basic_ostream@DU?$char_traits@D@std@@@0@AEAV10@@Z ; std::endl<char,std::char_traits<char> >
	mov	rcx, QWORD PTR tv187[rbp]
	call	QWORD PTR __imp_??6?$basic_ostream@DU?$char_traits@D@std@@@std@@QEAAAEAV01@P6AAEAV01@AEAV01@@Z@Z

; 38   : 	std::cout << vec[4] << std::endl;

	mov	edx, 4
	lea	rcx, QWORD PTR vec$[rbp]
	call	??A?$vector@HV?$allocator@H@std@@@std@@QEAAAEAH_K@Z ; std::vector<int,std::allocator<int> >::operator[]
	mov	eax, DWORD PTR [rax]
	mov	DWORD PTR tv194[rbp], eax
	mov	edx, DWORD PTR tv194[rbp]
	mov	rcx, QWORD PTR __imp_?cout@std@@3V?$basic_ostream@DU?$char_traits@D@std@@@1@A
	call	QWORD PTR __imp_??6?$basic_ostream@DU?$char_traits@D@std@@@std@@QEAAAEAV01@H@Z
	mov	QWORD PTR tv199[rbp], rax
	lea	rdx, OFFSET FLAT:??$endl@DU?$char_traits@D@std@@@std@@YAAEAV?$basic_ostream@DU?$char_traits@D@std@@@0@AEAV10@@Z ; std::endl<char,std::char_traits<char> >
	mov	rcx, QWORD PTR tv199[rbp]
	call	QWORD PTR __imp_??6?$basic_ostream@DU?$char_traits@D@std@@@std@@QEAAAEAV01@P6AAEAV01@AEAV01@@Z@Z

; 39   : 
; 40   : 	std::cout << "These are array" << std::endl;

	lea	rdx, OFFSET FLAT:??_C@_0BA@DKBEKLFN@These?5are?5array@
	mov	rcx, QWORD PTR __imp_?cout@std@@3V?$basic_ostream@DU?$char_traits@D@std@@@1@A
	call	??$?6U?$char_traits@D@std@@@std@@YAAEAV?$basic_ostream@DU?$char_traits@D@std@@@0@AEAV10@PEBD@Z ; std::operator<<<std::char_traits<char> >
	mov	QWORD PTR tv206[rbp], rax
	lea	rdx, OFFSET FLAT:??$endl@DU?$char_traits@D@std@@@std@@YAAEAV?$basic_ostream@DU?$char_traits@D@std@@@0@AEAV10@@Z ; std::endl<char,std::char_traits<char> >
	mov	rcx, QWORD PTR tv206[rbp]
	call	QWORD PTR __imp_??6?$basic_ostream@DU?$char_traits@D@std@@@std@@QEAAAEAV01@P6AAEAV01@AEAV01@@Z@Z

; 41   : 	Array<std::string, 2> data;

	lea	rcx, QWORD PTR data$[rbp]
	call	??0?$Array@V?$basic_string@DU?$char_traits@D@std@@V?$allocator@D@2@@std@@$01@@QEAA@XZ ; Array<std::basic_string<char,std::char_traits<char>,std::allocator<char> >,2>::Array<std::basic_string<char,std::char_traits<char>,std::allocator<char> >,2>
	npad	1

; 42   : 	data[0] = "Howell";

	xor	edx, edx
	lea	rcx, QWORD PTR data$[rbp]
	call	??A?$Array@V?$basic_string@DU?$char_traits@D@std@@V?$allocator@D@2@@std@@$01@@QEAAAEAV?$basic_string@DU?$char_traits@D@std@@V?$allocator@D@2@@std@@_K@Z ; Array<std::basic_string<char,std::char_traits<char>,std::allocator<char> >,2>::operator[]
	lea	rdx, OFFSET FLAT:??_C@_06CDFKILBB@Howell@
	mov	rcx, rax
	call	??4?$basic_string@DU?$char_traits@D@std@@V?$allocator@D@2@@std@@QEAAAEAV01@QEBD@Z ; std::basic_string<char,std::char_traits<char>,std::allocator<char> >::operator=

; 43   : 	data[1] = "4";

	mov	edx, 1
	lea	rcx, QWORD PTR data$[rbp]
	call	??A?$Array@V?$basic_string@DU?$char_traits@D@std@@V?$allocator@D@2@@std@@$01@@QEAAAEAV?$basic_string@DU?$char_traits@D@std@@V?$allocator@D@2@@std@@_K@Z ; Array<std::basic_string<char,std::char_traits<char>,std::allocator<char> >,2>::operator[]
	lea	rdx, OFFSET FLAT:??_C@_01FAMBOPH@4@
	mov	rcx, rax
	call	??4?$basic_string@DU?$char_traits@D@std@@V?$allocator@D@2@@std@@QEAAAEAV01@QEBD@Z ; std::basic_string<char,std::char_traits<char>,std::allocator<char> >::operator=

; 44   : 	std::cout << data[0] << std::endl;

	mov	rax, QWORD PTR __imp_?cout@std@@3V?$basic_ostream@DU?$char_traits@D@std@@@1@A
	mov	QWORD PTR tv226[rbp], rax
	xor	edx, edx
	lea	rcx, QWORD PTR data$[rbp]
	call	??A?$Array@V?$basic_string@DU?$char_traits@D@std@@V?$allocator@D@2@@std@@$01@@QEAAAEAV?$basic_string@DU?$char_traits@D@std@@V?$allocator@D@2@@std@@_K@Z ; Array<std::basic_string<char,std::char_traits<char>,std::allocator<char> >,2>::operator[]
	mov	QWORD PTR tv228[rbp], rax
	mov	rdx, QWORD PTR tv228[rbp]
	mov	rcx, QWORD PTR tv226[rbp]
	call	??$?6DU?$char_traits@D@std@@V?$allocator@D@1@@std@@YAAEAV?$basic_ostream@DU?$char_traits@D@std@@@0@AEAV10@AEBV?$basic_string@DU?$char_traits@D@std@@V?$allocator@D@2@@0@@Z ; std::operator<<<char,std::char_traits<char>,std::allocator<char> >
	mov	QWORD PTR tv233[rbp], rax
	lea	rdx, OFFSET FLAT:??$endl@DU?$char_traits@D@std@@@std@@YAAEAV?$basic_ostream@DU?$char_traits@D@std@@@0@AEAV10@@Z ; std::endl<char,std::char_traits<char> >
	mov	rcx, QWORD PTR tv233[rbp]
	call	QWORD PTR __imp_??6?$basic_ostream@DU?$char_traits@D@std@@@std@@QEAAAEAV01@P6AAEAV01@AEAV01@@Z@Z

; 45   : 	std::cout << data[1] << std::endl;

	mov	rax, QWORD PTR __imp_?cout@std@@3V?$basic_ostream@DU?$char_traits@D@std@@@1@A
	mov	QWORD PTR tv240[rbp], rax
	mov	edx, 1
	lea	rcx, QWORD PTR data$[rbp]
	call	??A?$Array@V?$basic_string@DU?$char_traits@D@std@@V?$allocator@D@2@@std@@$01@@QEAAAEAV?$basic_string@DU?$char_traits@D@std@@V?$allocator@D@2@@std@@_K@Z ; Array<std::basic_string<char,std::char_traits<char>,std::allocator<char> >,2>::operator[]
	mov	QWORD PTR tv242[rbp], rax
	mov	rdx, QWORD PTR tv242[rbp]
	mov	rcx, QWORD PTR tv240[rbp]
	call	??$?6DU?$char_traits@D@std@@V?$allocator@D@1@@std@@YAAEAV?$basic_ostream@DU?$char_traits@D@std@@@0@AEAV10@AEBV?$basic_string@DU?$char_traits@D@std@@V?$allocator@D@2@@0@@Z ; std::operator<<<char,std::char_traits<char>,std::allocator<char> >
	mov	QWORD PTR tv247[rbp], rax
	lea	rdx, OFFSET FLAT:??$endl@DU?$char_traits@D@std@@@std@@YAAEAV?$basic_ostream@DU?$char_traits@D@std@@@0@AEAV10@@Z ; std::endl<char,std::char_traits<char> >
	mov	rcx, QWORD PTR tv247[rbp]
	call	QWORD PTR __imp_??6?$basic_ostream@DU?$char_traits@D@std@@@std@@QEAAAEAV01@P6AAEAV01@AEAV01@@Z@Z

; 46   : 
; 47   : 	std::cout << "These are Vector(header):" << std::endl;

	lea	rdx, OFFSET FLAT:??_C@_0BK@FMKGFFM@These?5are?5Vector?$CIheader?$CJ?3@
	mov	rcx, QWORD PTR __imp_?cout@std@@3V?$basic_ostream@DU?$char_traits@D@std@@@1@A
	call	??$?6U?$char_traits@D@std@@@std@@YAAEAV?$basic_ostream@DU?$char_traits@D@std@@@0@AEAV10@PEBD@Z ; std::operator<<<std::char_traits<char> >
	mov	QWORD PTR tv254[rbp], rax
	lea	rdx, OFFSET FLAT:??$endl@DU?$char_traits@D@std@@@std@@YAAEAV?$basic_ostream@DU?$char_traits@D@std@@@0@AEAV10@@Z ; std::endl<char,std::char_traits<char> >
	mov	rcx, QWORD PTR tv254[rbp]
	call	QWORD PTR __imp_??6?$basic_ostream@DU?$char_traits@D@std@@@std@@QEAAAEAV01@P6AAEAV01@AEAV01@@Z@Z

; 48   : 	Vector<std::string> vector;

	mov	edx, 24
	lea	rcx, QWORD PTR vector$[rbp]
	call	?__autoclassinit2@?$Vector@V?$basic_string@DU?$char_traits@D@std@@V?$allocator@D@2@@std@@@@QEAAX_K@Z
	lea	rcx, QWORD PTR vector$[rbp]
	call	??0?$Vector@V?$basic_string@DU?$char_traits@D@std@@V?$allocator@D@2@@std@@@@QEAA@XZ ; Vector<std::basic_string<char,std::char_traits<char>,std::allocator<char> > >::Vector<std::basic_string<char,std::char_traits<char>,std::allocator<char> > >

; 49   : 	vector.PushBack("Howell");

	lea	rdx, OFFSET FLAT:??_C@_06CDFKILBB@Howell@
	lea	rcx, QWORD PTR $T11[rbp]
	call	??0?$basic_string@DU?$char_traits@D@std@@V?$allocator@D@2@@std@@QEAA@QEBD@Z ; std::basic_string<char,std::char_traits<char>,std::allocator<char> >::basic_string<char,std::char_traits<char>,std::allocator<char> >
	npad	1
	lea	rdx, QWORD PTR $T11[rbp]
	lea	rcx, QWORD PTR vector$[rbp]
	call	?PushBack@?$Vector@V?$basic_string@DU?$char_traits@D@std@@V?$allocator@D@2@@std@@@@QEAAXAEBV?$basic_string@DU?$char_traits@D@std@@V?$allocator@D@2@@std@@@Z ; Vector<std::basic_string<char,std::char_traits<char>,std::allocator<char> > >::PushBack
	npad	1
	lea	rcx, QWORD PTR $T11[rbp]
	call	??1?$basic_string@DU?$char_traits@D@std@@V?$allocator@D@2@@std@@QEAA@XZ ; std::basic_string<char,std::char_traits<char>,std::allocator<char> >::~basic_string<char,std::char_traits<char>,std::allocator<char> >

; 50   : 	vector.PushBack("C++");

	lea	rdx, OFFSET FLAT:??_C@_03BFHCIDFI@C?$CL?$CL@
	lea	rcx, QWORD PTR $T12[rbp]
	call	??0?$basic_string@DU?$char_traits@D@std@@V?$allocator@D@2@@std@@QEAA@QEBD@Z ; std::basic_string<char,std::char_traits<char>,std::allocator<char> >::basic_string<char,std::char_traits<char>,std::allocator<char> >
	npad	1
	lea	rdx, QWORD PTR $T12[rbp]
	lea	rcx, QWORD PTR vector$[rbp]
	call	?PushBack@?$Vector@V?$basic_string@DU?$char_traits@D@std@@V?$allocator@D@2@@std@@@@QEAAXAEBV?$basic_string@DU?$char_traits@D@std@@V?$allocator@D@2@@std@@@Z ; Vector<std::basic_string<char,std::char_traits<char>,std::allocator<char> > >::PushBack
	npad	1
	lea	rcx, QWORD PTR $T12[rbp]
	call	??1?$basic_string@DU?$char_traits@D@std@@V?$allocator@D@2@@std@@QEAA@XZ ; std::basic_string<char,std::char_traits<char>,std::allocator<char> >::~basic_string<char,std::char_traits<char>,std::allocator<char> >

; 51   : 
; 52   : 	PrintVector(vector);

	lea	rcx, QWORD PTR vector$[rbp]
	call	??$PrintVector@V?$basic_string@DU?$char_traits@D@std@@V?$allocator@D@2@@std@@@@YAXAEBV?$Vector@V?$basic_string@DU?$char_traits@D@std@@V?$allocator@D@2@@std@@@@@Z ; PrintVector<std::basic_string<char,std::char_traits<char>,std::allocator<char> > >

; 53   : 
; 54   : 	return 0;

	mov	DWORD PTR $T13[rbp], 0
	lea	rcx, QWORD PTR data$[rbp]
	call	??1?$Array@V?$basic_string@DU?$char_traits@D@std@@V?$allocator@D@2@@std@@$01@@QEAA@XZ
	npad	1
	lea	rcx, QWORD PTR vec$[rbp]
	call	??1?$vector@HV?$allocator@H@std@@@std@@QEAA@XZ ; std::vector<int,std::allocator<int> >::~vector<int,std::allocator<int> >
	mov	eax, DWORD PTR $T13[rbp]

; 55   : }

	mov	edi, eax
	lea	rcx, QWORD PTR [rbp-32]
	lea	rdx, OFFSET FLAT:main$rtcFrameData
	call	_RTC_CheckStackVars
	mov	eax, edi
	mov	rcx, QWORD PTR __$ArrayPad$[rbp]
	xor	rcx, rbp
	call	__security_check_cookie
	lea	rsp, QWORD PTR [rbp+1032]
	pop	rdi
	pop	rbp
	ret	0
main	ENDP
_TEXT	ENDS
; Function compile flags: /Odtp /RTCsu /ZI
;	COMDAT text$x
text$x	SEGMENT
integer$ = 4
integer2$ = 36
vec$ = 72
data$ = 144
vector$ = 248
$T6 = 676
$T7 = 708
$T8 = 740
$T9 = 772
$T10 = 804
$T11 = 840
$T12 = 904
$T13 = 964
tv194 = 980
tv182 = 980
tv170 = 980
tv158 = 980
tv146 = 980
tv254 = 984
tv240 = 984
tv226 = 984
tv206 = 984
tv199 = 984
tv187 = 984
tv175 = 984
tv163 = 984
tv151 = 984
tv92 = 984
tv85 = 984
tv78 = 984
tv71 = 984
tv242 = 992
tv228 = 992
tv247 = 1000
tv233 = 1000
__$ArrayPad$ = 1008
main$dtor$0 PROC
	mov	QWORD PTR [rsp+8], rcx
	mov	QWORD PTR [rsp+16], rdx
	push	rbp
	push	rdi
	sub	rsp, 40					; 00000028H
	lea	rbp, QWORD PTR [rdx+32]
	lea	rcx, QWORD PTR vec$[rbp]
	call	??1?$vector@HV?$allocator@H@std@@@std@@QEAA@XZ ; std::vector<int,std::allocator<int> >::~vector<int,std::allocator<int> >
	add	rsp, 40					; 00000028H
	pop	rdi
	pop	rbp
	ret	0
main$dtor$0 ENDP
text$x	ENDS
; Function compile flags: /Odtp /RTCsu /ZI
;	COMDAT text$x
text$x	SEGMENT
integer$ = 4
integer2$ = 36
vec$ = 72
data$ = 144
vector$ = 248
$T6 = 676
$T7 = 708
$T8 = 740
$T9 = 772
$T10 = 804
$T11 = 840
$T12 = 904
$T13 = 964
tv194 = 980
tv182 = 980
tv170 = 980
tv158 = 980
tv146 = 980
tv254 = 984
tv240 = 984
tv226 = 984
tv206 = 984
tv199 = 984
tv187 = 984
tv175 = 984
tv163 = 984
tv151 = 984
tv92 = 984
tv85 = 984
tv78 = 984
tv71 = 984
tv242 = 992
tv228 = 992
tv247 = 1000
tv233 = 1000
__$ArrayPad$ = 1008
main$dtor$1 PROC
	mov	QWORD PTR [rsp+8], rcx
	mov	QWORD PTR [rsp+16], rdx
	push	rbp
	push	rdi
	sub	rsp, 40					; 00000028H
	lea	rbp, QWORD PTR [rdx+32]
	lea	rcx, QWORD PTR data$[rbp]
	call	??1?$Array@V?$basic_string@DU?$char_traits@D@std@@V?$allocator@D@2@@std@@$01@@QEAA@XZ
	add	rsp, 40					; 00000028H
	pop	rdi
	pop	rbp
	ret	0
main$dtor$1 ENDP
text$x	ENDS
; Function compile flags: /Odtp /RTCsu /ZI
;	COMDAT text$x
text$x	SEGMENT
integer$ = 4
integer2$ = 36
vec$ = 72
data$ = 144
vector$ = 248
$T6 = 676
$T7 = 708
$T8 = 740
$T9 = 772
$T10 = 804
$T11 = 840
$T12 = 904
$T13 = 964
tv194 = 980
tv182 = 980
tv170 = 980
tv158 = 980
tv146 = 980
tv254 = 984
tv240 = 984
tv226 = 984
tv206 = 984
tv199 = 984
tv187 = 984
tv175 = 984
tv163 = 984
tv151 = 984
tv92 = 984
tv85 = 984
tv78 = 984
tv71 = 984
tv242 = 992
tv228 = 992
tv247 = 1000
tv233 = 1000
__$ArrayPad$ = 1008
main$dtor$2 PROC
	mov	QWORD PTR [rsp+8], rcx
	mov	QWORD PTR [rsp+16], rdx
	push	rbp
	push	rdi
	sub	rsp, 40					; 00000028H
	lea	rbp, QWORD PTR [rdx+32]
	lea	rcx, QWORD PTR $T11[rbp]
	call	??1?$basic_string@DU?$char_traits@D@std@@V?$allocator@D@2@@std@@QEAA@XZ ; std::basic_string<char,std::char_traits<char>,std::allocator<char> >::~basic_string<char,std::char_traits<char>,std::allocator<char> >
	add	rsp, 40					; 00000028H
	pop	rdi
	pop	rbp
	ret	0
main$dtor$2 ENDP
text$x	ENDS
; Function compile flags: /Odtp /RTCsu /ZI
;	COMDAT text$x
text$x	SEGMENT
integer$ = 4
integer2$ = 36
vec$ = 72
data$ = 144
vector$ = 248
$T6 = 676
$T7 = 708
$T8 = 740
$T9 = 772
$T10 = 804
$T11 = 840
$T12 = 904
$T13 = 964
tv194 = 980
tv182 = 980
tv170 = 980
tv158 = 980
tv146 = 980
tv254 = 984
tv240 = 984
tv226 = 984
tv206 = 984
tv199 = 984
tv187 = 984
tv175 = 984
tv163 = 984
tv151 = 984
tv92 = 984
tv85 = 984
tv78 = 984
tv71 = 984
tv242 = 992
tv228 = 992
tv247 = 1000
tv233 = 1000
__$ArrayPad$ = 1008
main$dtor$3 PROC
	mov	QWORD PTR [rsp+8], rcx
	mov	QWORD PTR [rsp+16], rdx
	push	rbp
	push	rdi
	sub	rsp, 40					; 00000028H
	lea	rbp, QWORD PTR [rdx+32]
	lea	rcx, QWORD PTR $T12[rbp]
	call	??1?$basic_string@DU?$char_traits@D@std@@V?$allocator@D@2@@std@@QEAA@XZ ; std::basic_string<char,std::char_traits<char>,std::allocator<char> >::~basic_string<char,std::char_traits<char>,std::allocator<char> >
	add	rsp, 40					; 00000028H
	pop	rdi
	pop	rbp
	ret	0
main$dtor$3 ENDP
text$x	ENDS
; Function compile flags: /Odtp /RTCsu /ZI
; File C:\Program Files\Microsoft Visual Studio\2022\Community\VC\Tools\MSVC\14.31.31103\include\ostream
;	COMDAT ??$?6U?$char_traits@D@std@@@std@@YAAEAV?$basic_ostream@DU?$char_traits@D@std@@@0@AEAV10@PEBD@Z
_TEXT	SEGMENT
_State$ = 4
_Count$ = 40
_Pad$ = 72
_Ok$ = 104
$T4 = 340
$T5 = 372
$T6 = 404
$T7 = 436
$T8 = 472
tv139 = 484
tv316 = 488
tv314 = 488
tv311 = 488
tv306 = 488
tv291 = 488
tv277 = 488
tv137 = 488
tv256 = 496
tv219 = 496
tv194 = 496
tv317 = 504
tv315 = 504
tv312 = 504
tv254 = 505
tv192 = 505
tv318 = 508
tv313 = 508
__$ArrayPad$ = 512
_Ostr$ = 560
_Val$ = 568
??$?6U?$char_traits@D@std@@@std@@YAAEAV?$basic_ostream@DU?$char_traits@D@std@@@0@AEAV10@PEBD@Z PROC ; std::operator<<<std::char_traits<char> >, COMDAT

; 757  : basic_ostream<char, _Traits>& operator<<(basic_ostream<char, _Traits>& _Ostr, const char* _Val) {

$LN25:
	mov	QWORD PTR [rsp+16], rdx
	mov	QWORD PTR [rsp+8], rcx
	push	rbp
	push	rdi
	sub	rsp, 568				; 00000238H
	lea	rbp, QWORD PTR [rsp+32]
	lea	rdi, QWORD PTR [rsp+32]
	mov	ecx, 86					; 00000056H
	mov	eax, -858993460				; ccccccccH
	rep stosd
	mov	rcx, QWORD PTR [rsp+600]
	mov	rax, QWORD PTR __security_cookie
	xor	rax, rbp
	mov	QWORD PTR __$ArrayPad$[rbp], rax
	lea	rcx, OFFSET FLAT:__033B95B1_ostream
	call	__CheckForDebuggerJustMyCode

; 758  :     // insert NTBS into char stream
; 759  :     using _Elem = char;
; 760  :     using _Myos = basic_ostream<_Elem, _Traits>;
; 761  : 
; 762  :     ios_base::iostate _State = ios_base::goodbit;

	mov	DWORD PTR _State$[rbp], 0

; 763  :     streamsize _Count        = static_cast<streamsize>(_Traits::length(_Val));

	mov	rcx, QWORD PTR _Val$[rbp]
	call	?length@?$_Narrow_char_traits@DH@std@@SA_KQEBD@Z ; std::_Narrow_char_traits<char,int>::length
	mov	QWORD PTR _Count$[rbp], rax

; 764  :     streamsize _Pad          = _Ostr.width() <= 0 || _Ostr.width() <= _Count ? 0 : _Ostr.width() - _Count;

	mov	rax, QWORD PTR _Ostr$[rbp]
	mov	rax, QWORD PTR [rax]
	movsxd	rax, DWORD PTR [rax+4]
	mov	rcx, QWORD PTR _Ostr$[rbp]
	add	rcx, rax
	mov	rax, rcx
	mov	rcx, rax
	call	QWORD PTR __imp_?width@ios_base@std@@QEBA_JXZ
	test	rax, rax
	jle	SHORT $LN17@operator
	mov	rax, QWORD PTR _Ostr$[rbp]
	mov	rax, QWORD PTR [rax]
	movsxd	rax, DWORD PTR [rax+4]
	mov	rcx, QWORD PTR _Ostr$[rbp]
	add	rcx, rax
	mov	rax, rcx
	mov	rcx, rax
	call	QWORD PTR __imp_?width@ios_base@std@@QEBA_JXZ
	cmp	rax, QWORD PTR _Count$[rbp]
	jle	SHORT $LN17@operator
	mov	rax, QWORD PTR _Ostr$[rbp]
	mov	rax, QWORD PTR [rax]
	movsxd	rax, DWORD PTR [rax+4]
	mov	rcx, QWORD PTR _Ostr$[rbp]
	add	rcx, rax
	mov	rax, rcx
	mov	rcx, rax
	call	QWORD PTR __imp_?width@ios_base@std@@QEBA_JXZ
	sub	rax, QWORD PTR _Count$[rbp]
	mov	QWORD PTR tv137[rbp], rax
	jmp	SHORT $LN18@operator
$LN17@operator:
	mov	QWORD PTR tv137[rbp], 0
$LN18@operator:
	mov	rax, QWORD PTR tv137[rbp]
	mov	QWORD PTR _Pad$[rbp], rax

; 765  :     const typename _Myos::sentry _Ok(_Ostr);

	mov	rdx, QWORD PTR _Ostr$[rbp]
	lea	rcx, QWORD PTR _Ok$[rbp]
	call	??0sentry@?$basic_ostream@DU?$char_traits@D@std@@@std@@QEAA@AEAV12@@Z ; std::basic_ostream<char,std::char_traits<char> >::sentry::sentry
	npad	1

; 766  : 
; 767  :     if (!_Ok) {

	lea	rcx, QWORD PTR _Ok$[rbp]
	call	??Bsentry@?$basic_ostream@DU?$char_traits@D@std@@@std@@QEBA_NXZ ; std::basic_ostream<char,std::char_traits<char> >::sentry::operator bool
	movzx	eax, al
	test	eax, eax
	jne	SHORT $LN8@operator

; 768  :         _State |= ios_base::badbit;

	mov	eax, DWORD PTR _State$[rbp]
	or	eax, 4
	mov	DWORD PTR _State$[rbp], eax

; 769  :     } else { // state okay, insert

	jmp	$LN9@operator
$LN8@operator:

; 770  :         _TRY_IO_BEGIN
; 771  :         if ((_Ostr.flags() & ios_base::adjustfield) != ios_base::left) {

	mov	rax, QWORD PTR _Ostr$[rbp]
	mov	rax, QWORD PTR [rax]
	movsxd	rax, DWORD PTR [rax+4]
	mov	rcx, QWORD PTR _Ostr$[rbp]
	add	rcx, rax
	mov	rax, rcx
	mov	rcx, rax
	call	QWORD PTR __imp_?flags@ios_base@std@@QEBAHXZ
	mov	DWORD PTR tv139[rbp], eax
	mov	eax, DWORD PTR tv139[rbp]
	and	eax, 448				; 000001c0H
	cmp	eax, 64					; 00000040H
	je	$LN11@operator

; 772  :             for (; 0 < _Pad; --_Pad) { // pad on left

	jmp	SHORT $LN4@operator
$LN2@operator:
	mov	rax, QWORD PTR _Pad$[rbp]
	dec	rax
	mov	QWORD PTR _Pad$[rbp], rax
$LN4@operator:
	cmp	QWORD PTR _Pad$[rbp], 0
	jle	$LN11@operator

; 773  :                 if (_Traits::eq_int_type(_Traits::eof(), _Ostr.rdbuf()->sputc(_Ostr.fill()))) {

	mov	rax, QWORD PTR _Ostr$[rbp]
	mov	rax, QWORD PTR [rax]
	movsxd	rax, DWORD PTR [rax+4]
	mov	rcx, QWORD PTR _Ostr$[rbp]
	add	rcx, rax
	mov	rax, rcx
	mov	rcx, rax
	call	QWORD PTR __imp_?rdbuf@?$basic_ios@DU?$char_traits@D@std@@@std@@QEBAPEAV?$basic_streambuf@DU?$char_traits@D@std@@@2@XZ
	mov	QWORD PTR tv311[rbp], rax
	mov	rax, QWORD PTR tv311[rbp]
	mov	QWORD PTR tv194[rbp], rax
	mov	rax, QWORD PTR _Ostr$[rbp]
	mov	rax, QWORD PTR [rax]
	movsxd	rax, DWORD PTR [rax+4]
	mov	rcx, QWORD PTR _Ostr$[rbp]
	add	rcx, rax
	mov	rax, rcx
	mov	rcx, rax
	call	QWORD PTR __imp_?fill@?$basic_ios@DU?$char_traits@D@std@@@std@@QEBADXZ
	mov	BYTE PTR tv312[rbp], al
	movzx	eax, BYTE PTR tv312[rbp]
	mov	BYTE PTR tv192[rbp], al
	movzx	edx, BYTE PTR tv192[rbp]
	mov	rcx, QWORD PTR tv194[rbp]
	call	QWORD PTR __imp_?sputc@?$basic_streambuf@DU?$char_traits@D@std@@@std@@QEAAHD@Z
	mov	DWORD PTR tv313[rbp], eax
	mov	eax, DWORD PTR tv313[rbp]
	mov	DWORD PTR $T4[rbp], eax
	call	?eof@?$_Narrow_char_traits@DH@std@@SAHXZ ; std::_Narrow_char_traits<char,int>::eof
	mov	DWORD PTR $T5[rbp], eax
	lea	rdx, QWORD PTR $T4[rbp]
	lea	rcx, QWORD PTR $T5[rbp]
	call	?eq_int_type@?$_Narrow_char_traits@DH@std@@SA_NAEBH0@Z ; std::_Narrow_char_traits<char,int>::eq_int_type
	movzx	eax, al
	test	eax, eax
	je	SHORT $LN12@operator

; 774  :                     _State |= ios_base::badbit; // insertion failed, quit

	mov	eax, DWORD PTR _State$[rbp]
	or	eax, 4
	mov	DWORD PTR _State$[rbp], eax

; 775  :                     break;

	jmp	SHORT $LN11@operator
$LN12@operator:

; 776  :                 }
; 777  :             }

	jmp	$LN2@operator
$LN11@operator:

; 778  :         }
; 779  : 
; 780  :         if (_State == ios_base::goodbit && _Ostr.rdbuf()->sputn(_Val, _Count) != _Count) {

	cmp	DWORD PTR _State$[rbp], 0
	jne	SHORT $LN13@operator
	mov	rax, QWORD PTR _Ostr$[rbp]
	mov	rax, QWORD PTR [rax]
	movsxd	rax, DWORD PTR [rax+4]
	mov	rcx, QWORD PTR _Ostr$[rbp]
	add	rcx, rax
	mov	rax, rcx
	mov	rcx, rax
	call	QWORD PTR __imp_?rdbuf@?$basic_ios@DU?$char_traits@D@std@@@std@@QEBAPEAV?$basic_streambuf@DU?$char_traits@D@std@@@2@XZ
	mov	QWORD PTR tv314[rbp], rax
	mov	rax, QWORD PTR tv314[rbp]
	mov	QWORD PTR tv219[rbp], rax
	mov	r8, QWORD PTR _Count$[rbp]
	mov	rdx, QWORD PTR _Val$[rbp]
	mov	rcx, QWORD PTR tv219[rbp]
	call	QWORD PTR __imp_?sputn@?$basic_streambuf@DU?$char_traits@D@std@@@std@@QEAA_JPEBD_J@Z
	mov	QWORD PTR tv315[rbp], rax
	mov	rax, QWORD PTR _Count$[rbp]
	cmp	QWORD PTR tv315[rbp], rax
	je	SHORT $LN13@operator

; 781  :             _State |= ios_base::badbit;

	mov	eax, DWORD PTR _State$[rbp]
	or	eax, 4
	mov	DWORD PTR _State$[rbp], eax
$LN13@operator:

; 782  :         }
; 783  : 
; 784  :         if (_State == ios_base::goodbit) {

	cmp	DWORD PTR _State$[rbp], 0
	jne	$LN14@operator

; 785  :             for (; 0 < _Pad; --_Pad) { // pad on right

	jmp	SHORT $LN7@operator
$LN5@operator:
	mov	rax, QWORD PTR _Pad$[rbp]
	dec	rax
	mov	QWORD PTR _Pad$[rbp], rax
$LN7@operator:
	cmp	QWORD PTR _Pad$[rbp], 0
	jle	$LN14@operator

; 786  :                 if (_Traits::eq_int_type(_Traits::eof(), _Ostr.rdbuf()->sputc(_Ostr.fill()))) {

	mov	rax, QWORD PTR _Ostr$[rbp]
	mov	rax, QWORD PTR [rax]
	movsxd	rax, DWORD PTR [rax+4]
	mov	rcx, QWORD PTR _Ostr$[rbp]
	add	rcx, rax
	mov	rax, rcx
	mov	rcx, rax
	call	QWORD PTR __imp_?rdbuf@?$basic_ios@DU?$char_traits@D@std@@@std@@QEBAPEAV?$basic_streambuf@DU?$char_traits@D@std@@@2@XZ
	mov	QWORD PTR tv316[rbp], rax
	mov	rax, QWORD PTR tv316[rbp]
	mov	QWORD PTR tv256[rbp], rax
	mov	rax, QWORD PTR _Ostr$[rbp]
	mov	rax, QWORD PTR [rax]
	movsxd	rax, DWORD PTR [rax+4]
	mov	rcx, QWORD PTR _Ostr$[rbp]
	add	rcx, rax
	mov	rax, rcx
	mov	rcx, rax
	call	QWORD PTR __imp_?fill@?$basic_ios@DU?$char_traits@D@std@@@std@@QEBADXZ
	mov	BYTE PTR tv317[rbp], al
	movzx	eax, BYTE PTR tv317[rbp]
	mov	BYTE PTR tv254[rbp], al
	movzx	edx, BYTE PTR tv254[rbp]
	mov	rcx, QWORD PTR tv256[rbp]
	call	QWORD PTR __imp_?sputc@?$basic_streambuf@DU?$char_traits@D@std@@@std@@QEAAHD@Z
	mov	DWORD PTR tv318[rbp], eax
	mov	eax, DWORD PTR tv318[rbp]
	mov	DWORD PTR $T6[rbp], eax
	call	?eof@?$_Narrow_char_traits@DH@std@@SAHXZ ; std::_Narrow_char_traits<char,int>::eof
	mov	DWORD PTR $T7[rbp], eax
	lea	rdx, QWORD PTR $T6[rbp]
	lea	rcx, QWORD PTR $T7[rbp]
	call	?eq_int_type@?$_Narrow_char_traits@DH@std@@SA_NAEBH0@Z ; std::_Narrow_char_traits<char,int>::eq_int_type
	movzx	eax, al
	test	eax, eax
	je	SHORT $LN15@operator

; 787  :                     _State |= ios_base::badbit; // insertion failed, quit

	mov	eax, DWORD PTR _State$[rbp]
	or	eax, 4
	mov	DWORD PTR _State$[rbp], eax

; 788  :                     break;

	jmp	SHORT $LN14@operator
$LN15@operator:

; 789  :                 }
; 790  :             }

	jmp	$LN5@operator
$LN14@operator:

; 791  :         }
; 792  : 
; 793  :         _Ostr.width(0);

	mov	rax, QWORD PTR _Ostr$[rbp]
	mov	rax, QWORD PTR [rax]
	movsxd	rax, DWORD PTR [rax+4]
	mov	rcx, QWORD PTR _Ostr$[rbp]
	add	rcx, rax
	mov	rax, rcx
	mov	QWORD PTR tv277[rbp], rax
	xor	edx, edx
	mov	rcx, QWORD PTR tv277[rbp]
	call	QWORD PTR __imp_?width@ios_base@std@@QEAA_J_J@Z
	npad	1
	jmp	SHORT $LN9@operator
$LN23@operator:
$LN9@operator:

; 794  :         _CATCH_IO_(ios_base, _Ostr)
; 795  :     }
; 796  : 
; 797  :     _Ostr.setstate(_State);

	mov	rax, QWORD PTR _Ostr$[rbp]
	mov	rax, QWORD PTR [rax]
	movsxd	rax, DWORD PTR [rax+4]
	mov	rcx, QWORD PTR _Ostr$[rbp]
	add	rcx, rax
	mov	rax, rcx
	mov	QWORD PTR tv306[rbp], rax
	xor	r8d, r8d
	mov	edx, DWORD PTR _State$[rbp]
	mov	rcx, QWORD PTR tv306[rbp]
	call	QWORD PTR __imp_?setstate@?$basic_ios@DU?$char_traits@D@std@@@std@@QEAAXH_N@Z

; 798  :     return _Ostr;

	mov	rax, QWORD PTR _Ostr$[rbp]
	mov	QWORD PTR $T8[rbp], rax
	lea	rcx, QWORD PTR _Ok$[rbp]
	call	??1sentry@?$basic_ostream@DU?$char_traits@D@std@@@std@@QEAA@XZ ; std::basic_ostream<char,std::char_traits<char> >::sentry::~sentry
	mov	rax, QWORD PTR $T8[rbp]

; 799  : }

	mov	rdi, rax
	lea	rcx, QWORD PTR [rbp-32]
	lea	rdx, OFFSET FLAT:??$?6U?$char_traits@D@std@@@std@@YAAEAV?$basic_ostream@DU?$char_traits@D@std@@@0@AEAV10@PEBD@Z$rtcFrameData
	call	_RTC_CheckStackVars
	mov	rax, rdi
	mov	rcx, QWORD PTR __$ArrayPad$[rbp]
	xor	rcx, rbp
	call	__security_check_cookie
	lea	rsp, QWORD PTR [rbp+536]
	pop	rdi
	pop	rbp
	ret	0
??$?6U?$char_traits@D@std@@@std@@YAAEAV?$basic_ostream@DU?$char_traits@D@std@@@0@AEAV10@PEBD@Z ENDP ; std::operator<<<std::char_traits<char> >
_TEXT	ENDS
; Function compile flags: /Odtp /RTCsu /ZI
;	COMDAT text$x
text$x	SEGMENT
_State$ = 4
_Count$ = 40
_Pad$ = 72
_Ok$ = 104
$T4 = 340
$T5 = 372
$T6 = 404
$T7 = 436
$T8 = 472
tv139 = 484
tv316 = 488
tv314 = 488
tv311 = 488
tv306 = 488
tv291 = 488
tv277 = 488
tv137 = 488
tv256 = 496
tv219 = 496
tv194 = 496
tv317 = 504
tv315 = 504
tv312 = 504
tv254 = 505
tv192 = 505
tv318 = 508
tv313 = 508
__$ArrayPad$ = 512
_Ostr$ = 560
_Val$ = 568
?dtor$0@?0???$?6U?$char_traits@D@std@@@std@@YAAEAV?$basic_ostream@DU?$char_traits@D@std@@@0@AEAV10@PEBD@Z@4HA PROC ; `std::operator<<<std::char_traits<char> >'::`1'::dtor$0
	mov	QWORD PTR [rsp+8], rcx
	mov	QWORD PTR [rsp+16], rdx
	push	rbp
	push	rdi
	sub	rsp, 40					; 00000028H
	lea	rbp, QWORD PTR [rdx+32]
	lea	rcx, QWORD PTR _Ok$[rbp]
	call	??1sentry@?$basic_ostream@DU?$char_traits@D@std@@@std@@QEAA@XZ ; std::basic_ostream<char,std::char_traits<char> >::sentry::~sentry
	add	rsp, 40					; 00000028H
	pop	rdi
	pop	rbp
	ret	0
?dtor$0@?0???$?6U?$char_traits@D@std@@@std@@YAAEAV?$basic_ostream@DU?$char_traits@D@std@@@0@AEAV10@PEBD@Z@4HA ENDP ; `std::operator<<<std::char_traits<char> >'::`1'::dtor$0
text$x	ENDS
; Function compile flags: /Odtp /RTCsu /ZI
;	COMDAT text$x
text$x	SEGMENT
_State$ = 4
_Count$ = 40
_Pad$ = 72
_Ok$ = 104
$T4 = 340
$T5 = 372
$T6 = 404
$T7 = 436
$T8 = 472
tv139 = 484
tv316 = 488
tv314 = 488
tv311 = 488
tv306 = 488
tv291 = 488
tv277 = 488
tv137 = 488
tv256 = 496
tv219 = 496
tv194 = 496
tv317 = 504
tv315 = 504
tv312 = 504
tv254 = 505
tv192 = 505
tv318 = 508
tv313 = 508
__$ArrayPad$ = 512
_Ostr$ = 560
_Val$ = 568
?catch$1@?0???$?6U?$char_traits@D@std@@@std@@YAAEAV?$basic_ostream@DU?$char_traits@D@std@@@0@AEAV10@PEBD@Z@4HA PROC ; `std::operator<<<std::char_traits<char> >'::`1'::catch$1

; 794  :         _CATCH_IO_(ios_base, _Ostr)

	mov	QWORD PTR [rsp+8], rcx
	mov	QWORD PTR [rsp+16], rdx
	push	rbp
	push	rdi
	sub	rsp, 40					; 00000028H
	lea	rbp, QWORD PTR [rdx+32]
__catch$??$?6U?$char_traits@D@std@@@std@@YAAEAV?$basic_ostream@DU?$char_traits@D@std@@@0@AEAV10@PEBD@Z$0:
	mov	rax, QWORD PTR _Ostr$[rbp]
	mov	rax, QWORD PTR [rax]
	movsxd	rax, DWORD PTR [rax+4]
	mov	rcx, QWORD PTR _Ostr$[rbp]
	add	rcx, rax
	mov	rax, rcx
	mov	QWORD PTR tv291[rbp], rax
	mov	r8b, 1
	mov	edx, 4
	mov	rcx, QWORD PTR tv291[rbp]
	call	QWORD PTR __imp_?setstate@?$basic_ios@DU?$char_traits@D@std@@@std@@QEAAXH_N@Z
	npad	1
	lea	rax, $LN23@catch$1
	add	rsp, 40					; 00000028H
	pop	rdi
	pop	rbp
	ret	0
	int	3
?catch$1@?0???$?6U?$char_traits@D@std@@@std@@YAAEAV?$basic_ostream@DU?$char_traits@D@std@@@0@AEAV10@PEBD@Z@4HA ENDP ; `std::operator<<<std::char_traits<char> >'::`1'::catch$1
text$x	ENDS
; Function compile flags: /Odtp /RTCsu /ZI
;	COMDAT ??_E?$basic_string@DU?$char_traits@D@std@@V?$allocator@D@2@@std@@QEAAPEAXI@Z
_TEXT	SEGMENT
this$ = 224
__flags$ = 232
??_E?$basic_string@DU?$char_traits@D@std@@V?$allocator@D@2@@std@@QEAAPEAXI@Z PROC ; std::basic_string<char,std::char_traits<char>,std::allocator<char> >::`vector deleting destructor', COMDAT
$LN6:
	mov	DWORD PTR [rsp+16], edx
	mov	QWORD PTR [rsp+8], rcx
	push	rbp
	push	rdi
	sub	rsp, 232				; 000000e8H
	lea	rbp, QWORD PTR [rsp+32]
	mov	eax, DWORD PTR __flags$[rbp]
	and	eax, 2
	test	eax, eax
	je	SHORT $LN2@vector
	lea	r9, OFFSET FLAT:??1?$basic_string@DU?$char_traits@D@std@@V?$allocator@D@2@@std@@QEAA@XZ ; std::basic_string<char,std::char_traits<char>,std::allocator<char> >::~basic_string<char,std::char_traits<char>,std::allocator<char> >
	mov	rax, QWORD PTR this$[rbp]
	mov	r8, QWORD PTR [rax-8]
	mov	edx, 40					; 00000028H
	mov	rcx, QWORD PTR this$[rbp]
	call	??_M@YAXPEAX_K1P6AX0@Z@Z
	mov	eax, DWORD PTR __flags$[rbp]
	and	eax, 1
	test	eax, eax
	je	SHORT $LN3@vector
	mov	rax, QWORD PTR this$[rbp]
	imul	rax, QWORD PTR [rax-8], 40		; 00000028H
	add	rax, 8
	mov	rcx, QWORD PTR this$[rbp]
	sub	rcx, 8
	mov	rdx, rax
	call	??_V@YAXPEAX_K@Z			; operator delete[]
$LN3@vector:
	mov	rax, QWORD PTR this$[rbp]
	sub	rax, 8
	jmp	SHORT $LN1@vector
$LN2@vector:
	mov	rcx, QWORD PTR this$[rbp]
	call	??1?$basic_string@DU?$char_traits@D@std@@V?$allocator@D@2@@std@@QEAA@XZ ; std::basic_string<char,std::char_traits<char>,std::allocator<char> >::~basic_string<char,std::char_traits<char>,std::allocator<char> >
	mov	eax, DWORD PTR __flags$[rbp]
	and	eax, 1
	test	eax, eax
	je	SHORT $LN4@vector
	mov	edx, 40					; 00000028H
	mov	rcx, QWORD PTR this$[rbp]
	call	??3@YAXPEAX_K@Z				; operator delete
$LN4@vector:
	mov	rax, QWORD PTR this$[rbp]
$LN1@vector:
	lea	rsp, QWORD PTR [rbp+200]
	pop	rdi
	pop	rbp
	ret	0
??_E?$basic_string@DU?$char_traits@D@std@@V?$allocator@D@2@@std@@QEAAPEAXI@Z ENDP ; std::basic_string<char,std::char_traits<char>,std::allocator<char> >::`vector deleting destructor'
_TEXT	ENDS
; Function compile flags: /Odtp /RTCsu /ZI
;	COMDAT ??1?$_Compressed_pair@V?$allocator@D@std@@V?$_String_val@U?$_Simple_types@D@std@@@2@$00@std@@QEAA@XZ
_TEXT	SEGMENT
this$ = 224
??1?$_Compressed_pair@V?$allocator@D@std@@V?$_String_val@U?$_Simple_types@D@std@@@2@$00@std@@QEAA@XZ PROC ; std::_Compressed_pair<std::allocator<char>,std::_String_val<std::_Simple_types<char> >,1>::~_Compressed_pair<std::allocator<char>,std::_String_val<std::_Simple_types<char> >,1>, COMDAT
$LN3:
	mov	QWORD PTR [rsp+8], rcx
	push	rbp
	push	rdi
	sub	rsp, 232				; 000000e8H
	lea	rbp, QWORD PTR [rsp+32]
	mov	rax, QWORD PTR this$[rbp]
	mov	rcx, rax
	call	??1?$_String_val@U?$_Simple_types@D@std@@@std@@QEAA@XZ
	lea	rsp, QWORD PTR [rbp+200]
	pop	rdi
	pop	rbp
	ret	0
??1?$_Compressed_pair@V?$allocator@D@std@@V?$_String_val@U?$_Simple_types@D@std@@@2@$00@std@@QEAA@XZ ENDP ; std::_Compressed_pair<std::allocator<char>,std::_String_val<std::_Simple_types<char> >,1>::~_Compressed_pair<std::allocator<char>,std::_String_val<std::_Simple_types<char> >,1>
_TEXT	ENDS
; Function compile flags: /Odtp /RTCsu /ZI
; File C:\Program Files\Microsoft Visual Studio\2022\Community\VC\Tools\MSVC\14.31.31103\include\xmemory
;	COMDAT ?_Get_first@?$_Compressed_pair@V?$allocator@D@std@@V?$_String_val@U?$_Simple_types@D@std@@@2@$00@std@@QEBAAEBV?$allocator@D@2@XZ
_TEXT	SEGMENT
this$ = 224
?_Get_first@?$_Compressed_pair@V?$allocator@D@std@@V?$_String_val@U?$_Simple_types@D@std@@@2@$00@std@@QEBAAEBV?$allocator@D@2@XZ PROC ; std::_Compressed_pair<std::allocator<char>,std::_String_val<std::_Simple_types<char> >,1>::_Get_first, COMDAT

; 1377 :     constexpr const _Ty1& _Get_first() const noexcept {

$LN3:
	mov	QWORD PTR [rsp+8], rcx
	push	rbp
	push	rdi
	sub	rsp, 232				; 000000e8H
	lea	rbp, QWORD PTR [rsp+32]
	lea	rcx, OFFSET FLAT:__BBC6BDD8_xmemory
	call	__CheckForDebuggerJustMyCode

; 1378 :         return *this;

	mov	rax, QWORD PTR this$[rbp]

; 1379 :     }

	lea	rsp, QWORD PTR [rbp+200]
	pop	rdi
	pop	rbp
	ret	0
?_Get_first@?$_Compressed_pair@V?$allocator@D@std@@V?$_String_val@U?$_Simple_types@D@std@@@2@$00@std@@QEBAAEBV?$allocator@D@2@XZ ENDP ; std::_Compressed_pair<std::allocator<char>,std::_String_val<std::_Simple_types<char> >,1>::_Get_first
_TEXT	ENDS
; Function compile flags: /Odtp /RTCsu /ZI
; File C:\Program Files\Microsoft Visual Studio\2022\Community\VC\Tools\MSVC\14.31.31103\include\xmemory
;	COMDAT ?_Get_first@?$_Compressed_pair@V?$allocator@D@std@@V?$_String_val@U?$_Simple_types@D@std@@@2@$00@std@@QEAAAEAV?$allocator@D@2@XZ
_TEXT	SEGMENT
this$ = 224
?_Get_first@?$_Compressed_pair@V?$allocator@D@std@@V?$_String_val@U?$_Simple_types@D@std@@@2@$00@std@@QEAAAEAV?$allocator@D@2@XZ PROC ; std::_Compressed_pair<std::allocator<char>,std::_String_val<std::_Simple_types<char> >,1>::_Get_first, COMDAT

; 1373 :     constexpr _Ty1& _Get_first() noexcept {

$LN3:
	mov	QWORD PTR [rsp+8], rcx
	push	rbp
	push	rdi
	sub	rsp, 232				; 000000e8H
	lea	rbp, QWORD PTR [rsp+32]
	lea	rcx, OFFSET FLAT:__BBC6BDD8_xmemory
	call	__CheckForDebuggerJustMyCode

; 1374 :         return *this;

	mov	rax, QWORD PTR this$[rbp]

; 1375 :     }

	lea	rsp, QWORD PTR [rbp+200]
	pop	rdi
	pop	rbp
	ret	0
?_Get_first@?$_Compressed_pair@V?$allocator@D@std@@V?$_String_val@U?$_Simple_types@D@std@@@2@$00@std@@QEAAAEAV?$allocator@D@2@XZ ENDP ; std::_Compressed_pair<std::allocator<char>,std::_String_val<std::_Simple_types<char> >,1>::_Get_first
_TEXT	ENDS
; Function compile flags: /Odtp /RTCsu /ZI
; File C:\Program Files\Microsoft Visual Studio\2022\Community\VC\Tools\MSVC\14.31.31103\include\xstring
;	COMDAT ?_Getal@?$basic_string@DU?$char_traits@D@std@@V?$allocator@D@2@@std@@AEBAAEBV?$allocator@D@2@XZ
_TEXT	SEGMENT
this$ = 224
?_Getal@?$basic_string@DU?$char_traits@D@std@@V?$allocator@D@2@@std@@AEBAAEBV?$allocator@D@2@XZ PROC ; std::basic_string<char,std::char_traits<char>,std::allocator<char> >::_Getal, COMDAT

; 4676 :     _CONSTEXPR20 const _Alty& _Getal() const noexcept {

$LN3:
	mov	QWORD PTR [rsp+8], rcx
	push	rbp
	push	rdi
	sub	rsp, 232				; 000000e8H
	lea	rbp, QWORD PTR [rsp+32]
	lea	rcx, OFFSET FLAT:__CF153B44_xstring
	call	__CheckForDebuggerJustMyCode

; 4677 :         return _Mypair._Get_first();

	mov	rax, QWORD PTR this$[rbp]
	mov	rcx, rax
	call	?_Get_first@?$_Compressed_pair@V?$allocator@D@std@@V?$_String_val@U?$_Simple_types@D@std@@@2@$00@std@@QEBAAEBV?$allocator@D@2@XZ ; std::_Compressed_pair<std::allocator<char>,std::_String_val<std::_Simple_types<char> >,1>::_Get_first

; 4678 :     }

	lea	rsp, QWORD PTR [rbp+200]
	pop	rdi
	pop	rbp
	ret	0
?_Getal@?$basic_string@DU?$char_traits@D@std@@V?$allocator@D@2@@std@@AEBAAEBV?$allocator@D@2@XZ ENDP ; std::basic_string<char,std::char_traits<char>,std::allocator<char> >::_Getal
_TEXT	ENDS
; Function compile flags: /Odtp /RTCsu /ZI
; File C:\Program Files\Microsoft Visual Studio\2022\Community\VC\Tools\MSVC\14.31.31103\include\xstring
;	COMDAT ?_Getal@?$basic_string@DU?$char_traits@D@std@@V?$allocator@D@2@@std@@AEAAAEAV?$allocator@D@2@XZ
_TEXT	SEGMENT
this$ = 224
?_Getal@?$basic_string@DU?$char_traits@D@std@@V?$allocator@D@2@@std@@AEAAAEAV?$allocator@D@2@XZ PROC ; std::basic_string<char,std::char_traits<char>,std::allocator<char> >::_Getal, COMDAT

; 4672 :     _CONSTEXPR20 _Alty& _Getal() noexcept {

$LN3:
	mov	QWORD PTR [rsp+8], rcx
	push	rbp
	push	rdi
	sub	rsp, 232				; 000000e8H
	lea	rbp, QWORD PTR [rsp+32]
	lea	rcx, OFFSET FLAT:__CF153B44_xstring
	call	__CheckForDebuggerJustMyCode

; 4673 :         return _Mypair._Get_first();

	mov	rax, QWORD PTR this$[rbp]
	mov	rcx, rax
	call	?_Get_first@?$_Compressed_pair@V?$allocator@D@std@@V?$_String_val@U?$_Simple_types@D@std@@@2@$00@std@@QEAAAEAV?$allocator@D@2@XZ ; std::_Compressed_pair<std::allocator<char>,std::_String_val<std::_Simple_types<char> >,1>::_Get_first

; 4674 :     }

	lea	rsp, QWORD PTR [rbp+200]
	pop	rdi
	pop	rbp
	ret	0
?_Getal@?$basic_string@DU?$char_traits@D@std@@V?$allocator@D@2@@std@@AEAAAEAV?$allocator@D@2@XZ ENDP ; std::basic_string<char,std::char_traits<char>,std::allocator<char> >::_Getal
_TEXT	ENDS
; Function compile flags: /Odtp /RTCsu /ZI
; File C:\Program Files\Microsoft Visual Studio\2022\Community\VC\Tools\MSVC\14.31.31103\include\xstring
;	COMDAT ?_Tidy_deallocate@?$basic_string@DU?$char_traits@D@std@@V?$allocator@D@2@@std@@AEAAXXZ
_TEXT	SEGMENT
_Ptr$1 = 8
_Al$2 = 40
$T3 = 260
this$ = 320
?_Tidy_deallocate@?$basic_string@DU?$char_traits@D@std@@V?$allocator@D@2@@std@@AEAAXXZ PROC ; std::basic_string<char,std::char_traits<char>,std::allocator<char> >::_Tidy_deallocate, COMDAT

; 4638 :     _CONSTEXPR20 void _Tidy_deallocate() noexcept { // initialize buffer, deallocating any storage

$LN6:
	mov	QWORD PTR [rsp+8], rcx
	push	rbp
	push	rdi
	sub	rsp, 328				; 00000148H
	lea	rbp, QWORD PTR [rsp+32]
	lea	rcx, OFFSET FLAT:__CF153B44_xstring
	call	__CheckForDebuggerJustMyCode

; 4639 :         _Mypair._Myval2._Orphan_all();

	mov	rax, QWORD PTR this$[rbp]
	mov	rcx, rax
	call	?_Orphan_all@_Container_base12@std@@QEAAXXZ ; std::_Container_base12::_Orphan_all

; 4640 :         if (_Mypair._Myval2._Large_string_engaged()) {

	mov	rax, QWORD PTR this$[rbp]
	mov	rcx, rax
	call	?_Large_string_engaged@?$_String_val@U?$_Simple_types@D@std@@@std@@QEBA_NXZ ; std::_String_val<std::_Simple_types<char> >::_Large_string_engaged
	movzx	eax, al
	test	eax, eax
	je	SHORT $LN2@Tidy_deall

; 4641 :             const pointer _Ptr = _Mypair._Myval2._Bx._Ptr;

	mov	rax, QWORD PTR this$[rbp]
	mov	rax, QWORD PTR [rax+8]
	mov	QWORD PTR _Ptr$1[rbp], rax

; 4642 :             auto& _Al          = _Getal();

	mov	rcx, QWORD PTR this$[rbp]
	call	?_Getal@?$basic_string@DU?$char_traits@D@std@@V?$allocator@D@2@@std@@AEAAAEAV?$allocator@D@2@XZ ; std::basic_string<char,std::char_traits<char>,std::allocator<char> >::_Getal
	mov	QWORD PTR _Al$2[rbp], rax

; 4643 :             _Destroy_in_place(_Mypair._Myval2._Bx._Ptr);

	mov	rax, QWORD PTR this$[rbp]
	add	rax, 8
	mov	rcx, rax
	call	??$_Destroy_in_place@PEAD@std@@YAXAEAPEAD@Z ; std::_Destroy_in_place<char *>

; 4644 :             _Al.deallocate(_Ptr, _Mypair._Myval2._Myres + 1);

	mov	rax, QWORD PTR this$[rbp]
	mov	rax, QWORD PTR [rax+32]
	inc	rax
	mov	r8, rax
	mov	rdx, QWORD PTR _Ptr$1[rbp]
	mov	rcx, QWORD PTR _Al$2[rbp]
	call	?deallocate@?$allocator@D@std@@QEAAXQEAD_K@Z ; std::allocator<char>::deallocate
$LN2@Tidy_deall:

; 4645 :         }
; 4646 : 
; 4647 : #if _HAS_CXX20
; 4648 :         if (_STD is_constant_evaluated()) {

	call	?is_constant_evaluated@std@@YA_NXZ	; std::is_constant_evaluated
	movzx	eax, al
	test	eax, eax
	je	SHORT $LN3@Tidy_deall

; 4649 :             _Mypair._Myval2._Bx._Ptr = nullptr;

	mov	rax, QWORD PTR this$[rbp]
	mov	QWORD PTR [rax+8], 0

; 4650 :             _Mypair._Myval2._Mysize  = 0;

	mov	rax, QWORD PTR this$[rbp]
	mov	QWORD PTR [rax+24], 0

; 4651 :             _Mypair._Myval2._Myres   = 0;

	mov	rax, QWORD PTR this$[rbp]
	mov	QWORD PTR [rax+32], 0

; 4652 :         } else

	jmp	SHORT $LN4@Tidy_deall
$LN3@Tidy_deall:

; 4653 : #endif // _HAS_CXX20
; 4654 :         {
; 4655 :             _Mypair._Myval2._Mysize = 0;

	mov	rax, QWORD PTR this$[rbp]
	mov	QWORD PTR [rax+24], 0

; 4656 :             _Mypair._Myval2._Myres  = _BUF_SIZE - 1;

	mov	rax, QWORD PTR this$[rbp]
	mov	QWORD PTR [rax+32], 15

; 4657 :             // the _Traits::assign is last so the codegen doesn't think the char write can alias this
; 4658 :             _Traits::assign(_Mypair._Myval2._Bx._Buf[0], _Elem());

	mov	BYTE PTR $T3[rbp], 0
	mov	eax, 1
	imul	rax, rax, 0
	mov	rcx, QWORD PTR this$[rbp]
	lea	rax, QWORD PTR [rcx+rax+8]
	lea	rdx, QWORD PTR $T3[rbp]
	mov	rcx, rax
	call	?assign@?$_Narrow_char_traits@DH@std@@SAXAEADAEBD@Z ; std::_Narrow_char_traits<char,int>::assign
	npad	1
$LN4@Tidy_deall:

; 4659 :         }
; 4660 :     }

	lea	rsp, QWORD PTR [rbp+296]
	pop	rdi
	pop	rbp
	ret	0
?_Tidy_deallocate@?$basic_string@DU?$char_traits@D@std@@V?$allocator@D@2@@std@@AEAAXXZ ENDP ; std::basic_string<char,std::char_traits<char>,std::allocator<char> >::_Tidy_deallocate
_TEXT	ENDS
; Function compile flags: /Odtp /RTCsu /ZI
; File C:\Program Files\Microsoft Visual Studio\2022\Community\VC\Tools\MSVC\14.31.31103\include\xstring
;	COMDAT ?_Tidy_init@?$basic_string@DU?$char_traits@D@std@@V?$allocator@D@2@@std@@AEAAXXZ
_TEXT	SEGMENT
_My_data$ = 8
_Al$1 = 40
_New_ptr$2 = 72
_Raw_new$3 = 104
$T4 = 324
this$ = 384
?_Tidy_init@?$basic_string@DU?$char_traits@D@std@@V?$allocator@D@2@@std@@AEAAXXZ PROC ; std::basic_string<char,std::char_traits<char>,std::allocator<char> >::_Tidy_init, COMDAT

; 4616 :     _CONSTEXPR20 void _Tidy_init() noexcept { // initialize basic_string data members

$LN5:
	mov	QWORD PTR [rsp+8], rcx
	push	rbp
	push	rdi
	sub	rsp, 392				; 00000188H
	lea	rbp, QWORD PTR [rsp+32]
	lea	rcx, OFFSET FLAT:__CF153B44_xstring
	call	__CheckForDebuggerJustMyCode

; 4617 :         auto& _My_data   = _Mypair._Myval2;

	mov	rax, QWORD PTR this$[rbp]
	mov	QWORD PTR _My_data$[rbp], rax

; 4618 :         _My_data._Mysize = 0;

	mov	rax, QWORD PTR _My_data$[rbp]
	mov	QWORD PTR [rax+24], 0

; 4619 : 
; 4620 : #if _HAS_CXX20
; 4621 :         if (_STD is_constant_evaluated()) {

	call	?is_constant_evaluated@std@@YA_NXZ	; std::is_constant_evaluated
	movzx	eax, al
	test	eax, eax
	je	SHORT $LN2@Tidy_init

; 4622 :             _My_data._Myres        = _BUF_SIZE; // SSO disabled in constexpr context

	mov	rax, QWORD PTR _My_data$[rbp]
	mov	QWORD PTR [rax+32], 16

; 4623 :             auto& _Al              = _Getal();

	mov	rcx, QWORD PTR this$[rbp]
	call	?_Getal@?$basic_string@DU?$char_traits@D@std@@V?$allocator@D@2@@std@@AEAAAEAV?$allocator@D@2@XZ ; std::basic_string<char,std::char_traits<char>,std::allocator<char> >::_Getal
	mov	QWORD PTR _Al$1[rbp], rax

; 4624 :             const pointer _New_ptr = _Al.allocate(_BUF_SIZE + 1); // throws

	mov	edx, 17
	mov	rcx, QWORD PTR _Al$1[rbp]
	call	?allocate@?$allocator@D@std@@QEAAPEAD_K@Z ; std::allocator<char>::allocate
	mov	QWORD PTR _New_ptr$2[rbp], rax

; 4625 :             _My_data._Bx._Ptr      = _New_ptr;

	mov	rax, QWORD PTR _My_data$[rbp]
	mov	rcx, QWORD PTR _New_ptr$2[rbp]
	mov	QWORD PTR [rax+8], rcx

; 4626 : 
; 4627 :             _Elem* const _Raw_new = _Unfancy(_New_ptr);

	mov	rcx, QWORD PTR _New_ptr$2[rbp]
	call	??$_Unfancy@D@std@@YAPEADPEAD@Z		; std::_Unfancy<char>
	mov	QWORD PTR _Raw_new$3[rbp], rax

; 4628 :             _Traits::assign(_Raw_new, _BUF_SIZE + 1, _Elem());

	xor	r8d, r8d
	mov	edx, 17
	mov	rcx, QWORD PTR _Raw_new$3[rbp]
	call	?assign@?$_Narrow_char_traits@DH@std@@SAPEADQEAD_KD@Z ; std::_Narrow_char_traits<char,int>::assign

; 4629 :         } else

	jmp	SHORT $LN3@Tidy_init
$LN2@Tidy_init:

; 4630 : #endif // _HAS_CXX20
; 4631 :         {
; 4632 :             _My_data._Myres = _BUF_SIZE - 1;

	mov	rax, QWORD PTR _My_data$[rbp]
	mov	QWORD PTR [rax+32], 15

; 4633 :             // the _Traits::assign is last so the codegen doesn't think the char write can alias this
; 4634 :             _Traits::assign(_My_data._Bx._Buf[0], _Elem());

	mov	BYTE PTR $T4[rbp], 0
	mov	eax, 1
	imul	rax, rax, 0
	mov	rcx, QWORD PTR _My_data$[rbp]
	lea	rax, QWORD PTR [rcx+rax+8]
	lea	rdx, QWORD PTR $T4[rbp]
	mov	rcx, rax
	call	?assign@?$_Narrow_char_traits@DH@std@@SAXAEADAEBD@Z ; std::_Narrow_char_traits<char,int>::assign
	npad	1
$LN3@Tidy_init:

; 4635 :         }
; 4636 :     }

	lea	rsp, QWORD PTR [rbp+360]
	pop	rdi
	pop	rbp
	ret	0
?_Tidy_init@?$basic_string@DU?$char_traits@D@std@@V?$allocator@D@2@@std@@AEAAXXZ ENDP ; std::basic_string<char,std::char_traits<char>,std::allocator<char> >::_Tidy_init
_TEXT	ENDS
; Function compile flags: /Odtp /RTCsu /ZI
; File C:\Program Files\Microsoft Visual Studio\2022\Community\VC\Tools\MSVC\14.31.31103\include\xstring
;	COMDAT ?_Calculate_growth@?$basic_string@DU?$char_traits@D@std@@V?$allocator@D@2@@std@@AEBA_K_K@Z
_TEXT	SEGMENT
tv76 = 192
tv74 = 200
this$ = 240
_Requested$ = 248
?_Calculate_growth@?$basic_string@DU?$char_traits@D@std@@V?$allocator@D@2@@std@@AEBA_K_K@Z PROC ; std::basic_string<char,std::char_traits<char>,std::allocator<char> >::_Calculate_growth, COMDAT

; 4523 :     _NODISCARD _CONSTEXPR20 size_type _Calculate_growth(const size_type _Requested) const noexcept {

$LN3:
	mov	QWORD PTR [rsp+16], rdx
	mov	QWORD PTR [rsp+8], rcx
	push	rbp
	push	rdi
	sub	rsp, 248				; 000000f8H
	lea	rbp, QWORD PTR [rsp+32]
	lea	rcx, OFFSET FLAT:__CF153B44_xstring
	call	__CheckForDebuggerJustMyCode

; 4524 :         return _Calculate_growth(_Requested, _Mypair._Myval2._Myres, max_size());

	mov	rcx, QWORD PTR this$[rbp]
	call	?max_size@?$basic_string@DU?$char_traits@D@std@@V?$allocator@D@2@@std@@QEBA_KXZ ; std::basic_string<char,std::char_traits<char>,std::allocator<char> >::max_size
	mov	QWORD PTR tv76[rbp], rax
	mov	rax, QWORD PTR this$[rbp]
	mov	rax, QWORD PTR [rax+32]
	mov	QWORD PTR tv74[rbp], rax
	mov	r8, QWORD PTR tv76[rbp]
	mov	rdx, QWORD PTR tv74[rbp]
	mov	rcx, QWORD PTR _Requested$[rbp]
	call	?_Calculate_growth@?$basic_string@DU?$char_traits@D@std@@V?$allocator@D@2@@std@@CA_K_K00@Z ; std::basic_string<char,std::char_traits<char>,std::allocator<char> >::_Calculate_growth

; 4525 :     }

	lea	rsp, QWORD PTR [rbp+216]
	pop	rdi
	pop	rbp
	ret	0
?_Calculate_growth@?$basic_string@DU?$char_traits@D@std@@V?$allocator@D@2@@std@@AEBA_K_K@Z ENDP ; std::basic_string<char,std::char_traits<char>,std::allocator<char> >::_Calculate_growth
_TEXT	ENDS
; Function compile flags: /Odtp /RTCsu /ZI
; File C:\Program Files\Microsoft Visual Studio\2022\Community\VC\Tools\MSVC\14.31.31103\include\xstring
;	COMDAT ?_Calculate_growth@?$basic_string@DU?$char_traits@D@std@@V?$allocator@D@2@@std@@CA_K_K00@Z
_TEXT	SEGMENT
_Masked$ = 8
$T4 = 232
__$ArrayPad$ = 248
_Requested$ = 288
_Old$ = 296
_Max$ = 304
?_Calculate_growth@?$basic_string@DU?$char_traits@D@std@@V?$allocator@D@2@@std@@CA_K_K00@Z PROC ; std::basic_string<char,std::char_traits<char>,std::allocator<char> >::_Calculate_growth, COMDAT

; 4510 :         const size_type _Requested, const size_type _Old, const size_type _Max) noexcept {

$LN5:
	mov	QWORD PTR [rsp+24], r8
	mov	QWORD PTR [rsp+16], rdx
	mov	QWORD PTR [rsp+8], rcx
	push	rbp
	push	rdi
	sub	rsp, 296				; 00000128H
	lea	rbp, QWORD PTR [rsp+32]
	lea	rdi, QWORD PTR [rsp+32]
	mov	ecx, 18
	mov	eax, -858993460				; ccccccccH
	rep stosd
	mov	rcx, QWORD PTR [rsp+328]
	mov	rax, QWORD PTR __security_cookie
	xor	rax, rbp
	mov	QWORD PTR __$ArrayPad$[rbp], rax
	lea	rcx, OFFSET FLAT:__CF153B44_xstring
	call	__CheckForDebuggerJustMyCode

; 4511 :         const size_type _Masked = _Requested | _ALLOC_MASK;

	mov	rax, QWORD PTR _Requested$[rbp]
	or	rax, 15
	mov	QWORD PTR _Masked$[rbp], rax

; 4512 :         if (_Masked > _Max) { // the mask overflows, settle for max_size()

	mov	rax, QWORD PTR _Max$[rbp]
	cmp	QWORD PTR _Masked$[rbp], rax
	jbe	SHORT $LN2@Calculate_

; 4513 :             return _Max;

	mov	rax, QWORD PTR _Max$[rbp]
	jmp	SHORT $LN1@Calculate_
$LN2@Calculate_:

; 4514 :         }
; 4515 : 
; 4516 :         if (_Old > _Max - _Old / 2) { // similarly, geometric overflows

	xor	edx, edx
	mov	rax, QWORD PTR _Old$[rbp]
	mov	ecx, 2
	div	rcx
	mov	rcx, QWORD PTR _Max$[rbp]
	sub	rcx, rax
	mov	rax, rcx
	cmp	QWORD PTR _Old$[rbp], rax
	jbe	SHORT $LN3@Calculate_

; 4517 :             return _Max;

	mov	rax, QWORD PTR _Max$[rbp]
	jmp	SHORT $LN1@Calculate_
$LN3@Calculate_:

; 4518 :         }
; 4519 : 
; 4520 :         return (_STD max) (_Masked, _Old + _Old / 2);

	xor	edx, edx
	mov	rax, QWORD PTR _Old$[rbp]
	mov	ecx, 2
	div	rcx
	mov	rcx, QWORD PTR _Old$[rbp]
	add	rcx, rax
	mov	rax, rcx
	mov	QWORD PTR $T4[rbp], rax
	lea	rdx, QWORD PTR $T4[rbp]
	lea	rcx, QWORD PTR _Masked$[rbp]
	call	??$max@_K@std@@YAAEB_KAEB_K0@Z		; std::max<unsigned __int64>
	mov	rax, QWORD PTR [rax]
$LN1@Calculate_:

; 4521 :     }

	mov	rdi, rax
	lea	rcx, QWORD PTR [rbp-32]
	lea	rdx, OFFSET FLAT:?_Calculate_growth@?$basic_string@DU?$char_traits@D@std@@V?$allocator@D@2@@std@@CA_K_K00@Z$rtcFrameData
	call	_RTC_CheckStackVars
	mov	rax, rdi
	mov	rcx, QWORD PTR __$ArrayPad$[rbp]
	xor	rcx, rbp
	call	__security_check_cookie
	lea	rsp, QWORD PTR [rbp+264]
	pop	rdi
	pop	rbp
	ret	0
?_Calculate_growth@?$basic_string@DU?$char_traits@D@std@@V?$allocator@D@2@@std@@CA_K_K00@Z ENDP ; std::basic_string<char,std::char_traits<char>,std::allocator<char> >::_Calculate_growth
_TEXT	ENDS
; Function compile flags: /Odtp /RTCsu /ZI
; File C:\Program Files\Microsoft Visual Studio\2022\Community\VC\Tools\MSVC\14.31.31103\include\xstring
;	COMDAT ?max_size@?$basic_string@DU?$char_traits@D@std@@V?$allocator@D@2@@std@@QEBA_KXZ
_TEXT	SEGMENT
_Alloc_max$ = 8
_Storage_max$ = 40
$T4 = 264
$T5 = 296
$T6 = 328
__$ArrayPad$ = 344
this$ = 384
?max_size@?$basic_string@DU?$char_traits@D@std@@V?$allocator@D@2@@std@@QEBA_KXZ PROC ; std::basic_string<char,std::char_traits<char>,std::allocator<char> >::max_size, COMDAT

; 3941 :     _NODISCARD _CONSTEXPR20 size_type max_size() const noexcept {

$LN3:
	mov	QWORD PTR [rsp+8], rcx
	push	rbp
	push	rdi
	sub	rsp, 392				; 00000188H
	lea	rbp, QWORD PTR [rsp+32]
	lea	rdi, QWORD PTR [rsp+32]
	mov	ecx, 42					; 0000002aH
	mov	eax, -858993460				; ccccccccH
	rep stosd
	mov	rcx, QWORD PTR [rsp+424]
	mov	rax, QWORD PTR __security_cookie
	xor	rax, rbp
	mov	QWORD PTR __$ArrayPad$[rbp], rax
	lea	rcx, OFFSET FLAT:__CF153B44_xstring
	call	__CheckForDebuggerJustMyCode

; 3942 :         const size_type _Alloc_max   = _Alty_traits::max_size(_Getal());

	mov	rcx, QWORD PTR this$[rbp]
	call	?_Getal@?$basic_string@DU?$char_traits@D@std@@V?$allocator@D@2@@std@@AEBAAEBV?$allocator@D@2@XZ ; std::basic_string<char,std::char_traits<char>,std::allocator<char> >::_Getal
	mov	rcx, rax
	call	?max_size@?$_Default_allocator_traits@V?$allocator@D@std@@@std@@SA_KAEBV?$allocator@D@2@@Z ; std::_Default_allocator_traits<std::allocator<char> >::max_size
	mov	QWORD PTR _Alloc_max$[rbp], rax

; 3943 :         const size_type _Storage_max = // can always store small string

	mov	QWORD PTR $T4[rbp], 16
	lea	rdx, QWORD PTR $T4[rbp]
	lea	rcx, QWORD PTR _Alloc_max$[rbp]
	call	??$max@_K@std@@YAAEB_KAEB_K0@Z		; std::max<unsigned __int64>
	mov	rax, QWORD PTR [rax]
	mov	QWORD PTR _Storage_max$[rbp], rax

; 3944 :             (_STD max) (_Alloc_max, static_cast<size_type>(_BUF_SIZE));
; 3945 :         return (_STD min) (static_cast<size_type>((numeric_limits<difference_type>::max) ()),

	mov	rax, QWORD PTR _Storage_max$[rbp]
	dec	rax
	mov	QWORD PTR $T5[rbp], rax
	call	?max@?$numeric_limits@_J@std@@SA_JXZ	; std::numeric_limits<__int64>::max
	mov	QWORD PTR $T6[rbp], rax
	lea	rdx, QWORD PTR $T5[rbp]
	lea	rcx, QWORD PTR $T6[rbp]
	call	??$min@_K@std@@YAAEB_KAEB_K0@Z		; std::min<unsigned __int64>
	mov	rax, QWORD PTR [rax]

; 3946 :             _Storage_max - 1 // -1 is for null terminator and/or npos
; 3947 :         );
; 3948 :     }

	mov	rdi, rax
	lea	rcx, QWORD PTR [rbp-32]
	lea	rdx, OFFSET FLAT:?max_size@?$basic_string@DU?$char_traits@D@std@@V?$allocator@D@2@@std@@QEBA_KXZ$rtcFrameData
	call	_RTC_CheckStackVars
	mov	rax, rdi
	mov	rcx, QWORD PTR __$ArrayPad$[rbp]
	xor	rcx, rbp
	call	__security_check_cookie
	lea	rsp, QWORD PTR [rbp+360]
	pop	rdi
	pop	rbp
	ret	0
?max_size@?$basic_string@DU?$char_traits@D@std@@V?$allocator@D@2@@std@@QEBA_KXZ ENDP ; std::basic_string<char,std::char_traits<char>,std::allocator<char> >::max_size
_TEXT	ENDS
; Function compile flags: /Odtp /RTCsu /ZI
; File C:\Program Files\Microsoft Visual Studio\2022\Community\VC\Tools\MSVC\14.31.31103\include\xstring
;	COMDAT ?size@?$basic_string@DU?$char_traits@D@std@@V?$allocator@D@2@@std@@QEBA_KXZ
_TEXT	SEGMENT
this$ = 224
?size@?$basic_string@DU?$char_traits@D@std@@V?$allocator@D@2@@std@@QEBA_KXZ PROC ; std::basic_string<char,std::char_traits<char>,std::allocator<char> >::size, COMDAT

; 3937 :     _NODISCARD _CONSTEXPR20 size_type size() const noexcept {

$LN3:
	mov	QWORD PTR [rsp+8], rcx
	push	rbp
	push	rdi
	sub	rsp, 232				; 000000e8H
	lea	rbp, QWORD PTR [rsp+32]
	lea	rcx, OFFSET FLAT:__CF153B44_xstring
	call	__CheckForDebuggerJustMyCode

; 3938 :         return _Mypair._Myval2._Mysize;

	mov	rax, QWORD PTR this$[rbp]
	mov	rax, QWORD PTR [rax+24]

; 3939 :     }

	lea	rsp, QWORD PTR [rbp+200]
	pop	rdi
	pop	rbp
	ret	0
?size@?$basic_string@DU?$char_traits@D@std@@V?$allocator@D@2@@std@@QEBA_KXZ ENDP ; std::basic_string<char,std::char_traits<char>,std::allocator<char> >::size
_TEXT	ENDS
; Function compile flags: /Odtp /RTCsu /ZI
; File C:\Program Files\Microsoft Visual Studio\2022\Community\VC\Tools\MSVC\14.31.31103\include\xstring
;	COMDAT ?data@?$basic_string@DU?$char_traits@D@std@@V?$allocator@D@2@@std@@QEBAPEBDXZ
_TEXT	SEGMENT
this$ = 224
?data@?$basic_string@DU?$char_traits@D@std@@V?$allocator@D@2@@std@@QEBAPEBDXZ PROC ; std::basic_string<char,std::char_traits<char>,std::allocator<char> >::data, COMDAT

; 3923 :     _NODISCARD _CONSTEXPR20 _Ret_z_ const _Elem* data() const noexcept {

$LN3:
	mov	QWORD PTR [rsp+8], rcx
	push	rbp
	push	rdi
	sub	rsp, 232				; 000000e8H
	lea	rbp, QWORD PTR [rsp+32]
	lea	rcx, OFFSET FLAT:__CF153B44_xstring
	call	__CheckForDebuggerJustMyCode

; 3924 :         return _Mypair._Myval2._Myptr();

	mov	rax, QWORD PTR this$[rbp]
	mov	rcx, rax
	call	?_Myptr@?$_String_val@U?$_Simple_types@D@std@@@std@@QEBAPEBDXZ ; std::_String_val<std::_Simple_types<char> >::_Myptr

; 3925 :     }

	lea	rsp, QWORD PTR [rbp+200]
	pop	rdi
	pop	rbp
	ret	0
?data@?$basic_string@DU?$char_traits@D@std@@V?$allocator@D@2@@std@@QEBAPEBDXZ ENDP ; std::basic_string<char,std::char_traits<char>,std::allocator<char> >::data
_TEXT	ENDS
; Function compile flags: /Odtp /RTCsu /ZI
; File C:\Program Files\Microsoft Visual Studio\2022\Community\VC\Tools\MSVC\14.31.31103\include\xstring
;	COMDAT ?assign@?$basic_string@DU?$char_traits@D@std@@V?$allocator@D@2@@std@@QEAAAEAV12@QEBD@Z
_TEXT	SEGMENT
this$ = 224
_Ptr$ = 232
?assign@?$basic_string@DU?$char_traits@D@std@@V?$allocator@D@2@@std@@QEAAAEAV12@QEBD@Z PROC ; std::basic_string<char,std::char_traits<char>,std::allocator<char> >::assign, COMDAT

; 3265 :     _CONSTEXPR20 basic_string& assign(_In_z_ const _Elem* const _Ptr) {

$LN3:
	mov	QWORD PTR [rsp+16], rdx
	mov	QWORD PTR [rsp+8], rcx
	push	rbp
	push	rdi
	sub	rsp, 232				; 000000e8H
	lea	rbp, QWORD PTR [rsp+32]
	lea	rcx, OFFSET FLAT:__CF153B44_xstring
	call	__CheckForDebuggerJustMyCode

; 3266 :         return assign(_Ptr, _Convert_size<size_type>(_Traits::length(_Ptr)));

	mov	rcx, QWORD PTR _Ptr$[rbp]
	call	?length@?$_Narrow_char_traits@DH@std@@SA_KQEBD@Z ; std::_Narrow_char_traits<char,int>::length
	mov	rcx, rax
	call	??$_Convert_size@_K@std@@YA_K_K@Z	; std::_Convert_size<unsigned __int64>
	mov	r8, rax
	mov	rdx, QWORD PTR _Ptr$[rbp]
	mov	rcx, QWORD PTR this$[rbp]
	call	?assign@?$basic_string@DU?$char_traits@D@std@@V?$allocator@D@2@@std@@QEAAAEAV12@QEBD_K@Z ; std::basic_string<char,std::char_traits<char>,std::allocator<char> >::assign

; 3267 :     }

	lea	rsp, QWORD PTR [rbp+200]
	pop	rdi
	pop	rbp
	ret	0
?assign@?$basic_string@DU?$char_traits@D@std@@V?$allocator@D@2@@std@@QEAAAEAV12@QEBD@Z ENDP ; std::basic_string<char,std::char_traits<char>,std::allocator<char> >::assign
_TEXT	ENDS
; Function compile flags: /Odtp /RTCsu /ZI
; File C:\Program Files\Microsoft Visual Studio\2022\Community\VC\Tools\MSVC\14.31.31103\include\xstring
;	COMDAT ?assign@?$basic_string@DU?$char_traits@D@std@@V?$allocator@D@2@@std@@QEAAAEAV12@QEBD_K@Z
_TEXT	SEGMENT
_Old_ptr$1 = 8
$T2 = 228
$T3 = 260
this$ = 320
_Ptr$ = 328
_Count$ = 336
?assign@?$basic_string@DU?$char_traits@D@std@@V?$allocator@D@2@@std@@QEAAAEAV12@QEBD_K@Z PROC ; std::basic_string<char,std::char_traits<char>,std::allocator<char> >::assign, COMDAT

; 3246 :         _In_reads_(_Count) const _Elem* const _Ptr, _CRT_GUARDOVERFLOW const size_type _Count) {

$LN4:
	mov	QWORD PTR [rsp+24], r8
	mov	QWORD PTR [rsp+16], rdx
	mov	QWORD PTR [rsp+8], rcx
	push	rbp
	push	rdi
	sub	rsp, 328				; 00000148H
	lea	rbp, QWORD PTR [rsp+32]
	lea	rcx, OFFSET FLAT:__CF153B44_xstring
	call	__CheckForDebuggerJustMyCode

; 3247 :         // assign [_Ptr, _Ptr + _Count)
; 3248 :         if (_Count <= _Mypair._Myval2._Myres) {

	mov	rax, QWORD PTR this$[rbp]
	mov	rax, QWORD PTR [rax+32]
	cmp	QWORD PTR _Count$[rbp], rax
	ja	SHORT $LN2@assign

; 3249 :             _Elem* const _Old_ptr   = _Mypair._Myval2._Myptr();

	mov	rax, QWORD PTR this$[rbp]
	mov	rcx, rax
	call	?_Myptr@?$_String_val@U?$_Simple_types@D@std@@@std@@QEAAPEADXZ ; std::_String_val<std::_Simple_types<char> >::_Myptr
	mov	QWORD PTR _Old_ptr$1[rbp], rax

; 3250 :             _Mypair._Myval2._Mysize = _Count;

	mov	rax, QWORD PTR this$[rbp]
	mov	rcx, QWORD PTR _Count$[rbp]
	mov	QWORD PTR [rax+24], rcx

; 3251 :             _Traits::move(_Old_ptr, _Ptr, _Count);

	mov	r8, QWORD PTR _Count$[rbp]
	mov	rdx, QWORD PTR _Ptr$[rbp]
	mov	rcx, QWORD PTR _Old_ptr$1[rbp]
	call	?move@?$_Char_traits@DH@std@@SAPEADQEADQEBD_K@Z ; std::_Char_traits<char,int>::move

; 3252 :             _Traits::assign(_Old_ptr[_Count], _Elem());

	mov	BYTE PTR $T2[rbp], 0
	mov	rax, QWORD PTR _Count$[rbp]
	mov	rcx, QWORD PTR _Old_ptr$1[rbp]
	add	rcx, rax
	mov	rax, rcx
	lea	rdx, QWORD PTR $T2[rbp]
	mov	rcx, rax
	call	?assign@?$_Narrow_char_traits@DH@std@@SAXAEADAEBD@Z ; std::_Narrow_char_traits<char,int>::assign

; 3253 :             return *this;

	mov	rax, QWORD PTR this$[rbp]
	jmp	SHORT $LN1@assign
$LN2@assign:

; 3254 :         }
; 3255 : 
; 3256 :         return _Reallocate_for(

	mov	r9, QWORD PTR _Ptr$[rbp]
	movzx	r8d, BYTE PTR $T3[rbp]
	mov	rdx, QWORD PTR _Count$[rbp]
	mov	rcx, QWORD PTR this$[rbp]
	call	??$_Reallocate_for@V<lambda_1>@?1??assign@?$basic_string@DU?$char_traits@D@std@@V?$allocator@D@2@@std@@QEAAAEAV34@QEBD_K@Z@PEBD@?$basic_string@DU?$char_traits@D@std@@V?$allocator@D@2@@std@@AEAAAEAV01@_KV<lambda_1>@?1??assign@01@QEAAAEAV01@QEBD0@Z@PEBD@Z ; std::basic_string<char,std::char_traits<char>,std::allocator<char> >::_Reallocate_for<`std::basic_string<char,std::char_traits<char>,std::allocator<char> >::assign'::`2'::<lambda_1>,char const *>
$LN1@assign:

; 3257 :             _Count,
; 3258 :             [](_Elem* const _New_ptr, const size_type _Count, const _Elem* const _Ptr) {
; 3259 :                 _Traits::copy(_New_ptr, _Ptr, _Count);
; 3260 :                 _Traits::assign(_New_ptr[_Count], _Elem());
; 3261 :             },
; 3262 :             _Ptr);
; 3263 :     }

	lea	rsp, QWORD PTR [rbp+296]
	pop	rdi
	pop	rbp
	ret	0
?assign@?$basic_string@DU?$char_traits@D@std@@V?$allocator@D@2@@std@@QEAAAEAV12@QEBD_K@Z ENDP ; std::basic_string<char,std::char_traits<char>,std::allocator<char> >::assign
_TEXT	ENDS
; Function compile flags: /Odtp /RTCsu /ZI
; File C:\Program Files\Microsoft Visual Studio\2022\Community\VC\Tools\MSVC\14.31.31103\include\xstring
;	COMDAT ??4?$basic_string@DU?$char_traits@D@std@@V?$allocator@D@2@@std@@QEAAAEAV01@QEBD@Z
_TEXT	SEGMENT
this$ = 224
_Ptr$ = 232
??4?$basic_string@DU?$char_traits@D@std@@V?$allocator@D@2@@std@@QEAAAEAV01@QEBD@Z PROC ; std::basic_string<char,std::char_traits<char>,std::allocator<char> >::operator=, COMDAT

; 3091 :     _CONSTEXPR20 basic_string& operator=(_In_z_ const _Elem* const _Ptr) {

$LN3:
	mov	QWORD PTR [rsp+16], rdx
	mov	QWORD PTR [rsp+8], rcx
	push	rbp
	push	rdi
	sub	rsp, 232				; 000000e8H
	lea	rbp, QWORD PTR [rsp+32]
	lea	rcx, OFFSET FLAT:__CF153B44_xstring
	call	__CheckForDebuggerJustMyCode

; 3092 :         return assign(_Ptr);

	mov	rdx, QWORD PTR _Ptr$[rbp]
	mov	rcx, QWORD PTR this$[rbp]
	call	?assign@?$basic_string@DU?$char_traits@D@std@@V?$allocator@D@2@@std@@QEAAAEAV12@QEBD@Z ; std::basic_string<char,std::char_traits<char>,std::allocator<char> >::assign

; 3093 :     }

	lea	rsp, QWORD PTR [rbp+200]
	pop	rdi
	pop	rbp
	ret	0
??4?$basic_string@DU?$char_traits@D@std@@V?$allocator@D@2@@std@@QEAAAEAV01@QEBD@Z ENDP ; std::basic_string<char,std::char_traits<char>,std::allocator<char> >::operator=
_TEXT	ENDS
; Function compile flags: /Odtp /RTCsu /ZI
; File C:\Program Files\Microsoft Visual Studio\2022\Community\VC\Tools\MSVC\14.31.31103\include\xstring
;	COMDAT ??4?$basic_string@DU?$char_traits@D@std@@V?$allocator@D@2@@std@@QEAAAEAV01@AEBV01@@Z
_TEXT	SEGMENT
_Al$ = 8
_Right_al$ = 40
tv87 = 248
tv85 = 256
this$ = 304
_Right$ = 312
??4?$basic_string@DU?$char_traits@D@std@@V?$allocator@D@2@@std@@QEAAAEAV01@AEBV01@@Z PROC ; std::basic_string<char,std::char_traits<char>,std::allocator<char> >::operator=, COMDAT

; 3038 :     _CONSTEXPR20 basic_string& operator=(const basic_string& _Right) {

$LN4:
	mov	QWORD PTR [rsp+16], rdx
	mov	QWORD PTR [rsp+8], rcx
	push	rbp
	push	rdi
	sub	rsp, 312				; 00000138H
	lea	rbp, QWORD PTR [rsp+32]
	lea	rcx, OFFSET FLAT:__CF153B44_xstring
	call	__CheckForDebuggerJustMyCode

; 3039 :         if (this == _STD addressof(_Right)) {

	mov	rcx, QWORD PTR _Right$[rbp]
	call	??$addressof@$$CBV?$basic_string@DU?$char_traits@D@std@@V?$allocator@D@2@@std@@@std@@YAPEBV?$basic_string@DU?$char_traits@D@std@@V?$allocator@D@2@@0@AEBV10@@Z ; std::addressof<std::basic_string<char,std::char_traits<char>,std::allocator<char> > const >
	cmp	QWORD PTR this$[rbp], rax
	jne	SHORT $LN2@operator

; 3040 :             return *this;

	mov	rax, QWORD PTR this$[rbp]
	jmp	SHORT $LN1@operator
$LN2@operator:

; 3041 :         }
; 3042 : 
; 3043 :         auto& _Al             = _Getal();

	mov	rcx, QWORD PTR this$[rbp]
	call	?_Getal@?$basic_string@DU?$char_traits@D@std@@V?$allocator@D@2@@std@@AEAAAEAV?$allocator@D@2@XZ ; std::basic_string<char,std::char_traits<char>,std::allocator<char> >::_Getal
	mov	QWORD PTR _Al$[rbp], rax

; 3044 :         const auto& _Right_al = _Right._Getal();

	mov	rcx, QWORD PTR _Right$[rbp]
	call	?_Getal@?$basic_string@DU?$char_traits@D@std@@V?$allocator@D@2@@std@@AEBAAEBV?$allocator@D@2@XZ ; std::basic_string<char,std::char_traits<char>,std::allocator<char> >::_Getal
	mov	QWORD PTR _Right_al$[rbp], rax

; 3045 :         if constexpr (_Choose_pocca_v<_Alty>) {
; 3046 :             if (_Al != _Right_al) {
; 3047 :                 auto&& _Alproxy       = _GET_PROXY_ALLOCATOR(_Alty, _Al);
; 3048 :                 auto&& _Right_alproxy = _GET_PROXY_ALLOCATOR(_Alty, _Right_al);
; 3049 :                 _Container_proxy_ptr<_Alty> _New_proxy(_Right_alproxy, _Leave_proxy_unbound{}); // throws
; 3050 : 
; 3051 :                 if (_Right._Mypair._Myval2._Large_string_engaged()) {
; 3052 :                     const auto _New_size     = _Right._Mypair._Myval2._Mysize;
; 3053 :                     const auto _New_capacity = _Calculate_growth(_New_size, 0, _Right.max_size());
; 3054 :                     auto _Right_al_non_const = _Right_al;
; 3055 :                     const auto _New_ptr      = _Right_al_non_const.allocate(_New_capacity); // throws
; 3056 : 
; 3057 : #if _HAS_CXX20
; 3058 :                     if (_STD is_constant_evaluated()) { // Begin the lifetimes of the objects before copying to
; 3059 :                                                         // avoid UB
; 3060 :                         _Traits::assign(_Unfancy(_New_ptr), _New_size + 1, _Elem());
; 3061 :                     }
; 3062 : #endif // _HAS_CXX20
; 3063 : 
; 3064 :                     _Traits::copy(_Unfancy(_New_ptr), _Unfancy(_Right._Mypair._Myval2._Bx._Ptr), _New_size + 1);
; 3065 :                     _Tidy_deallocate();
; 3066 :                     _Mypair._Myval2._Bx._Ptr = _New_ptr;
; 3067 :                     _Mypair._Myval2._Mysize  = _New_size;
; 3068 :                     _Mypair._Myval2._Myres   = _New_capacity;
; 3069 :                 } else {
; 3070 :                     _Copy_assign_val_from_small(_Right);
; 3071 :                 }
; 3072 : 
; 3073 :                 _Pocca(_Al, _Right_al);
; 3074 :                 _New_proxy._Bind(_Alproxy, _STD addressof(_Mypair._Myval2));
; 3075 :                 return *this;
; 3076 :             }
; 3077 :         }
; 3078 : 
; 3079 :         _Pocca(_Al, _Right_al);

	mov	rdx, QWORD PTR _Right_al$[rbp]
	mov	rcx, QWORD PTR _Al$[rbp]
	call	??$_Pocca@V?$allocator@D@std@@@std@@YAXAEAV?$allocator@D@0@AEBV10@@Z ; std::_Pocca<std::allocator<char> >

; 3080 :         assign(_Right._Mypair._Myval2._Myptr(), _Right._Mypair._Myval2._Mysize);

	mov	rax, QWORD PTR _Right$[rbp]
	mov	rax, QWORD PTR [rax+24]
	mov	QWORD PTR tv87[rbp], rax
	mov	rax, QWORD PTR _Right$[rbp]
	mov	rcx, rax
	call	?_Myptr@?$_String_val@U?$_Simple_types@D@std@@@std@@QEBAPEBDXZ ; std::_String_val<std::_Simple_types<char> >::_Myptr
	mov	QWORD PTR tv85[rbp], rax
	mov	r8, QWORD PTR tv87[rbp]
	mov	rdx, QWORD PTR tv85[rbp]
	mov	rcx, QWORD PTR this$[rbp]
	call	?assign@?$basic_string@DU?$char_traits@D@std@@V?$allocator@D@2@@std@@QEAAAEAV12@QEBD_K@Z ; std::basic_string<char,std::char_traits<char>,std::allocator<char> >::assign

; 3081 :         return *this;

	mov	rax, QWORD PTR this$[rbp]
$LN1@operator:

; 3082 :     }

	lea	rsp, QWORD PTR [rbp+280]
	pop	rdi
	pop	rbp
	ret	0
??4?$basic_string@DU?$char_traits@D@std@@V?$allocator@D@2@@std@@QEAAAEAV01@AEBV01@@Z ENDP ; std::basic_string<char,std::char_traits<char>,std::allocator<char> >::operator=
_TEXT	ENDS
; Function compile flags: /Odtp /RTCsu /ZI
; File C:\Program Files\Microsoft Visual Studio\2022\Community\VC\Tools\MSVC\14.31.31103\include\xstring
;	COMDAT ??1?$basic_string@DU?$char_traits@D@std@@V?$allocator@D@2@@std@@QEAA@XZ
_TEXT	SEGMENT
_Alproxy$ = 8
$S10$ = 36
_To_delete$ = 72
__$ArrayPad$ = 280
this$ = 320
??1?$basic_string@DU?$char_traits@D@std@@V?$allocator@D@2@@std@@QEAA@XZ PROC ; std::basic_string<char,std::char_traits<char>,std::allocator<char> >::~basic_string<char,std::char_traits<char>,std::allocator<char> >, COMDAT

; 3006 :     _CONSTEXPR20 ~basic_string() noexcept {

$LN3:
	mov	QWORD PTR [rsp+8], rcx
	push	rbp
	push	rdi
	sub	rsp, 328				; 00000148H
	lea	rbp, QWORD PTR [rsp+32]
	lea	rdi, QWORD PTR [rsp+32]
	mov	ecx, 26
	mov	eax, -858993460				; ccccccccH
	rep stosd
	mov	rcx, QWORD PTR [rsp+360]
	mov	rax, QWORD PTR __security_cookie
	xor	rax, rbp
	mov	QWORD PTR __$ArrayPad$[rbp], rax
	lea	rcx, OFFSET FLAT:__CF153B44_xstring
	call	__CheckForDebuggerJustMyCode

; 3007 :         _Tidy_deallocate();

	mov	rcx, QWORD PTR this$[rbp]
	call	?_Tidy_deallocate@?$basic_string@DU?$char_traits@D@std@@V?$allocator@D@2@@std@@AEAAXXZ ; std::basic_string<char,std::char_traits<char>,std::allocator<char> >::_Tidy_deallocate

; 3008 : #if _ITERATOR_DEBUG_LEVEL != 0
; 3009 :         auto&& _Alproxy          = _GET_PROXY_ALLOCATOR(_Alty, _Getal());

	mov	rcx, QWORD PTR this$[rbp]
	call	?_Getal@?$basic_string@DU?$char_traits@D@std@@V?$allocator@D@2@@std@@AEAAAEAV?$allocator@D@2@XZ ; std::basic_string<char,std::char_traits<char>,std::allocator<char> >::_Getal
	mov	rdx, rax
	lea	rcx, QWORD PTR $S10$[rbp]
	call	??$?0D@?$allocator@U_Container_proxy@std@@@std@@QEAA@AEBV?$allocator@D@1@@Z ; std::allocator<std::_Container_proxy>::allocator<std::_Container_proxy><char>
	lea	rax, QWORD PTR $S10$[rbp]
	mov	QWORD PTR _Alproxy$[rbp], rax

; 3010 :         const auto _To_delete    = _Mypair._Myval2._Myproxy;

	mov	rax, QWORD PTR this$[rbp]
	mov	rax, QWORD PTR [rax]
	mov	QWORD PTR _To_delete$[rbp], rax

; 3011 :         _Mypair._Myval2._Myproxy = nullptr;

	mov	rax, QWORD PTR this$[rbp]
	mov	QWORD PTR [rax], 0

; 3012 :         _Delete_plain_internal(_Alproxy, _To_delete);

	mov	rdx, QWORD PTR _To_delete$[rbp]
	mov	rcx, QWORD PTR _Alproxy$[rbp]
	call	??$_Delete_plain_internal@V?$allocator@U_Container_proxy@std@@@std@@@std@@YAXAEAV?$allocator@U_Container_proxy@std@@@0@QEAU_Container_proxy@0@@Z ; std::_Delete_plain_internal<std::allocator<std::_Container_proxy> >

; 3013 : #endif // _ITERATOR_DEBUG_LEVEL != 0
; 3014 :     }

	mov	rax, QWORD PTR this$[rbp]
	mov	rcx, rax
	call	??1?$_Compressed_pair@V?$allocator@D@std@@V?$_String_val@U?$_Simple_types@D@std@@@2@$00@std@@QEAA@XZ
	lea	rcx, QWORD PTR [rbp-32]
	lea	rdx, OFFSET FLAT:??1?$basic_string@DU?$char_traits@D@std@@V?$allocator@D@2@@std@@QEAA@XZ$rtcFrameData
	call	_RTC_CheckStackVars
	mov	rcx, QWORD PTR __$ArrayPad$[rbp]
	xor	rcx, rbp
	call	__security_check_cookie
	lea	rsp, QWORD PTR [rbp+296]
	pop	rdi
	pop	rbp
	ret	0
??1?$basic_string@DU?$char_traits@D@std@@V?$allocator@D@2@@std@@QEAA@XZ ENDP ; std::basic_string<char,std::char_traits<char>,std::allocator<char> >::~basic_string<char,std::char_traits<char>,std::allocator<char> >
_TEXT	ENDS
; Function compile flags: /Odtp /RTCsu /ZI
; File C:\Program Files\Microsoft Visual Studio\2022\Community\VC\Tools\MSVC\14.31.31103\include\xstring
;	COMDAT ??0?$basic_string@DU?$char_traits@D@std@@V?$allocator@D@2@@std@@QEAA@QEBD@Z
_TEXT	SEGMENT
_Alproxy$ = 8
$S11$ = 36
_Proxy$ = 72
$T5 = 308
tv69 = 328
__$ArrayPad$ = 336
this$ = 384
_Ptr$ = 392
??0?$basic_string@DU?$char_traits@D@std@@V?$allocator@D@2@@std@@QEAA@QEBD@Z PROC ; std::basic_string<char,std::char_traits<char>,std::allocator<char> >::basic_string<char,std::char_traits<char>,std::allocator<char> >, COMDAT

; 2522 :     _CONSTEXPR20 basic_string(_In_z_ const _Elem* const _Ptr) : _Mypair(_Zero_then_variadic_args_t{}) {

$LN5:
	mov	QWORD PTR [rsp+16], rdx
	mov	QWORD PTR [rsp+8], rcx
	push	rbp
	push	rdi
	sub	rsp, 392				; 00000188H
	lea	rbp, QWORD PTR [rsp+32]
	lea	rdi, QWORD PTR [rsp+32]
	mov	ecx, 42					; 0000002aH
	mov	eax, -858993460				; ccccccccH
	rep stosd
	mov	rcx, QWORD PTR [rsp+424]
	mov	rax, QWORD PTR __security_cookie
	xor	rax, rbp
	mov	QWORD PTR __$ArrayPad$[rbp], rax
	lea	rcx, OFFSET FLAT:__CF153B44_xstring
	call	__CheckForDebuggerJustMyCode
	mov	rax, QWORD PTR this$[rbp]
	mov	QWORD PTR tv69[rbp], rax
	movzx	edx, BYTE PTR $T5[rbp]
	mov	rcx, QWORD PTR tv69[rbp]
	call	??$?0$$V@?$_Compressed_pair@V?$allocator@D@std@@V?$_String_val@U?$_Simple_types@D@std@@@2@$00@std@@QEAA@U_Zero_then_variadic_args_t@1@@Z ; std::_Compressed_pair<std::allocator<char>,std::_String_val<std::_Simple_types<char> >,1>::_Compressed_pair<std::allocator<char>,std::_String_val<std::_Simple_types<char> >,1><>
	npad	1

; 2523 :         auto&& _Alproxy = _GET_PROXY_ALLOCATOR(_Alty, _Getal());

	mov	rcx, QWORD PTR this$[rbp]
	call	?_Getal@?$basic_string@DU?$char_traits@D@std@@V?$allocator@D@2@@std@@AEAAAEAV?$allocator@D@2@XZ ; std::basic_string<char,std::char_traits<char>,std::allocator<char> >::_Getal
	mov	rdx, rax
	lea	rcx, QWORD PTR $S11$[rbp]
	call	??$?0D@?$allocator@U_Container_proxy@std@@@std@@QEAA@AEBV?$allocator@D@1@@Z ; std::allocator<std::_Container_proxy>::allocator<std::_Container_proxy><char>
	lea	rax, QWORD PTR $S11$[rbp]
	mov	QWORD PTR _Alproxy$[rbp], rax

; 2524 :         _Container_proxy_ptr<_Alty> _Proxy(_Alproxy, _Mypair._Myval2);

	mov	rax, QWORD PTR this$[rbp]
	mov	r8, rax
	mov	rdx, QWORD PTR _Alproxy$[rbp]
	lea	rcx, QWORD PTR _Proxy$[rbp]
	call	??0?$_Container_proxy_ptr12@V?$allocator@U_Container_proxy@std@@@std@@@std@@QEAA@AEAV?$allocator@U_Container_proxy@std@@@1@AEAU_Container_base12@1@@Z ; std::_Container_proxy_ptr12<std::allocator<std::_Container_proxy> >::_Container_proxy_ptr12<std::allocator<std::_Container_proxy> >
	npad	1

; 2525 :         _Tidy_init();

	mov	rcx, QWORD PTR this$[rbp]
	call	?_Tidy_init@?$basic_string@DU?$char_traits@D@std@@V?$allocator@D@2@@std@@AEAAXXZ ; std::basic_string<char,std::char_traits<char>,std::allocator<char> >::_Tidy_init

; 2526 :         assign(_Ptr);

	mov	rdx, QWORD PTR _Ptr$[rbp]
	mov	rcx, QWORD PTR this$[rbp]
	call	?assign@?$basic_string@DU?$char_traits@D@std@@V?$allocator@D@2@@std@@QEAAAEAV12@QEBD@Z ; std::basic_string<char,std::char_traits<char>,std::allocator<char> >::assign

; 2527 :         _Proxy._Release();

	lea	rcx, QWORD PTR _Proxy$[rbp]
	call	?_Release@_Basic_container_proxy_ptr12@std@@QEAAXXZ ; std::_Basic_container_proxy_ptr12::_Release
	npad	1

; 2528 :     }

	lea	rcx, QWORD PTR _Proxy$[rbp]
	call	??1?$_Container_proxy_ptr12@V?$allocator@U_Container_proxy@std@@@std@@@std@@QEAA@XZ ; std::_Container_proxy_ptr12<std::allocator<std::_Container_proxy> >::~_Container_proxy_ptr12<std::allocator<std::_Container_proxy> >
	npad	1
	mov	rax, QWORD PTR this$[rbp]
	mov	rdi, rax
	lea	rcx, QWORD PTR [rbp-32]
	lea	rdx, OFFSET FLAT:??0?$basic_string@DU?$char_traits@D@std@@V?$allocator@D@2@@std@@QEAA@QEBD@Z$rtcFrameData
	call	_RTC_CheckStackVars
	mov	rax, rdi
	mov	rcx, QWORD PTR __$ArrayPad$[rbp]
	xor	rcx, rbp
	call	__security_check_cookie
	lea	rsp, QWORD PTR [rbp+360]
	pop	rdi
	pop	rbp
	ret	0
??0?$basic_string@DU?$char_traits@D@std@@V?$allocator@D@2@@std@@QEAA@QEBD@Z ENDP ; std::basic_string<char,std::char_traits<char>,std::allocator<char> >::basic_string<char,std::char_traits<char>,std::allocator<char> >
_TEXT	ENDS
; Function compile flags: /Odtp /RTCsu /ZI
;	COMDAT text$x
text$x	SEGMENT
_Alproxy$ = 8
$S11$ = 36
_Proxy$ = 72
$T5 = 308
tv69 = 328
__$ArrayPad$ = 336
this$ = 384
_Ptr$ = 392
?dtor$0@?0???0?$basic_string@DU?$char_traits@D@std@@V?$allocator@D@2@@std@@QEAA@QEBD@Z@4HA PROC ; `std::basic_string<char,std::char_traits<char>,std::allocator<char> >::basic_string<char,std::char_traits<char>,std::allocator<char> >'::`1'::dtor$0
	mov	QWORD PTR [rsp+8], rcx
	mov	QWORD PTR [rsp+16], rdx
	push	rbp
	push	rdi
	sub	rsp, 40					; 00000028H
	lea	rbp, QWORD PTR [rdx+32]
	mov	rcx, QWORD PTR this$[rbp]
	call	??1?$_Compressed_pair@V?$allocator@D@std@@V?$_String_val@U?$_Simple_types@D@std@@@2@$00@std@@QEAA@XZ
	add	rsp, 40					; 00000028H
	pop	rdi
	pop	rbp
	ret	0
?dtor$0@?0???0?$basic_string@DU?$char_traits@D@std@@V?$allocator@D@2@@std@@QEAA@QEBD@Z@4HA ENDP ; `std::basic_string<char,std::char_traits<char>,std::allocator<char> >::basic_string<char,std::char_traits<char>,std::allocator<char> >'::`1'::dtor$0
text$x	ENDS
; Function compile flags: /Odtp /RTCsu /ZI
;	COMDAT text$x
text$x	SEGMENT
_Alproxy$ = 8
$S11$ = 36
_Proxy$ = 72
$T5 = 308
tv69 = 328
__$ArrayPad$ = 336
this$ = 384
_Ptr$ = 392
?dtor$1@?0???0?$basic_string@DU?$char_traits@D@std@@V?$allocator@D@2@@std@@QEAA@QEBD@Z@4HA PROC ; `std::basic_string<char,std::char_traits<char>,std::allocator<char> >::basic_string<char,std::char_traits<char>,std::allocator<char> >'::`1'::dtor$1
	mov	QWORD PTR [rsp+8], rcx
	mov	QWORD PTR [rsp+16], rdx
	push	rbp
	push	rdi
	sub	rsp, 40					; 00000028H
	lea	rbp, QWORD PTR [rdx+32]
	lea	rcx, QWORD PTR _Proxy$[rbp]
	call	??1?$_Container_proxy_ptr12@V?$allocator@U_Container_proxy@std@@@std@@@std@@QEAA@XZ ; std::_Container_proxy_ptr12<std::allocator<std::_Container_proxy> >::~_Container_proxy_ptr12<std::allocator<std::_Container_proxy> >
	add	rsp, 40					; 00000028H
	pop	rdi
	pop	rbp
	ret	0
?dtor$1@?0???0?$basic_string@DU?$char_traits@D@std@@V?$allocator@D@2@@std@@QEAA@QEBD@Z@4HA ENDP ; `std::basic_string<char,std::char_traits<char>,std::allocator<char> >::basic_string<char,std::char_traits<char>,std::allocator<char> >'::`1'::dtor$1
text$x	ENDS
; Function compile flags: /Odtp /RTCsu /ZI
; File C:\Program Files\Microsoft Visual Studio\2022\Community\VC\Tools\MSVC\14.31.31103\include\xstring
;	COMDAT ??0?$basic_string@DU?$char_traits@D@std@@V?$allocator@D@2@@std@@QEAA@XZ
_TEXT	SEGMENT
$T1 = 196
$T2 = 228
tv86 = 248
tv69 = 248
this$ = 288
??0?$basic_string@DU?$char_traits@D@std@@V?$allocator@D@2@@std@@QEAA@XZ PROC ; std::basic_string<char,std::char_traits<char>,std::allocator<char> >::basic_string<char,std::char_traits<char>,std::allocator<char> >, COMDAT

; 2474 :         : _Mypair(_Zero_then_variadic_args_t{}) {

$LN3:
	mov	QWORD PTR [rsp+8], rcx
	push	rbp
	push	rdi
	sub	rsp, 296				; 00000128H
	lea	rbp, QWORD PTR [rsp+32]
	lea	rcx, OFFSET FLAT:__CF153B44_xstring
	call	__CheckForDebuggerJustMyCode
	mov	rax, QWORD PTR this$[rbp]
	mov	QWORD PTR tv69[rbp], rax
	movzx	edx, BYTE PTR $T1[rbp]
	mov	rcx, QWORD PTR tv69[rbp]
	call	??$?0$$V@?$_Compressed_pair@V?$allocator@D@std@@V?$_String_val@U?$_Simple_types@D@std@@@2@$00@std@@QEAA@U_Zero_then_variadic_args_t@1@@Z ; std::_Compressed_pair<std::allocator<char>,std::_String_val<std::_Simple_types<char> >,1>::_Compressed_pair<std::allocator<char>,std::_String_val<std::_Simple_types<char> >,1><>

; 2475 :         _Mypair._Myval2._Alloc_proxy(_GET_PROXY_ALLOCATOR(_Alty, _Getal()));

	mov	rax, QWORD PTR this$[rbp]
	mov	QWORD PTR tv86[rbp], rax
	mov	rcx, QWORD PTR this$[rbp]
	call	?_Getal@?$basic_string@DU?$char_traits@D@std@@V?$allocator@D@2@@std@@AEAAAEAV?$allocator@D@2@XZ ; std::basic_string<char,std::char_traits<char>,std::allocator<char> >::_Getal
	mov	rdx, rax
	lea	rcx, QWORD PTR $T2[rbp]
	call	??$?0D@?$allocator@U_Container_proxy@std@@@std@@QEAA@AEBV?$allocator@D@1@@Z ; std::allocator<std::_Container_proxy>::allocator<std::_Container_proxy><char>
	mov	rdx, rax
	mov	rcx, QWORD PTR tv86[rbp]
	call	??$_Alloc_proxy@V?$allocator@U_Container_proxy@std@@@std@@@_Container_base12@std@@QEAAX$$QEAV?$allocator@U_Container_proxy@std@@@1@@Z ; std::_Container_base12::_Alloc_proxy<std::allocator<std::_Container_proxy> >

; 2476 :         _Tidy_init();

	mov	rcx, QWORD PTR this$[rbp]
	call	?_Tidy_init@?$basic_string@DU?$char_traits@D@std@@V?$allocator@D@2@@std@@AEAAXXZ ; std::basic_string<char,std::char_traits<char>,std::allocator<char> >::_Tidy_init

; 2477 :     }

	mov	rax, QWORD PTR this$[rbp]
	lea	rsp, QWORD PTR [rbp+264]
	pop	rdi
	pop	rbp
	ret	0
??0?$basic_string@DU?$char_traits@D@std@@V?$allocator@D@2@@std@@QEAA@XZ ENDP ; std::basic_string<char,std::char_traits<char>,std::allocator<char> >::basic_string<char,std::char_traits<char>,std::allocator<char> >
_TEXT	ENDS
; Function compile flags: /Odtp /RTCsu /ZI
;	COMDAT ??1?$_String_val@U?$_Simple_types@D@std@@@std@@QEAA@XZ
_TEXT	SEGMENT
this$ = 224
??1?$_String_val@U?$_Simple_types@D@std@@@std@@QEAA@XZ PROC ; std::_String_val<std::_Simple_types<char> >::~_String_val<std::_Simple_types<char> >, COMDAT
$LN3:
	mov	QWORD PTR [rsp+8], rcx
	push	rbp
	push	rdi
	sub	rsp, 232				; 000000e8H
	lea	rbp, QWORD PTR [rsp+32]
	mov	rax, QWORD PTR this$[rbp]
	add	rax, 8
	mov	rcx, rax
	call	??1_Bxty@?$_String_val@U?$_Simple_types@D@std@@@std@@QEAA@XZ ; std::_String_val<std::_Simple_types<char> >::_Bxty::~_Bxty
	lea	rsp, QWORD PTR [rbp+200]
	pop	rdi
	pop	rbp
	ret	0
??1?$_String_val@U?$_Simple_types@D@std@@@std@@QEAA@XZ ENDP ; std::_String_val<std::_Simple_types<char> >::~_String_val<std::_Simple_types<char> >
_TEXT	ENDS
; Function compile flags: /Odtp /RTCsu /ZI
; File C:\Program Files\Microsoft Visual Studio\2022\Community\VC\Tools\MSVC\14.31.31103\include\xstring
;	COMDAT ??1_Bxty@?$_String_val@U?$_Simple_types@D@std@@@std@@QEAA@XZ
_TEXT	SEGMENT
this$ = 224
??1_Bxty@?$_String_val@U?$_Simple_types@D@std@@@std@@QEAA@XZ PROC ; std::_String_val<std::_Simple_types<char> >::_Bxty::~_Bxty, COMDAT

; 2356 :         _CONSTEXPR20 ~_Bxty() noexcept {} // user-provided, for fancy pointers

$LN3:
	mov	QWORD PTR [rsp+8], rcx
	push	rbp
	push	rdi
	sub	rsp, 232				; 000000e8H
	lea	rbp, QWORD PTR [rsp+32]
	lea	rcx, OFFSET FLAT:__CF153B44_xstring
	call	__CheckForDebuggerJustMyCode
	lea	rsp, QWORD PTR [rbp+200]
	pop	rdi
	pop	rbp
	ret	0
??1_Bxty@?$_String_val@U?$_Simple_types@D@std@@@std@@QEAA@XZ ENDP ; std::_String_val<std::_Simple_types<char> >::_Bxty::~_Bxty
_TEXT	ENDS
; Function compile flags: /Odtp /RTCsu /ZI
; File C:\Program Files\Microsoft Visual Studio\2022\Community\VC\Tools\MSVC\14.31.31103\include\xstring
;	COMDAT ??0_Bxty@?$_String_val@U?$_Simple_types@D@std@@@std@@QEAA@XZ
_TEXT	SEGMENT
this$ = 224
??0_Bxty@?$_String_val@U?$_Simple_types@D@std@@@std@@QEAA@XZ PROC ; std::_String_val<std::_Simple_types<char> >::_Bxty::_Bxty, COMDAT

; 2354 :         _CONSTEXPR20 _Bxty() noexcept : _Ptr() {} // user-provided, for fancy pointers

$LN3:
	mov	QWORD PTR [rsp+8], rcx
	push	rbp
	push	rdi
	sub	rsp, 232				; 000000e8H
	lea	rbp, QWORD PTR [rsp+32]
	lea	rcx, OFFSET FLAT:__CF153B44_xstring
	call	__CheckForDebuggerJustMyCode
	mov	rax, QWORD PTR this$[rbp]
	mov	QWORD PTR [rax], 0
	mov	rax, QWORD PTR this$[rbp]
	lea	rsp, QWORD PTR [rbp+200]
	pop	rdi
	pop	rbp
	ret	0
??0_Bxty@?$_String_val@U?$_Simple_types@D@std@@@std@@QEAA@XZ ENDP ; std::_String_val<std::_Simple_types<char> >::_Bxty::_Bxty
_TEXT	ENDS
; Function compile flags: /Odtp /RTCsu /ZI
; File C:\Program Files\Microsoft Visual Studio\2022\Community\VC\Tools\MSVC\14.31.31103\include\xstring
;	COMDAT ?_Large_string_engaged@?$_String_val@U?$_Simple_types@D@std@@@std@@QEBA_NXZ
_TEXT	SEGMENT
tv69 = 192
this$ = 240
?_Large_string_engaged@?$_String_val@U?$_Simple_types@D@std@@@std@@QEBA_NXZ PROC ; std::_String_val<std::_Simple_types<char> >::_Large_string_engaged, COMDAT

; 2321 :     _CONSTEXPR20 bool _Large_string_engaged() const noexcept {

$LN6:
	mov	QWORD PTR [rsp+8], rcx
	push	rbp
	push	rdi
	sub	rsp, 248				; 000000f8H
	lea	rbp, QWORD PTR [rsp+32]
	lea	rcx, OFFSET FLAT:__CF153B44_xstring
	call	__CheckForDebuggerJustMyCode

; 2322 : #if _HAS_CXX20
; 2323 :         if (_STD is_constant_evaluated()) {

	call	?is_constant_evaluated@std@@YA_NXZ	; std::is_constant_evaluated
	movzx	eax, al
	test	eax, eax
	je	SHORT $LN2@Large_stri

; 2324 :             return true;

	mov	al, 1
	jmp	SHORT $LN1@Large_stri
$LN2@Large_stri:

; 2325 :         }
; 2326 : #endif // _HAS_CXX20
; 2327 :         return _BUF_SIZE <= _Myres;

	mov	rax, QWORD PTR this$[rbp]
	cmp	QWORD PTR [rax+32], 16
	jb	SHORT $LN4@Large_stri
	mov	DWORD PTR tv69[rbp], 1
	jmp	SHORT $LN5@Large_stri
$LN4@Large_stri:
	mov	DWORD PTR tv69[rbp], 0
$LN5@Large_stri:
	movzx	eax, BYTE PTR tv69[rbp]
$LN1@Large_stri:

; 2328 :     }

	lea	rsp, QWORD PTR [rbp+216]
	pop	rdi
	pop	rbp
	ret	0
?_Large_string_engaged@?$_String_val@U?$_Simple_types@D@std@@@std@@QEBA_NXZ ENDP ; std::_String_val<std::_Simple_types<char> >::_Large_string_engaged
_TEXT	ENDS
; Function compile flags: /Odtp /RTCsu /ZI
; File C:\Program Files\Microsoft Visual Studio\2022\Community\VC\Tools\MSVC\14.31.31103\include\xstring
;	COMDAT ?_Myptr@?$_String_val@U?$_Simple_types@D@std@@@std@@QEBAPEBDXZ
_TEXT	SEGMENT
_Result$ = 8
this$ = 256
?_Myptr@?$_String_val@U?$_Simple_types@D@std@@@std@@QEBAPEBDXZ PROC ; std::_String_val<std::_Simple_types<char> >::_Myptr, COMDAT

; 2312 :     _CONSTEXPR20 const value_type* _Myptr() const noexcept {

$LN4:
	mov	QWORD PTR [rsp+8], rcx
	push	rbp
	push	rdi
	sub	rsp, 264				; 00000108H
	lea	rbp, QWORD PTR [rsp+32]
	lea	rcx, OFFSET FLAT:__CF153B44_xstring
	call	__CheckForDebuggerJustMyCode

; 2313 :         const value_type* _Result = _Bx._Buf;

	mov	rax, QWORD PTR this$[rbp]
	add	rax, 8
	mov	QWORD PTR _Result$[rbp], rax

; 2314 :         if (_Large_string_engaged()) {

	mov	rcx, QWORD PTR this$[rbp]
	call	?_Large_string_engaged@?$_String_val@U?$_Simple_types@D@std@@@std@@QEBA_NXZ ; std::_String_val<std::_Simple_types<char> >::_Large_string_engaged
	movzx	eax, al
	test	eax, eax
	je	SHORT $LN2@Myptr

; 2315 :             _Result = _Unfancy(_Bx._Ptr);

	mov	rax, QWORD PTR this$[rbp]
	mov	rcx, QWORD PTR [rax+8]
	call	??$_Unfancy@D@std@@YAPEADPEAD@Z		; std::_Unfancy<char>
	mov	QWORD PTR _Result$[rbp], rax
$LN2@Myptr:

; 2316 :         }
; 2317 : 
; 2318 :         return _Result;

	mov	rax, QWORD PTR _Result$[rbp]

; 2319 :     }

	lea	rsp, QWORD PTR [rbp+232]
	pop	rdi
	pop	rbp
	ret	0
?_Myptr@?$_String_val@U?$_Simple_types@D@std@@@std@@QEBAPEBDXZ ENDP ; std::_String_val<std::_Simple_types<char> >::_Myptr
_TEXT	ENDS
; Function compile flags: /Odtp /RTCsu /ZI
; File C:\Program Files\Microsoft Visual Studio\2022\Community\VC\Tools\MSVC\14.31.31103\include\xstring
;	COMDAT ?_Myptr@?$_String_val@U?$_Simple_types@D@std@@@std@@QEAAPEADXZ
_TEXT	SEGMENT
_Result$ = 8
this$ = 256
?_Myptr@?$_String_val@U?$_Simple_types@D@std@@@std@@QEAAPEADXZ PROC ; std::_String_val<std::_Simple_types<char> >::_Myptr, COMDAT

; 2303 :     _CONSTEXPR20 value_type* _Myptr() noexcept {

$LN4:
	mov	QWORD PTR [rsp+8], rcx
	push	rbp
	push	rdi
	sub	rsp, 264				; 00000108H
	lea	rbp, QWORD PTR [rsp+32]
	lea	rcx, OFFSET FLAT:__CF153B44_xstring
	call	__CheckForDebuggerJustMyCode

; 2304 :         value_type* _Result = _Bx._Buf;

	mov	rax, QWORD PTR this$[rbp]
	add	rax, 8
	mov	QWORD PTR _Result$[rbp], rax

; 2305 :         if (_Large_string_engaged()) {

	mov	rcx, QWORD PTR this$[rbp]
	call	?_Large_string_engaged@?$_String_val@U?$_Simple_types@D@std@@@std@@QEBA_NXZ ; std::_String_val<std::_Simple_types<char> >::_Large_string_engaged
	movzx	eax, al
	test	eax, eax
	je	SHORT $LN2@Myptr

; 2306 :             _Result = _Unfancy(_Bx._Ptr);

	mov	rax, QWORD PTR this$[rbp]
	mov	rcx, QWORD PTR [rax+8]
	call	??$_Unfancy@D@std@@YAPEADPEAD@Z		; std::_Unfancy<char>
	mov	QWORD PTR _Result$[rbp], rax
$LN2@Myptr:

; 2307 :         }
; 2308 : 
; 2309 :         return _Result;

	mov	rax, QWORD PTR _Result$[rbp]

; 2310 :     }

	lea	rsp, QWORD PTR [rbp+232]
	pop	rdi
	pop	rbp
	ret	0
?_Myptr@?$_String_val@U?$_Simple_types@D@std@@@std@@QEAAPEADXZ ENDP ; std::_String_val<std::_Simple_types<char> >::_Myptr
_TEXT	ENDS
; Function compile flags: /Odtp /RTCsu /ZI
; File C:\Program Files\Microsoft Visual Studio\2022\Community\VC\Tools\MSVC\14.31.31103\include\xstring
;	COMDAT ??0?$_String_val@U?$_Simple_types@D@std@@@std@@QEAA@XZ
_TEXT	SEGMENT
this$ = 224
??0?$_String_val@U?$_Simple_types@D@std@@@std@@QEAA@XZ PROC ; std::_String_val<std::_Simple_types<char> >::_String_val<std::_Simple_types<char> >, COMDAT

; 2292 :     _CONSTEXPR20 _String_val() noexcept : _Bx() {}

$LN3:
	mov	QWORD PTR [rsp+8], rcx
	push	rbp
	push	rdi
	sub	rsp, 232				; 000000e8H
	lea	rbp, QWORD PTR [rsp+32]
	lea	rcx, OFFSET FLAT:__CF153B44_xstring
	call	__CheckForDebuggerJustMyCode
	mov	rcx, QWORD PTR this$[rbp]
	call	??0_Container_base12@std@@QEAA@XZ	; std::_Container_base12::_Container_base12
	mov	rax, QWORD PTR this$[rbp]
	add	rax, 8
	mov	rcx, rax
	call	??0_Bxty@?$_String_val@U?$_Simple_types@D@std@@@std@@QEAA@XZ ; std::_String_val<std::_Simple_types<char> >::_Bxty::_Bxty

; 2293 : 
; 2294 :     // length of internal buffer, [1, 16]:
; 2295 :     static constexpr size_type _BUF_SIZE = 16 / sizeof(value_type) < 1 ? 1 : 16 / sizeof(value_type);
; 2296 :     // roundup mask for allocated buffers, [0, 15]:
; 2297 :     static constexpr size_type _ALLOC_MASK = sizeof(value_type) <= 1 ? 15
; 2298 :                                            : sizeof(value_type) <= 2 ? 7
; 2299 :                                            : sizeof(value_type) <= 4 ? 3
; 2300 :                                            : sizeof(value_type) <= 8 ? 1
; 2301 :                                                                      : 0;
; 2302 : 
; 2303 :     _CONSTEXPR20 value_type* _Myptr() noexcept {
; 2304 :         value_type* _Result = _Bx._Buf;
; 2305 :         if (_Large_string_engaged()) {
; 2306 :             _Result = _Unfancy(_Bx._Ptr);
; 2307 :         }
; 2308 : 
; 2309 :         return _Result;
; 2310 :     }
; 2311 : 
; 2312 :     _CONSTEXPR20 const value_type* _Myptr() const noexcept {
; 2313 :         const value_type* _Result = _Bx._Buf;
; 2314 :         if (_Large_string_engaged()) {
; 2315 :             _Result = _Unfancy(_Bx._Ptr);
; 2316 :         }
; 2317 : 
; 2318 :         return _Result;
; 2319 :     }
; 2320 : 
; 2321 :     _CONSTEXPR20 bool _Large_string_engaged() const noexcept {
; 2322 : #if _HAS_CXX20
; 2323 :         if (_STD is_constant_evaluated()) {
; 2324 :             return true;
; 2325 :         }
; 2326 : #endif // _HAS_CXX20
; 2327 :         return _BUF_SIZE <= _Myres;
; 2328 :     }
; 2329 : 
; 2330 :     _CONSTEXPR20 void _Check_offset(const size_type _Off) const {
; 2331 :         // checks whether _Off is in the bounds of [0, size()]
; 2332 :         if (_Mysize < _Off) {
; 2333 :             _Xran();
; 2334 :         }
; 2335 :     }
; 2336 : 
; 2337 :     _CONSTEXPR20 void _Check_offset_exclusive(const size_type _Off) const {
; 2338 :         // checks whether _Off is in the bounds of [0, size())
; 2339 :         if (_Mysize <= _Off) {
; 2340 :             _Xran();
; 2341 :         }
; 2342 :     }
; 2343 : 
; 2344 :     [[noreturn]] static void _Xran() {
; 2345 :         _Xout_of_range("invalid string position");
; 2346 :     }
; 2347 : 
; 2348 :     _CONSTEXPR20 size_type _Clamp_suffix_size(const size_type _Off, const size_type _Size) const noexcept {
; 2349 :         // trims _Size to the longest it can be assuming a string at/after _Off
; 2350 :         return (_STD min) (_Size, _Mysize - _Off);
; 2351 :     }
; 2352 : 
; 2353 :     union _Bxty { // storage for small buffer or pointer to larger one
; 2354 :         _CONSTEXPR20 _Bxty() noexcept : _Ptr() {} // user-provided, for fancy pointers
; 2355 : 
; 2356 :         _CONSTEXPR20 ~_Bxty() noexcept {} // user-provided, for fancy pointers
; 2357 : 
; 2358 :         value_type _Buf[_BUF_SIZE];
; 2359 :         pointer _Ptr;
; 2360 :         char _Alias[_BUF_SIZE]; // TRANSITION, ABI: _Alias is preserved for binary compatibility (especially /clr)
; 2361 :     } _Bx;
; 2362 : 
; 2363 :     size_type _Mysize = 0; // current length of string

	mov	rax, QWORD PTR this$[rbp]
	mov	QWORD PTR [rax+24], 0

; 2364 :     size_type _Myres  = 0; // current storage reserved for string

	mov	rax, QWORD PTR this$[rbp]
	mov	QWORD PTR [rax+32], 0

; 2292 :     _CONSTEXPR20 _String_val() noexcept : _Bx() {}

	mov	rax, QWORD PTR this$[rbp]
	lea	rsp, QWORD PTR [rbp+200]
	pop	rdi
	pop	rbp
	ret	0
??0?$_String_val@U?$_Simple_types@D@std@@@std@@QEAA@XZ ENDP ; std::_String_val<std::_Simple_types<char> >::_String_val<std::_Simple_types<char> >
_TEXT	ENDS
; Function compile flags: /Odtp /RTCsu /ZI
; File C:\Program Files\Microsoft Visual Studio\2022\Community\VC\Tools\MSVC\14.31.31103\include\xmemory
;	COMDAT ?max_size@?$_Default_allocator_traits@V?$allocator@D@std@@@std@@SA_KAEBV?$allocator@D@2@@Z
_TEXT	SEGMENT
__formal$ = 224
?max_size@?$_Default_allocator_traits@V?$allocator@D@std@@@std@@SA_KAEBV?$allocator@D@2@@Z PROC ; std::_Default_allocator_traits<std::allocator<char> >::max_size, COMDAT

; 693  :     _NODISCARD static _CONSTEXPR20 size_type max_size(const _Alloc&) noexcept {

$LN3:
	mov	QWORD PTR [rsp+8], rcx
	push	rbp
	push	rdi
	sub	rsp, 232				; 000000e8H
	lea	rbp, QWORD PTR [rsp+32]
	lea	rcx, OFFSET FLAT:__BBC6BDD8_xmemory
	call	__CheckForDebuggerJustMyCode

; 694  :         return static_cast<size_t>(-1) / sizeof(value_type);

	mov	rax, -1

; 695  :     }

	lea	rsp, QWORD PTR [rbp+200]
	pop	rdi
	pop	rbp
	ret	0
?max_size@?$_Default_allocator_traits@V?$allocator@D@std@@@std@@SA_KAEBV?$allocator@D@2@@Z ENDP ; std::_Default_allocator_traits<std::allocator<char> >::max_size
_TEXT	ENDS
; Function compile flags: /Odtp /RTCsu /ZI
; File C:\Program Files\Microsoft Visual Studio\2022\Community\VC\Tools\MSVC\14.31.31103\include\xmemory
;	COMDAT ?allocate@?$allocator@D@std@@QEAAPEAD_K@Z
_TEXT	SEGMENT
this$ = 224
_Count$ = 232
?allocate@?$allocator@D@std@@QEAAPEAD_K@Z PROC		; std::allocator<char>::allocate, COMDAT

; 830  :     _NODISCARD _CONSTEXPR20 __declspec(allocator) _Ty* allocate(_CRT_GUARDOVERFLOW const size_t _Count) {

$LN3:
	mov	QWORD PTR [rsp+16], rdx
	mov	QWORD PTR [rsp+8], rcx
	push	rbp
	push	rdi
	sub	rsp, 232				; 000000e8H
	lea	rbp, QWORD PTR [rsp+32]
	lea	rcx, OFFSET FLAT:__BBC6BDD8_xmemory
	call	__CheckForDebuggerJustMyCode

; 831  :         return static_cast<_Ty*>(_Allocate<_New_alignof<_Ty>>(_Get_size_of_n<sizeof(_Ty)>(_Count)));

	mov	rcx, QWORD PTR _Count$[rbp]
	call	??$_Get_size_of_n@$00@std@@YA_K_K@Z	; std::_Get_size_of_n<1>
	mov	rcx, rax
	call	??$_Allocate@$0BA@U_Default_allocate_traits@std@@$0A@@std@@YAPEAX_K@Z ; std::_Allocate<16,std::_Default_allocate_traits,0>

; 832  :     }

	lea	rsp, QWORD PTR [rbp+200]
	pop	rdi
	pop	rbp
	ret	0
?allocate@?$allocator@D@std@@QEAAPEAD_K@Z ENDP		; std::allocator<char>::allocate
_TEXT	ENDS
; Function compile flags: /Odtp /RTCsu /ZI
; File C:\Program Files\Microsoft Visual Studio\2022\Community\VC\Tools\MSVC\14.31.31103\include\xmemory
;	COMDAT ?deallocate@?$allocator@D@std@@QEAAXQEAD_K@Z
_TEXT	SEGMENT
this$ = 224
_Ptr$ = 232
_Count$ = 240
?deallocate@?$allocator@D@std@@QEAAXQEAD_K@Z PROC	; std::allocator<char>::deallocate, COMDAT

; 825  :     _CONSTEXPR20 void deallocate(_Ty* const _Ptr, const size_t _Count) {

$LN3:
	mov	QWORD PTR [rsp+24], r8
	mov	QWORD PTR [rsp+16], rdx
	mov	QWORD PTR [rsp+8], rcx
	push	rbp
	push	rdi
	sub	rsp, 232				; 000000e8H
	lea	rbp, QWORD PTR [rsp+32]
	lea	rcx, OFFSET FLAT:__BBC6BDD8_xmemory
	call	__CheckForDebuggerJustMyCode

; 826  :         // no overflow check on the following multiply; we assume _Allocate did that check
; 827  :         _Deallocate<_New_alignof<_Ty>>(_Ptr, sizeof(_Ty) * _Count);

	mov	rdx, QWORD PTR _Count$[rbp]
	mov	rcx, QWORD PTR _Ptr$[rbp]
	call	??$_Deallocate@$0BA@$0A@@std@@YAXPEAX_K@Z ; std::_Deallocate<16,0>

; 828  :     }

	lea	rsp, QWORD PTR [rbp+200]
	pop	rdi
	pop	rbp
	ret	0
?deallocate@?$allocator@D@std@@QEAAXQEAD_K@Z ENDP	; std::allocator<char>::deallocate
_TEXT	ENDS
; Function compile flags: /Odtp /RTCsu /ZI
; File C:\Program Files\Microsoft Visual Studio\2022\Community\VC\Tools\MSVC\14.31.31103\include\xmemory
;	COMDAT ??0?$allocator@D@std@@QEAA@XZ
_TEXT	SEGMENT
this$ = 224
??0?$allocator@D@std@@QEAA@XZ PROC			; std::allocator<char>::allocator<char>, COMDAT

; 817  :     constexpr allocator() noexcept {}

$LN3:
	mov	QWORD PTR [rsp+8], rcx
	push	rbp
	push	rdi
	sub	rsp, 232				; 000000e8H
	lea	rbp, QWORD PTR [rsp+32]
	lea	rcx, OFFSET FLAT:__BBC6BDD8_xmemory
	call	__CheckForDebuggerJustMyCode
	mov	rax, QWORD PTR this$[rbp]
	lea	rsp, QWORD PTR [rbp+200]
	pop	rdi
	pop	rbp
	ret	0
??0?$allocator@D@std@@QEAA@XZ ENDP			; std::allocator<char>::allocator<char>
_TEXT	ENDS
; Function compile flags: /Odtp /RTCsu /ZI
; File C:\Program Files\Microsoft Visual Studio\2022\Community\VC\Tools\MSVC\14.31.31103\include\xstring
;	COMDAT ?_Xlen_string@std@@YAXXZ
_TEXT	SEGMENT
?_Xlen_string@std@@YAXXZ PROC				; std::_Xlen_string, COMDAT

; 2380 : [[noreturn]] inline void _Xlen_string() {

$LN3:
	push	rbp
	push	rdi
	sub	rsp, 232				; 000000e8H
	lea	rbp, QWORD PTR [rsp+32]
	lea	rcx, OFFSET FLAT:__CF153B44_xstring
	call	__CheckForDebuggerJustMyCode

; 2381 :     _Xlength_error("string too long");

	lea	rcx, OFFSET FLAT:??_C@_0BA@JFNIOLAK@string?5too?5long@
	call	?_Xlength_error@std@@YAXPEBD@Z		; std::_Xlength_error
$LN2@Xlen_strin:

; 2382 : }

	lea	rsp, QWORD PTR [rbp+200]
	pop	rdi
	pop	rbp
	ret	0
?_Xlen_string@std@@YAXXZ ENDP				; std::_Xlen_string
_TEXT	ENDS
; Function compile flags: /Odtp /RTCsu /ZI
; File C:\Program Files\Microsoft Visual Studio\2022\Community\VC\Tools\MSVC\14.31.31103\include\xstring
;	COMDAT ?eof@?$_Narrow_char_traits@DH@std@@SAHXZ
_TEXT	SEGMENT
?eof@?$_Narrow_char_traits@DH@std@@SAHXZ PROC		; std::_Narrow_char_traits<char,int>::eof, COMDAT

; 461  :     _NODISCARD static constexpr int_type eof() noexcept {

$LN3:
	push	rbp
	push	rdi
	sub	rsp, 232				; 000000e8H
	lea	rbp, QWORD PTR [rsp+32]
	lea	rcx, OFFSET FLAT:__CF153B44_xstring
	call	__CheckForDebuggerJustMyCode

; 462  :         return static_cast<int_type>(EOF);

	mov	eax, -1

; 463  :     }

	lea	rsp, QWORD PTR [rbp+200]
	pop	rdi
	pop	rbp
	ret	0
?eof@?$_Narrow_char_traits@DH@std@@SAHXZ ENDP		; std::_Narrow_char_traits<char,int>::eof
_TEXT	ENDS
; Function compile flags: /Odtp /RTCsu /ZI
; File C:\Program Files\Microsoft Visual Studio\2022\Community\VC\Tools\MSVC\14.31.31103\include\xstring
;	COMDAT ?eq_int_type@?$_Narrow_char_traits@DH@std@@SA_NAEBH0@Z
_TEXT	SEGMENT
tv65 = 192
_Left$ = 240
_Right$ = 248
?eq_int_type@?$_Narrow_char_traits@DH@std@@SA_NAEBH0@Z PROC ; std::_Narrow_char_traits<char,int>::eq_int_type, COMDAT

; 453  :     _NODISCARD static constexpr bool eq_int_type(const int_type& _Left, const int_type& _Right) noexcept {

$LN5:
	mov	QWORD PTR [rsp+16], rdx
	mov	QWORD PTR [rsp+8], rcx
	push	rbp
	push	rdi
	sub	rsp, 248				; 000000f8H
	lea	rbp, QWORD PTR [rsp+32]
	lea	rcx, OFFSET FLAT:__CF153B44_xstring
	call	__CheckForDebuggerJustMyCode

; 454  :         return _Left == _Right;

	mov	rax, QWORD PTR _Left$[rbp]
	mov	rcx, QWORD PTR _Right$[rbp]
	mov	ecx, DWORD PTR [rcx]
	cmp	DWORD PTR [rax], ecx
	jne	SHORT $LN3@eq_int_typ
	mov	DWORD PTR tv65[rbp], 1
	jmp	SHORT $LN4@eq_int_typ
$LN3@eq_int_typ:
	mov	DWORD PTR tv65[rbp], 0
$LN4@eq_int_typ:
	movzx	eax, BYTE PTR tv65[rbp]

; 455  :     }

	lea	rsp, QWORD PTR [rbp+216]
	pop	rdi
	pop	rbp
	ret	0
?eq_int_type@?$_Narrow_char_traits@DH@std@@SA_NAEBH0@Z ENDP ; std::_Narrow_char_traits<char,int>::eq_int_type
_TEXT	ENDS
; Function compile flags: /Odtp /RTCsu /ZI
; File C:\Program Files\Microsoft Visual Studio\2022\Community\VC\Tools\MSVC\14.31.31103\include\xstring
;	COMDAT ?assign@?$_Narrow_char_traits@DH@std@@SAXAEADAEBD@Z
_TEXT	SEGMENT
_Left$ = 224
_Right$ = 232
?assign@?$_Narrow_char_traits@DH@std@@SAXAEADAEBD@Z PROC ; std::_Narrow_char_traits<char,int>::assign, COMDAT

; 433  :     static _CONSTEXPR17 void assign(_Elem& _Left, const _Elem& _Right) noexcept {

$LN3:
	mov	QWORD PTR [rsp+16], rdx
	mov	QWORD PTR [rsp+8], rcx
	push	rbp
	push	rdi
	sub	rsp, 232				; 000000e8H
	lea	rbp, QWORD PTR [rsp+32]
	lea	rcx, OFFSET FLAT:__CF153B44_xstring
	call	__CheckForDebuggerJustMyCode

; 434  :         _Left = _Right;

	mov	rax, QWORD PTR _Left$[rbp]
	mov	rcx, QWORD PTR _Right$[rbp]
	movzx	ecx, BYTE PTR [rcx]
	mov	BYTE PTR [rax], cl

; 435  :     }

	lea	rsp, QWORD PTR [rbp+200]
	pop	rdi
	pop	rbp
	ret	0
?assign@?$_Narrow_char_traits@DH@std@@SAXAEADAEBD@Z ENDP ; std::_Narrow_char_traits<char,int>::assign
_TEXT	ENDS
; Function compile flags: /Odtp /RTCsu /ZI
; File C:\Program Files\Microsoft Visual Studio\2022\Community\VC\Tools\MSVC\14.31.31103\include\xstring
;	COMDAT ?assign@?$_Narrow_char_traits@DH@std@@SAPEADQEAD_KD@Z
_TEXT	SEGMENT
_First$ = 224
_Count$ = 232
_Ch$ = 240
?assign@?$_Narrow_char_traits@DH@std@@SAPEADQEAD_KD@Z PROC ; std::_Narrow_char_traits<char,int>::assign, COMDAT

; 422  :         _Out_writes_all_(_Count) _Elem* const _First, size_t _Count, const _Elem _Ch) noexcept /* strengthened */ {

$LN4:
	mov	BYTE PTR [rsp+24], r8b
	mov	QWORD PTR [rsp+16], rdx
	mov	QWORD PTR [rsp+8], rcx
	push	rbp
	push	rdi
	sub	rsp, 232				; 000000e8H
	lea	rbp, QWORD PTR [rsp+32]
	lea	rcx, OFFSET FLAT:__CF153B44_xstring
	call	__CheckForDebuggerJustMyCode

; 423  :         // assign _Count * _Ch to [_First, ...)
; 424  : #if _HAS_CXX20
; 425  :         if (_STD is_constant_evaluated()) {

	call	?is_constant_evaluated@std@@YA_NXZ	; std::is_constant_evaluated
	movzx	eax, al
	test	eax, eax
	je	SHORT $LN2@assign

; 426  :             return _Primary_char_traits::assign(_First, _Count, _Ch);

	movzx	r8d, BYTE PTR _Ch$[rbp]
	mov	rdx, QWORD PTR _Count$[rbp]
	mov	rcx, QWORD PTR _First$[rbp]
	call	?assign@?$_Char_traits@DH@std@@SAPEADQEAD_KD@Z ; std::_Char_traits<char,int>::assign
	jmp	SHORT $LN1@assign
$LN2@assign:

; 427  :         }
; 428  : #endif // _HAS_CXX20
; 429  : 
; 430  :         return static_cast<_Elem*>(_CSTD memset(_First, _Ch, _Count));

	movsx	eax, BYTE PTR _Ch$[rbp]
	mov	r8, QWORD PTR _Count$[rbp]
	mov	edx, eax
	mov	rcx, QWORD PTR _First$[rbp]
	call	memset
$LN1@assign:

; 431  :     }

	lea	rsp, QWORD PTR [rbp+200]
	pop	rdi
	pop	rbp
	ret	0
?assign@?$_Narrow_char_traits@DH@std@@SAPEADQEAD_KD@Z ENDP ; std::_Narrow_char_traits<char,int>::assign
_TEXT	ENDS
; Function compile flags: /Odtp /RTCsu /ZI
; File C:\Program Files\Microsoft Visual Studio\2022\Community\VC\Tools\MSVC\14.31.31103\include\xstring
;	COMDAT ?length@?$_Narrow_char_traits@DH@std@@SA_KQEBD@Z
_TEXT	SEGMENT
tv68 = 192
tv69 = 200
_First$ = 240
?length@?$_Narrow_char_traits@DH@std@@SA_KQEBD@Z PROC	; std::_Narrow_char_traits<char,int>::length, COMDAT

; 380  :     _NODISCARD static _CONSTEXPR17 size_t length(_In_z_ const _Elem* const _First) noexcept /* strengthened */ {

$LN4:
	mov	QWORD PTR [rsp+8], rcx
	push	rbp
	push	rdi
	sub	rsp, 248				; 000000f8H
	lea	rbp, QWORD PTR [rsp+32]
	lea	rcx, OFFSET FLAT:__CF153B44_xstring
	call	__CheckForDebuggerJustMyCode

; 381  :         // find length of null-terminated string
; 382  : #if _HAS_CXX17
; 383  : #ifdef __cpp_char8_t
; 384  :         if constexpr (is_same_v<_Elem, char8_t>) {
; 385  : #if _HAS_U8_INTRINSICS
; 386  :             return __builtin_u8strlen(_First);
; 387  : #else // ^^^ use u8 intrinsics / no u8 intrinsics vvv
; 388  :             return _Primary_char_traits::length(_First);
; 389  : #endif // _HAS_U8_INTRINSICS
; 390  :         } else
; 391  : #endif // __cpp_char8_t
; 392  :         {
; 393  :             return __builtin_strlen(_First);

	mov	rax, QWORD PTR _First$[rbp]
	mov	QWORD PTR tv68[rbp], rax
	mov	QWORD PTR tv69[rbp], -1
$LL3@length:
	inc	QWORD PTR tv69[rbp]
	mov	rax, QWORD PTR tv68[rbp]
	mov	rcx, QWORD PTR tv69[rbp]
	cmp	BYTE PTR [rax+rcx], 0
	jne	SHORT $LL3@length
	mov	rax, QWORD PTR tv69[rbp]

; 394  :         }
; 395  : #else // _HAS_CXX17
; 396  :         return _CSTD strlen(reinterpret_cast<const char*>(_First));
; 397  : #endif // _HAS_CXX17
; 398  :     }

	lea	rsp, QWORD PTR [rbp+216]
	pop	rdi
	pop	rbp
	ret	0
?length@?$_Narrow_char_traits@DH@std@@SA_KQEBD@Z ENDP	; std::_Narrow_char_traits<char,int>::length
_TEXT	ENDS
; Function compile flags: /Odtp /RTCsu /ZI
; File C:\Program Files\Microsoft Visual Studio\2022\Community\VC\Tools\MSVC\14.31.31103\include\xstring
;	COMDAT ?assign@?$_Char_traits@DH@std@@SAPEADQEAD_KD@Z
_TEXT	SEGMENT
_Next$1 = 8
_Next$2 = 40
_First$ = 288
_Count$ = 296
_Ch$ = 304
?assign@?$_Char_traits@DH@std@@SAPEADQEAD_KD@Z PROC	; std::_Char_traits<char,int>::assign, COMDAT

; 162  :         _Out_writes_all_(_Count) _Elem* const _First, size_t _Count, const _Elem _Ch) noexcept /* strengthened */ {

$LN11:
	mov	BYTE PTR [rsp+24], r8b
	mov	QWORD PTR [rsp+16], rdx
	mov	QWORD PTR [rsp+8], rcx
	push	rbp
	push	rdi
	sub	rsp, 296				; 00000128H
	lea	rbp, QWORD PTR [rsp+32]
	lea	rcx, OFFSET FLAT:__CF153B44_xstring
	call	__CheckForDebuggerJustMyCode

; 163  :         // assign _Count * _Ch to [_First, ...)
; 164  : #if _HAS_CXX20
; 165  :         if (_STD is_constant_evaluated()) {

	call	?is_constant_evaluated@std@@YA_NXZ	; std::is_constant_evaluated
	movzx	eax, al
	test	eax, eax
	je	SHORT $LN8@assign

; 166  :             for (_Elem* _Next = _First; _Count > 0; --_Count, ++_Next) {

	mov	rax, QWORD PTR _First$[rbp]
	mov	QWORD PTR _Next$1[rbp], rax
	jmp	SHORT $LN4@assign
$LN2@assign:
	mov	rax, QWORD PTR _Count$[rbp]
	dec	rax
	mov	QWORD PTR _Count$[rbp], rax
	mov	rax, QWORD PTR _Next$1[rbp]
	inc	rax
	mov	QWORD PTR _Next$1[rbp], rax
$LN4@assign:
	cmp	QWORD PTR _Count$[rbp], 0
	jbe	SHORT $LN3@assign

; 167  :                 _STD construct_at(_Next, _Ch);

	lea	rdx, QWORD PTR _Ch$[rbp]
	mov	rcx, QWORD PTR _Next$1[rbp]
	call	??$construct_at@DAEBDX@std@@YAPEADQEADAEBD@Z ; std::construct_at<char,char const &,void>

; 168  :             }

	jmp	SHORT $LN2@assign
$LN3@assign:

; 169  :         } else

	jmp	SHORT $LN9@assign
$LN8@assign:

; 170  : #endif // _HAS_CXX20
; 171  :         {
; 172  :             for (_Elem* _Next = _First; _Count > 0; --_Count, ++_Next) {

	mov	rax, QWORD PTR _First$[rbp]
	mov	QWORD PTR _Next$2[rbp], rax
	jmp	SHORT $LN7@assign
$LN5@assign:
	mov	rax, QWORD PTR _Count$[rbp]
	dec	rax
	mov	QWORD PTR _Count$[rbp], rax
	mov	rax, QWORD PTR _Next$2[rbp]
	inc	rax
	mov	QWORD PTR _Next$2[rbp], rax
$LN7@assign:
	cmp	QWORD PTR _Count$[rbp], 0
	jbe	SHORT $LN9@assign

; 173  :                 *_Next = _Ch;

	mov	rax, QWORD PTR _Next$2[rbp]
	movzx	ecx, BYTE PTR _Ch$[rbp]
	mov	BYTE PTR [rax], cl

; 174  :             }

	jmp	SHORT $LN5@assign
$LN9@assign:

; 175  :         }
; 176  : 
; 177  :         return _First;

	mov	rax, QWORD PTR _First$[rbp]

; 178  :     }

	lea	rsp, QWORD PTR [rbp+264]
	pop	rdi
	pop	rbp
	ret	0
?assign@?$_Char_traits@DH@std@@SAPEADQEAD_KD@Z ENDP	; std::_Char_traits<char,int>::assign
_TEXT	ENDS
; Function compile flags: /Odtp /RTCsu /ZI
; File C:\Program Files\Microsoft Visual Studio\2022\Community\VC\Tools\MSVC\14.31.31103\include\xstring
;	COMDAT ?move@?$_Char_traits@DH@std@@SAPEADQEADQEBD_K@Z
_TEXT	SEGMENT
_Loop_forward$1 = 4
_Src$2 = 40
_Idx$3 = 72
_Idx$4 = 104
_First1$ = 352
_First2$ = 360
_Count$ = 368
?move@?$_Char_traits@DH@std@@SAPEADQEADQEBD_K@Z PROC	; std::_Char_traits<char,int>::move, COMDAT

; 79   :         _In_reads_(_Count) const _Elem* const _First2, const size_t _Count) noexcept /* strengthened */ {

$LN16:
	mov	QWORD PTR [rsp+24], r8
	mov	QWORD PTR [rsp+16], rdx
	mov	QWORD PTR [rsp+8], rcx
	push	rbp
	push	rdi
	sub	rsp, 360				; 00000168H
	lea	rbp, QWORD PTR [rsp+32]
	lea	rcx, OFFSET FLAT:__CF153B44_xstring
	call	__CheckForDebuggerJustMyCode

; 80   :         // copy [_First2, _First2 + _Count) to [_First1, ...), allowing overlap
; 81   : #if _HAS_MEMCPY_MEMMOVE_INTRINSICS
; 82   :         __builtin_memmove(_First1, _First2, _Count * sizeof(_Elem));
; 83   : #else // ^^^ _HAS_MEMCPY_MEMMOVE_INTRINSICS ^^^ / vvv !_HAS_MEMCPY_MEMMOVE_INTRINSICS vvv
; 84   : #if _HAS_CXX20
; 85   :         if (_STD is_constant_evaluated()) {

	call	?is_constant_evaluated@std@@YA_NXZ	; std::is_constant_evaluated
	movzx	eax, al
	test	eax, eax
	je	$LN11@move

; 86   :             // dest: [_First1, _First1 + _Count)
; 87   :             // src: [_First2, _First2 + _Count)
; 88   :             // We need to handle overlapping ranges.
; 89   :             // If _First1 is in the src range, we need a backward loop.
; 90   :             // Otherwise, the forward loop works (even if the back of dest overlaps the front of src).
; 91   : 
; 92   :             // Usually, we would compare pointers with less-than, even though they could belong to different arrays.
; 93   :             // However, we're not allowed to do that during constant evaluation, so we need a linear scan for equality.
; 94   :             bool _Loop_forward = true;

	mov	BYTE PTR _Loop_forward$1[rbp], 1

; 95   : 
; 96   :             for (const _Elem* _Src = _First2; _Src != _First2 + _Count; ++_Src) {

	mov	rax, QWORD PTR _First2$[rbp]
	mov	QWORD PTR _Src$2[rbp], rax
	jmp	SHORT $LN4@move
$LN2@move:
	mov	rax, QWORD PTR _Src$2[rbp]
	inc	rax
	mov	QWORD PTR _Src$2[rbp], rax
$LN4@move:
	mov	rax, QWORD PTR _Count$[rbp]
	mov	rcx, QWORD PTR _First2$[rbp]
	add	rcx, rax
	mov	rax, rcx
	cmp	QWORD PTR _Src$2[rbp], rax
	je	SHORT $LN3@move

; 97   :                 if (_First1 == _Src) {

	mov	rax, QWORD PTR _Src$2[rbp]
	cmp	QWORD PTR _First1$[rbp], rax
	jne	SHORT $LN12@move

; 98   :                     _Loop_forward = false;

	mov	BYTE PTR _Loop_forward$1[rbp], 0

; 99   :                     break;

	jmp	SHORT $LN3@move
$LN12@move:

; 100  :                 }
; 101  :             }

	jmp	SHORT $LN2@move
$LN3@move:

; 102  : 
; 103  :             if (_Loop_forward) {

	movzx	eax, BYTE PTR _Loop_forward$1[rbp]
	test	eax, eax
	je	SHORT $LN13@move

; 104  :                 for (size_t _Idx = 0; _Idx != _Count; ++_Idx) {

	mov	QWORD PTR _Idx$3[rbp], 0
	jmp	SHORT $LN7@move
$LN5@move:
	mov	rax, QWORD PTR _Idx$3[rbp]
	inc	rax
	mov	QWORD PTR _Idx$3[rbp], rax
$LN7@move:
	mov	rax, QWORD PTR _Count$[rbp]
	cmp	QWORD PTR _Idx$3[rbp], rax
	je	SHORT $LN6@move

; 105  :                     _First1[_Idx] = _First2[_Idx];

	mov	rax, QWORD PTR _Idx$3[rbp]
	mov	rcx, QWORD PTR _First1$[rbp]
	add	rcx, rax
	mov	rax, rcx
	mov	rcx, QWORD PTR _Idx$3[rbp]
	mov	rdx, QWORD PTR _First2$[rbp]
	add	rdx, rcx
	mov	rcx, rdx
	movzx	ecx, BYTE PTR [rcx]
	mov	BYTE PTR [rax], cl

; 106  :                 }

	jmp	SHORT $LN5@move
$LN6@move:

; 107  :             } else {

	jmp	SHORT $LN14@move
$LN13@move:

; 108  :                 for (size_t _Idx = _Count; _Idx != 0; --_Idx) {

	mov	rax, QWORD PTR _Count$[rbp]
	mov	QWORD PTR _Idx$4[rbp], rax
	jmp	SHORT $LN10@move
$LN8@move:
	mov	rax, QWORD PTR _Idx$4[rbp]
	dec	rax
	mov	QWORD PTR _Idx$4[rbp], rax
$LN10@move:
	cmp	QWORD PTR _Idx$4[rbp], 0
	je	SHORT $LN14@move

; 109  :                     _First1[_Idx - 1] = _First2[_Idx - 1];

	mov	rax, QWORD PTR _Idx$4[rbp]
	mov	rcx, QWORD PTR _First1$[rbp]
	add	rcx, rax
	mov	rax, rcx
	mov	rcx, QWORD PTR _Idx$4[rbp]
	mov	rdx, QWORD PTR _First2$[rbp]
	add	rdx, rcx
	mov	rcx, rdx
	movzx	ecx, BYTE PTR [rcx-1]
	mov	BYTE PTR [rax-1], cl

; 110  :                 }

	jmp	SHORT $LN8@move
$LN14@move:

; 111  :             }
; 112  : 
; 113  :             return _First1;

	mov	rax, QWORD PTR _First1$[rbp]
	jmp	SHORT $LN1@move
$LN11@move:

; 114  :         }
; 115  : #endif // _HAS_CXX20
; 116  : 
; 117  :         _CSTD memmove(_First1, _First2, _Count * sizeof(_Elem));

	mov	r8, QWORD PTR _Count$[rbp]
	mov	rdx, QWORD PTR _First2$[rbp]
	mov	rcx, QWORD PTR _First1$[rbp]
	call	memmove

; 118  : #endif // ^^^ !_HAS_MEMCPY_MEMMOVE_INTRINSICS ^^^
; 119  : 
; 120  :         return _First1;

	mov	rax, QWORD PTR _First1$[rbp]
$LN1@move:

; 121  :     }

	lea	rsp, QWORD PTR [rbp+328]
	pop	rdi
	pop	rbp
	ret	0
?move@?$_Char_traits@DH@std@@SAPEADQEADQEBD_K@Z ENDP	; std::_Char_traits<char,int>::move
_TEXT	ENDS
; Function compile flags: /Odtp /RTCsu /ZI
; File C:\Program Files\Microsoft Visual Studio\2022\Community\VC\Tools\MSVC\14.31.31103\include\xstring
;	COMDAT ?copy@?$_Char_traits@DH@std@@SAPEADQEADQEBD_K@Z
_TEXT	SEGMENT
_Idx$1 = 8
_First1$ = 256
_First2$ = 264
_Count$ = 272
?copy@?$_Char_traits@DH@std@@SAPEADQEADQEBD_K@Z PROC	; std::_Char_traits<char,int>::copy, COMDAT

; 48   :         _In_reads_(_Count) const _Elem* const _First2, const size_t _Count) noexcept /* strengthened */ {

$LN7:
	mov	QWORD PTR [rsp+24], r8
	mov	QWORD PTR [rsp+16], rdx
	mov	QWORD PTR [rsp+8], rcx
	push	rbp
	push	rdi
	sub	rsp, 264				; 00000108H
	lea	rbp, QWORD PTR [rsp+32]
	lea	rcx, OFFSET FLAT:__CF153B44_xstring
	call	__CheckForDebuggerJustMyCode

; 49   :         // copy [_First2, _First2 + _Count) to [_First1, ...)
; 50   : #if _HAS_MEMCPY_MEMMOVE_INTRINSICS
; 51   :         __builtin_memcpy(_First1, _First2, _Count * sizeof(_Elem));
; 52   : #else // ^^^ _HAS_MEMCPY_MEMMOVE_INTRINSICS ^^^ / vvv !_HAS_MEMCPY_MEMMOVE_INTRINSICS vvv
; 53   : #if _HAS_CXX20
; 54   :         if (_STD is_constant_evaluated()) {

	call	?is_constant_evaluated@std@@YA_NXZ	; std::is_constant_evaluated
	movzx	eax, al
	test	eax, eax
	je	SHORT $LN5@copy

; 55   :             // pre: [_First1, _First1 + _Count) and [_First2, _First2 + _Count) do not overlap; see LWG-3085
; 56   :             for (size_t _Idx = 0; _Idx != _Count; ++_Idx) {

	mov	QWORD PTR _Idx$1[rbp], 0
	jmp	SHORT $LN4@copy
$LN2@copy:
	mov	rax, QWORD PTR _Idx$1[rbp]
	inc	rax
	mov	QWORD PTR _Idx$1[rbp], rax
$LN4@copy:
	mov	rax, QWORD PTR _Count$[rbp]
	cmp	QWORD PTR _Idx$1[rbp], rax
	je	SHORT $LN3@copy

; 57   :                 _First1[_Idx] = _First2[_Idx];

	mov	rax, QWORD PTR _Idx$1[rbp]
	mov	rcx, QWORD PTR _First1$[rbp]
	add	rcx, rax
	mov	rax, rcx
	mov	rcx, QWORD PTR _Idx$1[rbp]
	mov	rdx, QWORD PTR _First2$[rbp]
	add	rdx, rcx
	mov	rcx, rdx
	movzx	ecx, BYTE PTR [rcx]
	mov	BYTE PTR [rax], cl

; 58   :             }

	jmp	SHORT $LN2@copy
$LN3@copy:

; 59   : 
; 60   :             return _First1;

	mov	rax, QWORD PTR _First1$[rbp]
	jmp	SHORT $LN1@copy
$LN5@copy:

; 61   :         }
; 62   : #endif // _HAS_CXX20
; 63   : 
; 64   :         _CSTD memcpy(_First1, _First2, _Count * sizeof(_Elem));

	mov	r8, QWORD PTR _Count$[rbp]
	mov	rdx, QWORD PTR _First2$[rbp]
	mov	rcx, QWORD PTR _First1$[rbp]
	call	memcpy

; 65   : #endif // ^^^ !_HAS_MEMCPY_MEMMOVE_INTRINSICS ^^^
; 66   : 
; 67   :         return _First1;

	mov	rax, QWORD PTR _First1$[rbp]
$LN1@copy:

; 68   :     }

	lea	rsp, QWORD PTR [rbp+232]
	pop	rdi
	pop	rbp
	ret	0
?copy@?$_Char_traits@DH@std@@SAPEADQEADQEBD_K@Z ENDP	; std::_Char_traits<char,int>::copy
_TEXT	ENDS
; Function compile flags: /Odtp /RTCsu /ZI
; File C:\Program Files\Microsoft Visual Studio\2022\Community\VC\Tools\MSVC\14.31.31103\include\xutility
;	COMDAT ??$_Construct_in_place@U_Container_proxy@std@@PEAU_Container_base12@2@@std@@YAXAEAU_Container_proxy@0@$$QEAPEAU_Container_base12@0@@Z
_TEXT	SEGMENT
$T1 = 200
tv93 = 216
tv77 = 216
tv75 = 224
_Obj$ = 272
<_Args_0>$ = 280
??$_Construct_in_place@U_Container_proxy@std@@PEAU_Container_base12@2@@std@@YAXAEAU_Container_proxy@0@$$QEAPEAU_Container_base12@0@@Z PROC ; std::_Construct_in_place<std::_Container_proxy,std::_Container_base12 *>, COMDAT

; 142  :     is_nothrow_constructible_v<_Ty, _Types...>) {

$LN5:
	mov	QWORD PTR [rsp+16], rdx
	mov	QWORD PTR [rsp+8], rcx
	push	rbp
	push	rdi
	sub	rsp, 280				; 00000118H
	lea	rbp, QWORD PTR [rsp+32]
	lea	rcx, OFFSET FLAT:__7F396DA6_xutility
	call	__CheckForDebuggerJustMyCode

; 143  : #if _HAS_CXX20
; 144  :     if (_STD is_constant_evaluated()) {

	call	?is_constant_evaluated@std@@YA_NXZ	; std::is_constant_evaluated
	movzx	eax, al
	test	eax, eax
	je	SHORT $LN2@Construct_

; 145  :         _STD construct_at(_STD addressof(_Obj), _STD forward<_Types>(_Args)...);

	mov	rcx, QWORD PTR <_Args_0>$[rbp]
	call	??$forward@PEAU_Container_base12@std@@@std@@YA$$QEAPEAU_Container_base12@0@AEAPEAU10@@Z ; std::forward<std::_Container_base12 *>
	mov	QWORD PTR tv77[rbp], rax
	mov	rcx, QWORD PTR _Obj$[rbp]
	call	??$addressof@U_Container_proxy@std@@@std@@YAPEAU_Container_proxy@0@AEAU10@@Z ; std::addressof<std::_Container_proxy>
	mov	QWORD PTR tv75[rbp], rax
	mov	rdx, QWORD PTR tv77[rbp]
	mov	rcx, QWORD PTR tv75[rbp]
	call	??$construct_at@U_Container_proxy@std@@PEAU_Container_base12@2@X@std@@YAPEAU_Container_proxy@0@QEAU10@$$QEAPEAU_Container_base12@0@@Z ; std::construct_at<std::_Container_proxy,std::_Container_base12 *,void>

; 146  :     } else

	jmp	SHORT $LN3@Construct_
$LN2@Construct_:

; 142  :     is_nothrow_constructible_v<_Ty, _Types...>) {

	mov	rcx, QWORD PTR _Obj$[rbp]
	call	??$addressof@U_Container_proxy@std@@@std@@YAPEAU_Container_proxy@0@AEAU10@@Z ; std::addressof<std::_Container_proxy>
	mov	rcx, rax
	call	??$_Voidify_iter@PEAU_Container_proxy@std@@@std@@YAPEAXPEAU_Container_proxy@0@@Z ; std::_Voidify_iter<std::_Container_proxy *>
	mov	rdx, rax
	mov	ecx, 16
	call	??2@YAPEAX_KPEAX@Z			; operator new
	mov	QWORD PTR $T1[rbp], rax
	mov	rcx, QWORD PTR <_Args_0>$[rbp]
	call	??$forward@PEAU_Container_base12@std@@@std@@YA$$QEAPEAU_Container_base12@0@AEAPEAU10@@Z ; std::forward<std::_Container_base12 *>
	mov	rax, QWORD PTR [rax]
	mov	QWORD PTR tv93[rbp], rax
	mov	rdx, QWORD PTR tv93[rbp]
	mov	rcx, QWORD PTR $T1[rbp]
	call	??0_Container_proxy@std@@QEAA@PEAU_Container_base12@1@@Z ; std::_Container_proxy::_Container_proxy
$LN3@Construct_:

; 147  : #endif // _HAS_CXX20
; 148  :     {
; 149  :         ::new (_Voidify_iter(_STD addressof(_Obj))) _Ty(_STD forward<_Types>(_Args)...);
; 150  :     }
; 151  : }

	lea	rsp, QWORD PTR [rbp+248]
	pop	rdi
	pop	rbp
	ret	0
??$_Construct_in_place@U_Container_proxy@std@@PEAU_Container_base12@2@@std@@YAXAEAU_Container_proxy@0@$$QEAPEAU_Container_base12@0@@Z ENDP ; std::_Construct_in_place<std::_Container_proxy,std::_Container_base12 *>
_TEXT	ENDS
; Function compile flags: /Odtp /RTCsu /ZI
; File C:\Program Files\Microsoft Visual Studio\2022\Community\VC\Tools\MSVC\14.31.31103\include\xstddef
;	COMDAT ??$addressof@U_Container_base12@std@@@std@@YAPEAU_Container_base12@0@AEAU10@@Z
_TEXT	SEGMENT
_Val$ = 224
??$addressof@U_Container_base12@std@@@std@@YAPEAU_Container_base12@0@AEAU10@@Z PROC ; std::addressof<std::_Container_base12>, COMDAT

; 252  : _NODISCARD constexpr _Ty* addressof(_Ty& _Val) noexcept {

$LN3:
	mov	QWORD PTR [rsp+8], rcx
	push	rbp
	push	rdi
	sub	rsp, 232				; 000000e8H
	lea	rbp, QWORD PTR [rsp+32]
	lea	rcx, OFFSET FLAT:__264C4909_xstddef
	call	__CheckForDebuggerJustMyCode

; 253  :     return __builtin_addressof(_Val);

	mov	rax, QWORD PTR _Val$[rbp]

; 254  : }

	lea	rsp, QWORD PTR [rbp+200]
	pop	rdi
	pop	rbp
	ret	0
??$addressof@U_Container_base12@std@@@std@@YAPEAU_Container_base12@0@AEAU10@@Z ENDP ; std::addressof<std::_Container_base12>
_TEXT	ENDS
; Function compile flags: /Odtp /RTCsu /ZI
; File C:\Program Files\Microsoft Visual Studio\2022\Community\VC\Tools\MSVC\14.31.31103\include\xmemory
;	COMDAT ??0_Basic_container_proxy_ptr12@std@@IEAA@XZ
_TEXT	SEGMENT
this$ = 224
??0_Basic_container_proxy_ptr12@std@@IEAA@XZ PROC	; std::_Basic_container_proxy_ptr12::_Basic_container_proxy_ptr12, COMDAT

; 1300 :     _CONSTEXPR20 _Basic_container_proxy_ptr12()                       = default;

$LN3:
	mov	QWORD PTR [rsp+8], rcx
	push	rbp
	push	rdi
	sub	rsp, 232				; 000000e8H
	lea	rbp, QWORD PTR [rsp+32]
	lea	rcx, OFFSET FLAT:__BBC6BDD8_xmemory
	call	__CheckForDebuggerJustMyCode

; 1293 :     _Container_proxy* _Ptr = nullptr;

	mov	rax, QWORD PTR this$[rbp]
	mov	QWORD PTR [rax], 0

; 1300 :     _CONSTEXPR20 _Basic_container_proxy_ptr12()                       = default;

	mov	rax, QWORD PTR this$[rbp]
	lea	rsp, QWORD PTR [rbp+200]
	pop	rdi
	pop	rbp
	ret	0
??0_Basic_container_proxy_ptr12@std@@IEAA@XZ ENDP	; std::_Basic_container_proxy_ptr12::_Basic_container_proxy_ptr12
_TEXT	ENDS
; Function compile flags: /Odtp /RTCsu /ZI
; File C:\Program Files\Microsoft Visual Studio\2022\Community\VC\Tools\MSVC\14.31.31103\include\xmemory
;	COMDAT ?_Release@_Basic_container_proxy_ptr12@std@@QEAAXXZ
_TEXT	SEGMENT
this$ = 224
?_Release@_Basic_container_proxy_ptr12@std@@QEAAXXZ PROC ; std::_Basic_container_proxy_ptr12::_Release, COMDAT

; 1295 :     constexpr void _Release() noexcept { // disengage this _Basic_container_proxy_ptr12

$LN3:
	mov	QWORD PTR [rsp+8], rcx
	push	rbp
	push	rdi
	sub	rsp, 232				; 000000e8H
	lea	rbp, QWORD PTR [rsp+32]
	lea	rcx, OFFSET FLAT:__BBC6BDD8_xmemory
	call	__CheckForDebuggerJustMyCode

; 1296 :         _Ptr = nullptr;

	mov	rax, QWORD PTR this$[rbp]
	mov	QWORD PTR [rax], 0

; 1297 :     }

	lea	rsp, QWORD PTR [rbp+200]
	pop	rdi
	pop	rbp
	ret	0
?_Release@_Basic_container_proxy_ptr12@std@@QEAAXXZ ENDP ; std::_Basic_container_proxy_ptr12::_Release
_TEXT	ENDS
; Function compile flags: /Odtp /RTCsu /ZI
; File C:\Program Files\Microsoft Visual Studio\2022\Community\VC\Tools\MSVC\14.31.31103\include\xmemory
;	COMDAT ?_Orphan_all_locked_v3@_Container_base12@std@@AEAAXXZ
_TEXT	SEGMENT
_Lock$ = 4
__$ArrayPad$ = 216
this$ = 256
?_Orphan_all_locked_v3@_Container_base12@std@@AEAAXXZ PROC ; std::_Container_base12::_Orphan_all_locked_v3, COMDAT

; 1074 :     void _Orphan_all_locked_v3() noexcept {

$LN3:
	mov	QWORD PTR [rsp+8], rcx
	push	rbp
	push	rdi
	sub	rsp, 264				; 00000108H
	lea	rbp, QWORD PTR [rsp+32]
	lea	rdi, QWORD PTR [rsp+32]
	mov	ecx, 10
	mov	eax, -858993460				; ccccccccH
	rep stosd
	mov	rcx, QWORD PTR [rsp+296]
	mov	rax, QWORD PTR __security_cookie
	xor	rax, rbp
	mov	QWORD PTR __$ArrayPad$[rbp], rax
	lea	rcx, OFFSET FLAT:__BBC6BDD8_xmemory
	call	__CheckForDebuggerJustMyCode

; 1075 :         _Lockit _Lock(_LOCK_DEBUG);

	mov	edx, 3
	lea	rcx, QWORD PTR _Lock$[rbp]
	call	QWORD PTR __imp_??0_Lockit@std@@QEAA@H@Z

; 1076 :         _Orphan_all_unlocked_v3();

	mov	rcx, QWORD PTR this$[rbp]
	call	?_Orphan_all_unlocked_v3@_Container_base12@std@@AEAAXXZ ; std::_Container_base12::_Orphan_all_unlocked_v3

; 1077 :     }

	lea	rcx, QWORD PTR _Lock$[rbp]
	call	QWORD PTR __imp_??1_Lockit@std@@QEAA@XZ
	lea	rcx, QWORD PTR [rbp-32]
	lea	rdx, OFFSET FLAT:?_Orphan_all_locked_v3@_Container_base12@std@@AEAAXXZ$rtcFrameData
	call	_RTC_CheckStackVars
	mov	rcx, QWORD PTR __$ArrayPad$[rbp]
	xor	rcx, rbp
	call	__security_check_cookie
	lea	rsp, QWORD PTR [rbp+232]
	pop	rdi
	pop	rbp
	ret	0
?_Orphan_all_locked_v3@_Container_base12@std@@AEAAXXZ ENDP ; std::_Container_base12::_Orphan_all_locked_v3
_TEXT	ENDS
; Function compile flags: /Odtp /RTCsu /ZI
; File C:\Program Files\Microsoft Visual Studio\2022\Community\VC\Tools\MSVC\14.31.31103\include\xmemory
;	COMDAT ?_Orphan_all_unlocked_v3@_Container_base12@std@@AEAAXXZ
_TEXT	SEGMENT
_Pnext$1 = 8
this$ = 256
?_Orphan_all_unlocked_v3@_Container_base12@std@@AEAAXXZ PROC ; std::_Container_base12::_Orphan_all_unlocked_v3, COMDAT

; 1215 : _CONSTEXPR20 void _Container_base12::_Orphan_all_unlocked_v3() noexcept {

$LN7:
	mov	QWORD PTR [rsp+8], rcx
	push	rbp
	push	rdi
	sub	rsp, 264				; 00000108H
	lea	rbp, QWORD PTR [rsp+32]
	lea	rcx, OFFSET FLAT:__BBC6BDD8_xmemory
	call	__CheckForDebuggerJustMyCode

; 1216 :     if (!_Myproxy) { // no proxy, already done

	mov	rax, QWORD PTR this$[rbp]
	cmp	QWORD PTR [rax], 0
	jne	SHORT $LN5@Orphan_all

; 1217 :         return;

	jmp	SHORT $LN1@Orphan_all
$LN5@Orphan_all:

; 1218 :     }
; 1219 : 
; 1220 :     // proxy allocated, drain it
; 1221 :     for (auto& _Pnext = _Myproxy->_Myfirstiter; _Pnext; _Pnext = _Pnext->_Mynextiter) { // TRANSITION, VSO-1269037

	mov	rax, QWORD PTR this$[rbp]
	mov	rax, QWORD PTR [rax]
	add	rax, 8
	mov	QWORD PTR _Pnext$1[rbp], rax
	jmp	SHORT $LN4@Orphan_all
$LN2@Orphan_all:
	mov	rax, QWORD PTR _Pnext$1[rbp]
	mov	rax, QWORD PTR [rax]
	mov	rcx, QWORD PTR _Pnext$1[rbp]
	mov	rax, QWORD PTR [rax+8]
	mov	QWORD PTR [rcx], rax
$LN4@Orphan_all:
	mov	rax, QWORD PTR _Pnext$1[rbp]
	cmp	QWORD PTR [rax], 0
	je	SHORT $LN3@Orphan_all

; 1222 :         _Pnext->_Myproxy = nullptr;

	mov	rax, QWORD PTR _Pnext$1[rbp]
	mov	rax, QWORD PTR [rax]
	mov	QWORD PTR [rax], 0

; 1223 :     }

	jmp	SHORT $LN2@Orphan_all
$LN3@Orphan_all:

; 1224 :     _Myproxy->_Myfirstiter = nullptr;

	mov	rax, QWORD PTR this$[rbp]
	mov	rax, QWORD PTR [rax]
	mov	QWORD PTR [rax+8], 0
$LN1@Orphan_all:

; 1225 : }

	lea	rsp, QWORD PTR [rbp+232]
	pop	rdi
	pop	rbp
	ret	0
?_Orphan_all_unlocked_v3@_Container_base12@std@@AEAAXXZ ENDP ; std::_Container_base12::_Orphan_all_unlocked_v3
_TEXT	ENDS
; Function compile flags: /Odtp /RTCsu /ZI
; File C:\Program Files\Microsoft Visual Studio\2022\Community\VC\Tools\MSVC\14.31.31103\include\xmemory
;	COMDAT ?_Orphan_all@_Container_base12@std@@QEAAXXZ
_TEXT	SEGMENT
this$ = 224
?_Orphan_all@_Container_base12@std@@QEAAXXZ PROC	; std::_Container_base12::_Orphan_all, COMDAT

; 1227 : _CONSTEXPR20 void _Container_base12::_Orphan_all() noexcept {

$LN5:
	mov	QWORD PTR [rsp+8], rcx
	push	rbp
	push	rdi
	sub	rsp, 232				; 000000e8H
	lea	rbp, QWORD PTR [rsp+32]
	lea	rcx, OFFSET FLAT:__BBC6BDD8_xmemory
	call	__CheckForDebuggerJustMyCode

; 1228 : #if _ITERATOR_DEBUG_LEVEL == 2
; 1229 : #if _HAS_CXX20
; 1230 :     if (_STD is_constant_evaluated()) {

	call	?is_constant_evaluated@std@@YA_NXZ	; std::is_constant_evaluated
	movzx	eax, al
	test	eax, eax
	je	SHORT $LN2@Orphan_all

; 1231 :         _Orphan_all_unlocked_v3();

	mov	rcx, QWORD PTR this$[rbp]
	call	?_Orphan_all_unlocked_v3@_Container_base12@std@@AEAAXXZ ; std::_Container_base12::_Orphan_all_unlocked_v3

; 1232 :     } else

	jmp	SHORT $LN3@Orphan_all
$LN2@Orphan_all:

; 1233 : #endif // _HAS_CXX20
; 1234 :     {
; 1235 :         _Orphan_all_locked_v3();

	mov	rcx, QWORD PTR this$[rbp]
	call	?_Orphan_all_locked_v3@_Container_base12@std@@AEAAXXZ ; std::_Container_base12::_Orphan_all_locked_v3
$LN3@Orphan_all:

; 1236 :     }
; 1237 : #endif // _ITERATOR_DEBUG_LEVEL == 2
; 1238 : }

	lea	rsp, QWORD PTR [rbp+200]
	pop	rdi
	pop	rbp
	ret	0
?_Orphan_all@_Container_base12@std@@QEAAXXZ ENDP	; std::_Container_base12::_Orphan_all
_TEXT	ENDS
; Function compile flags: /Odtp /RTCsu /ZI
; File C:\Program Files\Microsoft Visual Studio\2022\Community\VC\Tools\MSVC\14.31.31103\include\xmemory
;	COMDAT ??0_Container_base12@std@@QEAA@XZ
_TEXT	SEGMENT
this$ = 224
??0_Container_base12@std@@QEAA@XZ PROC			; std::_Container_base12::_Container_base12, COMDAT

; 1043 :     _CONSTEXPR20 _Container_base12() noexcept = default;

$LN3:
	mov	QWORD PTR [rsp+8], rcx
	push	rbp
	push	rdi
	sub	rsp, 232				; 000000e8H
	lea	rbp, QWORD PTR [rsp+32]
	lea	rcx, OFFSET FLAT:__BBC6BDD8_xmemory
	call	__CheckForDebuggerJustMyCode

; 1044 : 
; 1045 :     _Container_base12(const _Container_base12&) = delete;
; 1046 :     _Container_base12& operator=(const _Container_base12&) = delete;
; 1047 : 
; 1048 :     _CONSTEXPR20 void _Orphan_all() noexcept;
; 1049 :     _CONSTEXPR20 void _Swap_proxy_and_iterators(_Container_base12&) noexcept;
; 1050 : 
; 1051 :     template <class _Alloc>
; 1052 :     _CONSTEXPR20 void _Alloc_proxy(_Alloc&& _Al) {
; 1053 :         _Container_proxy* const _New_proxy = _Unfancy(_Al.allocate(1));
; 1054 :         _Construct_in_place(*_New_proxy, this);
; 1055 :         _Myproxy            = _New_proxy;
; 1056 :         _New_proxy->_Mycont = this;
; 1057 :     }
; 1058 : 
; 1059 :     template <class _Alloc>
; 1060 :     _CONSTEXPR20 void _Reload_proxy(_Alloc&& _Old_alloc, _Alloc&& _New_alloc) {
; 1061 :         // pre: no iterators refer to the existing proxy
; 1062 :         _Container_proxy* const _New_proxy = _Unfancy(_New_alloc.allocate(1));
; 1063 :         _Construct_in_place(*_New_proxy, this);
; 1064 :         _New_proxy->_Mycont = this;
; 1065 :         _Delete_plain_internal(_Old_alloc, _STD exchange(_Myproxy, _New_proxy));
; 1066 :     }
; 1067 : 
; 1068 :     _Container_proxy* _Myproxy = nullptr;

	mov	rax, QWORD PTR this$[rbp]
	mov	QWORD PTR [rax], 0

; 1043 :     _CONSTEXPR20 _Container_base12() noexcept = default;

	mov	rax, QWORD PTR this$[rbp]
	lea	rsp, QWORD PTR [rbp+200]
	pop	rdi
	pop	rbp
	ret	0
??0_Container_base12@std@@QEAA@XZ ENDP			; std::_Container_base12::_Container_base12
_TEXT	ENDS
; Function compile flags: /Odtp /RTCsu /ZI
; File C:\Program Files\Microsoft Visual Studio\2022\Community\VC\Tools\MSVC\14.31.31103\include\xmemory
;	COMDAT ??0_Container_proxy@std@@QEAA@PEAU_Container_base12@1@@Z
_TEXT	SEGMENT
this$ = 224
_Mycont_$ = 232
??0_Container_proxy@std@@QEAA@PEAU_Container_base12@1@@Z PROC ; std::_Container_proxy::_Container_proxy, COMDAT

; 1035 :     _CONSTEXPR20 _Container_proxy(_Container_base12* _Mycont_) noexcept : _Mycont(_Mycont_) {}

$LN3:
	mov	QWORD PTR [rsp+16], rdx
	mov	QWORD PTR [rsp+8], rcx
	push	rbp
	push	rdi
	sub	rsp, 232				; 000000e8H
	lea	rbp, QWORD PTR [rsp+32]
	lea	rcx, OFFSET FLAT:__BBC6BDD8_xmemory
	call	__CheckForDebuggerJustMyCode
	mov	rax, QWORD PTR this$[rbp]
	mov	rcx, QWORD PTR _Mycont_$[rbp]
	mov	QWORD PTR [rax], rcx

; 1036 : 
; 1037 :     const _Container_base12* _Mycont       = nullptr;
; 1038 :     mutable _Iterator_base12* _Myfirstiter = nullptr;

	mov	rax, QWORD PTR this$[rbp]
	mov	QWORD PTR [rax+8], 0

; 1035 :     _CONSTEXPR20 _Container_proxy(_Container_base12* _Mycont_) noexcept : _Mycont(_Mycont_) {}

	mov	rax, QWORD PTR this$[rbp]
	lea	rsp, QWORD PTR [rbp+200]
	pop	rdi
	pop	rbp
	ret	0
??0_Container_proxy@std@@QEAA@PEAU_Container_base12@1@@Z ENDP ; std::_Container_proxy::_Container_proxy
_TEXT	ENDS
; Function compile flags: /Odtp /RTCsu /ZI
; File C:\Program Files\Microsoft Visual Studio\2022\Community\VC\Tools\MSVC\14.31.31103\include\xmemory
;	COMDAT ?_Adjust_manually_vector_aligned@std@@YAXAEAPEAXAEA_K@Z
_TEXT	SEGMENT
_Ptr_user$ = 8
_Ptr_container$ = 40
_Min_back_shift$ = 72
_Back_shift$ = 104
_Ptr$ = 352
_Bytes$ = 360
?_Adjust_manually_vector_aligned@std@@YAXAEAPEAXAEA_K@Z PROC ; std::_Adjust_manually_vector_aligned, COMDAT

; 145  : inline void _Adjust_manually_vector_aligned(void*& _Ptr, size_t& _Bytes) {

$LN21:
	mov	QWORD PTR [rsp+16], rdx
	mov	QWORD PTR [rsp+8], rcx
	push	rbp
	push	rdi
	sub	rsp, 376				; 00000178H
	lea	rbp, QWORD PTR [rsp+48]
	lea	rcx, OFFSET FLAT:__BBC6BDD8_xmemory
	call	__CheckForDebuggerJustMyCode

; 146  :     // adjust parameters from _Allocate_manually_vector_aligned to pass to operator delete
; 147  :     _Bytes += _Non_user_size;

	mov	rax, QWORD PTR _Bytes$[rbp]
	mov	rax, QWORD PTR [rax]
	add	rax, 47					; 0000002fH
	mov	rcx, QWORD PTR _Bytes$[rbp]
	mov	QWORD PTR [rcx], rax

; 148  : 
; 149  :     const uintptr_t* const _Ptr_user = static_cast<uintptr_t*>(_Ptr);

	mov	rax, QWORD PTR _Ptr$[rbp]
	mov	rax, QWORD PTR [rax]
	mov	QWORD PTR _Ptr_user$[rbp], rax

; 150  :     const uintptr_t _Ptr_container   = _Ptr_user[-1];

	mov	eax, 8
	imul	rax, rax, -1
	mov	rcx, QWORD PTR _Ptr_user$[rbp]
	mov	rax, QWORD PTR [rcx+rax]
	mov	QWORD PTR _Ptr_container$[rbp], rax
$LN4@Adjust_man:

; 151  : 
; 152  :     // If the following asserts, it likely means that we are performing
; 153  :     // an aligned delete on memory coming from an unaligned allocation.
; 154  :     _STL_ASSERT(_Ptr_user[-2] == _Big_allocation_sentinel, "invalid argument");

	mov	eax, 8
	imul	rax, rax, -2
	mov	rcx, QWORD PTR _Ptr_user$[rbp]
	mov	rdx, -361700864190383366		; fafafafafafafafaH
	cmp	QWORD PTR [rcx+rax], rdx
	jne	SHORT $LN14@Adjust_man
	jmp	SHORT $LN15@Adjust_man
$LN14@Adjust_man:
$LN7@Adjust_man:
	mov	eax, DWORD PTR ?__LINE__Var@?0??_Adjust_manually_vector_aligned@std@@YAXAEAPEAXAEA_K@Z@4JA
	add	eax, 9
	lea	rcx, OFFSET FLAT:??_C@_0BB@FCMFBGOM@invalid?5argument@
	mov	QWORD PTR [rsp+40], rcx
	lea	rcx, OFFSET FLAT:??_C@_02DKCKIIND@?$CFs@
	mov	QWORD PTR [rsp+32], rcx
	xor	r9d, r9d
	mov	r8d, eax
	lea	rdx, OFFSET FLAT:??_C@_0GC@DLMJMPBP@C?3?2Program?5Files?2Microsoft?5Visu@
	mov	ecx, 2
	call	QWORD PTR __imp__CrtDbgReport
	cmp	eax, 1
	jne	SHORT $LN19@Adjust_man
	int	3
	xor	eax, eax
$LN19@Adjust_man:
	mov	eax, DWORD PTR ?__LINE__Var@?0??_Adjust_manually_vector_aligned@std@@YAXAEAPEAXAEA_K@Z@4JA
	add	eax, 9
	mov	QWORD PTR [rsp+32], 0
	mov	r9d, eax
	lea	r8, OFFSET FLAT:??_C@_1ME@MKDMFCMA@?$AAC?$AA?3?$AA?2?$AAP?$AAr?$AAo?$AAg?$AAr?$AAa?$AAm?$AA?5?$AAF?$AAi?$AAl?$AAe@
	lea	rdx, OFFSET FLAT:??_C@_11LOCGONAA@@
	lea	rcx, OFFSET FLAT:??_C@_1CG@JNLFBNGN@?$AA?$CC?$AAi?$AAn?$AAv?$AAa?$AAl?$AAi?$AAd?$AA?5?$AAa?$AAr?$AAg?$AAu?$AAm?$AAe@
	call	QWORD PTR __imp__invalid_parameter
	xor	eax, eax
	test	eax, eax
	jne	SHORT $LN7@Adjust_man
$LN15@Adjust_man:
	xor	eax, eax
	test	eax, eax
	jne	$LN4@Adjust_man

; 155  : 
; 156  :     // Extra paranoia on aligned allocation/deallocation; ensure _Ptr_container is
; 157  :     // in range [_Min_back_shift, _Non_user_size]
; 158  : #ifdef _DEBUG
; 159  :     constexpr uintptr_t _Min_back_shift = 2 * sizeof(void*);

	mov	QWORD PTR _Min_back_shift$[rbp], 16

; 160  : #else // ^^^ _DEBUG ^^^ // vvv !_DEBUG vvv
; 161  :     constexpr uintptr_t _Min_back_shift = sizeof(void*);
; 162  : #endif // _DEBUG
; 163  :     const uintptr_t _Back_shift = reinterpret_cast<uintptr_t>(_Ptr) - _Ptr_container;

	mov	rax, QWORD PTR _Ptr$[rbp]
	mov	rcx, QWORD PTR _Ptr_container$[rbp]
	mov	rax, QWORD PTR [rax]
	sub	rax, rcx
	mov	QWORD PTR _Back_shift$[rbp], rax
$LN10@Adjust_man:

; 164  :     _STL_VERIFY(_Back_shift >= _Min_back_shift && _Back_shift <= _Non_user_size, "invalid argument");

	cmp	QWORD PTR _Back_shift$[rbp], 16
	jb	SHORT $LN16@Adjust_man
	cmp	QWORD PTR _Back_shift$[rbp], 47		; 0000002fH
	ja	SHORT $LN16@Adjust_man
	jmp	SHORT $LN17@Adjust_man
$LN16@Adjust_man:
$LN13@Adjust_man:
	mov	eax, DWORD PTR ?__LINE__Var@?0??_Adjust_manually_vector_aligned@std@@YAXAEAPEAXAEA_K@Z@4JA
	add	eax, 19
	lea	rcx, OFFSET FLAT:??_C@_0BB@FCMFBGOM@invalid?5argument@
	mov	QWORD PTR [rsp+40], rcx
	lea	rcx, OFFSET FLAT:??_C@_02DKCKIIND@?$CFs@
	mov	QWORD PTR [rsp+32], rcx
	xor	r9d, r9d
	mov	r8d, eax
	lea	rdx, OFFSET FLAT:??_C@_0GC@DLMJMPBP@C?3?2Program?5Files?2Microsoft?5Visu@
	mov	ecx, 2
	call	QWORD PTR __imp__CrtDbgReport
	cmp	eax, 1
	jne	SHORT $LN20@Adjust_man
	int	3
	xor	eax, eax
$LN20@Adjust_man:
	mov	eax, DWORD PTR ?__LINE__Var@?0??_Adjust_manually_vector_aligned@std@@YAXAEAPEAXAEA_K@Z@4JA
	add	eax, 19
	mov	QWORD PTR [rsp+32], 0
	mov	r9d, eax
	lea	r8, OFFSET FLAT:??_C@_1ME@MKDMFCMA@?$AAC?$AA?3?$AA?2?$AAP?$AAr?$AAo?$AAg?$AAr?$AAa?$AAm?$AA?5?$AAF?$AAi?$AAl?$AAe@
	lea	rdx, OFFSET FLAT:??_C@_11LOCGONAA@@
	lea	rcx, OFFSET FLAT:??_C@_1CG@JNLFBNGN@?$AA?$CC?$AAi?$AAn?$AAv?$AAa?$AAl?$AAi?$AAd?$AA?5?$AAa?$AAr?$AAg?$AAu?$AAm?$AAe@
	call	QWORD PTR __imp__invalid_parameter
	xor	eax, eax
	test	eax, eax
	jne	SHORT $LN13@Adjust_man
$LN17@Adjust_man:
	xor	eax, eax
	test	eax, eax
	jne	$LN10@Adjust_man

; 165  :     _Ptr = reinterpret_cast<void*>(_Ptr_container);

	mov	rax, QWORD PTR _Ptr$[rbp]
	mov	rcx, QWORD PTR _Ptr_container$[rbp]
	mov	QWORD PTR [rax], rcx

; 166  : }

	lea	rsp, QWORD PTR [rbp+328]
	pop	rdi
	pop	rbp
	ret	0
?_Adjust_manually_vector_aligned@std@@YAXAEAPEAXAEA_K@Z ENDP ; std::_Adjust_manually_vector_aligned
_TEXT	ENDS
; Function compile flags: /Odtp /RTCsu /ZI
; File C:\Program Files\Microsoft Visual Studio\2022\Community\VC\Tools\MSVC\14.31.31103\include\xmemory
;	COMDAT ?_Allocate@_Default_allocate_traits@std@@SAPEAX_K@Z
_TEXT	SEGMENT
_Bytes$ = 224
?_Allocate@_Default_allocate_traits@std@@SAPEAX_K@Z PROC ; std::_Default_allocate_traits::_Allocate, COMDAT

; 78   :         void* _Allocate(const size_t _Bytes) {

$LN3:
	mov	QWORD PTR [rsp+8], rcx
	push	rbp
	push	rdi
	sub	rsp, 232				; 000000e8H
	lea	rbp, QWORD PTR [rsp+32]
	lea	rcx, OFFSET FLAT:__BBC6BDD8_xmemory
	call	__CheckForDebuggerJustMyCode

; 79   :         return ::operator new(_Bytes);

	mov	rcx, QWORD PTR _Bytes$[rbp]
	call	??2@YAPEAX_K@Z				; operator new

; 80   :     }

	lea	rsp, QWORD PTR [rbp+200]
	pop	rdi
	pop	rbp
	ret	0
?_Allocate@_Default_allocate_traits@std@@SAPEAX_K@Z ENDP ; std::_Default_allocate_traits::_Allocate
_TEXT	ENDS
; Function compile flags: /Odtp /RTCsu /ZI
; File C:\Program Files\Microsoft Visual Studio\2022\Community\VC\Tools\MSVC\14.31.31103\include\exception
;	COMDAT ?_Throw_bad_array_new_length@std@@YAXXZ
_TEXT	SEGMENT
$T1 = 200
?_Throw_bad_array_new_length@std@@YAXXZ PROC		; std::_Throw_bad_array_new_length, COMDAT

; 317  : [[noreturn]] inline void _Throw_bad_array_new_length() {

$LN3:
	push	rbp
	push	rdi
	sub	rsp, 280				; 00000118H
	lea	rbp, QWORD PTR [rsp+32]
	lea	rcx, OFFSET FLAT:__89F4D116_exception
	call	__CheckForDebuggerJustMyCode

; 318  :     _THROW(bad_array_new_length{});

	lea	rcx, QWORD PTR $T1[rbp]
	call	??0bad_array_new_length@std@@QEAA@XZ	; std::bad_array_new_length::bad_array_new_length
	lea	rdx, OFFSET FLAT:_TI3?AVbad_array_new_length@std@@
	lea	rcx, QWORD PTR $T1[rbp]
	call	_CxxThrowException
$LN2@Throw_bad_:

; 319  : }

	lea	rsp, QWORD PTR [rbp+248]
	pop	rdi
	pop	rbp
	ret	0
?_Throw_bad_array_new_length@std@@YAXXZ ENDP		; std::_Throw_bad_array_new_length
_TEXT	ENDS
; Function compile flags: /Odtp /RTCsu /ZI
;	COMDAT ??_Gbad_array_new_length@std@@UEAAPEAXI@Z
_TEXT	SEGMENT
this$ = 224
__flags$ = 232
??_Gbad_array_new_length@std@@UEAAPEAXI@Z PROC		; std::bad_array_new_length::`scalar deleting destructor', COMDAT
$LN4:
	mov	DWORD PTR [rsp+16], edx
	mov	QWORD PTR [rsp+8], rcx
	push	rbp
	push	rdi
	sub	rsp, 232				; 000000e8H
	lea	rbp, QWORD PTR [rsp+32]
	mov	rcx, QWORD PTR this$[rbp]
	call	??1bad_array_new_length@std@@UEAA@XZ
	mov	eax, DWORD PTR __flags$[rbp]
	and	eax, 1
	test	eax, eax
	je	SHORT $LN2@scalar
	mov	edx, 24
	mov	rcx, QWORD PTR this$[rbp]
	call	??3@YAXPEAX_K@Z				; operator delete
$LN2@scalar:
	mov	rax, QWORD PTR this$[rbp]
	lea	rsp, QWORD PTR [rbp+200]
	pop	rdi
	pop	rbp
	ret	0
??_Gbad_array_new_length@std@@UEAAPEAXI@Z ENDP		; std::bad_array_new_length::`scalar deleting destructor'
_TEXT	ENDS
; Function compile flags: /Odtp /RTCsu /ZI
;	COMDAT ??0bad_array_new_length@std@@QEAA@AEBV01@@Z
_TEXT	SEGMENT
this$ = 224
__that$ = 232
??0bad_array_new_length@std@@QEAA@AEBV01@@Z PROC	; std::bad_array_new_length::bad_array_new_length, COMDAT
$LN3:
	mov	QWORD PTR [rsp+16], rdx
	mov	QWORD PTR [rsp+8], rcx
	push	rbp
	push	rdi
	sub	rsp, 232				; 000000e8H
	lea	rbp, QWORD PTR [rsp+32]
	mov	rdx, QWORD PTR __that$[rbp]
	mov	rcx, QWORD PTR this$[rbp]
	call	??0bad_alloc@std@@QEAA@AEBV01@@Z
	mov	rax, QWORD PTR this$[rbp]
	lea	rcx, OFFSET FLAT:??_7bad_array_new_length@std@@6B@
	mov	QWORD PTR [rax], rcx
	mov	rax, QWORD PTR this$[rbp]
	lea	rsp, QWORD PTR [rbp+200]
	pop	rdi
	pop	rbp
	ret	0
??0bad_array_new_length@std@@QEAA@AEBV01@@Z ENDP	; std::bad_array_new_length::bad_array_new_length
_TEXT	ENDS
; Function compile flags: /Odtp /RTCsu /ZI
;	COMDAT ??1bad_array_new_length@std@@UEAA@XZ
_TEXT	SEGMENT
this$ = 224
??1bad_array_new_length@std@@UEAA@XZ PROC		; std::bad_array_new_length::~bad_array_new_length, COMDAT
$LN3:
	mov	QWORD PTR [rsp+8], rcx
	push	rbp
	push	rdi
	sub	rsp, 232				; 000000e8H
	lea	rbp, QWORD PTR [rsp+32]
	mov	rcx, QWORD PTR this$[rbp]
	call	??1bad_alloc@std@@UEAA@XZ
	lea	rsp, QWORD PTR [rbp+200]
	pop	rdi
	pop	rbp
	ret	0
??1bad_array_new_length@std@@UEAA@XZ ENDP		; std::bad_array_new_length::~bad_array_new_length
_TEXT	ENDS
; Function compile flags: /Odtp /RTCsu /ZI
; File C:\Program Files\Microsoft Visual Studio\2022\Community\VC\Tools\MSVC\14.31.31103\include\vcruntime_exception.h
;	COMDAT ??0bad_array_new_length@std@@QEAA@XZ
_TEXT	SEGMENT
this$ = 224
??0bad_array_new_length@std@@QEAA@XZ PROC		; std::bad_array_new_length::bad_array_new_length, COMDAT

; 141  :     {

$LN3:
	mov	QWORD PTR [rsp+8], rcx
	push	rbp
	push	rdi
	sub	rsp, 232				; 000000e8H
	lea	rbp, QWORD PTR [rsp+32]
	lea	rcx, OFFSET FLAT:__50B6FA41_vcruntime_exception@h
	call	__CheckForDebuggerJustMyCode

; 140  :         : bad_alloc("bad array new length")

	lea	rdx, OFFSET FLAT:??_C@_0BF@KINCDENJ@bad?5array?5new?5length@
	mov	rcx, QWORD PTR this$[rbp]
	call	??0bad_alloc@std@@AEAA@QEBD@Z		; std::bad_alloc::bad_alloc

; 141  :     {

	mov	rax, QWORD PTR this$[rbp]
	lea	rcx, OFFSET FLAT:??_7bad_array_new_length@std@@6B@
	mov	QWORD PTR [rax], rcx

; 142  :     }

	mov	rax, QWORD PTR this$[rbp]
	lea	rsp, QWORD PTR [rbp+200]
	pop	rdi
	pop	rbp
	ret	0
??0bad_array_new_length@std@@QEAA@XZ ENDP		; std::bad_array_new_length::bad_array_new_length
_TEXT	ENDS
; Function compile flags: /Odtp /RTCsu /ZI
;	COMDAT ??_Gbad_alloc@std@@UEAAPEAXI@Z
_TEXT	SEGMENT
this$ = 224
__flags$ = 232
??_Gbad_alloc@std@@UEAAPEAXI@Z PROC			; std::bad_alloc::`scalar deleting destructor', COMDAT
$LN4:
	mov	DWORD PTR [rsp+16], edx
	mov	QWORD PTR [rsp+8], rcx
	push	rbp
	push	rdi
	sub	rsp, 232				; 000000e8H
	lea	rbp, QWORD PTR [rsp+32]
	mov	rcx, QWORD PTR this$[rbp]
	call	??1bad_alloc@std@@UEAA@XZ
	mov	eax, DWORD PTR __flags$[rbp]
	and	eax, 1
	test	eax, eax
	je	SHORT $LN2@scalar
	mov	edx, 24
	mov	rcx, QWORD PTR this$[rbp]
	call	??3@YAXPEAX_K@Z				; operator delete
$LN2@scalar:
	mov	rax, QWORD PTR this$[rbp]
	lea	rsp, QWORD PTR [rbp+200]
	pop	rdi
	pop	rbp
	ret	0
??_Gbad_alloc@std@@UEAAPEAXI@Z ENDP			; std::bad_alloc::`scalar deleting destructor'
_TEXT	ENDS
; Function compile flags: /Odtp /RTCsu /ZI
;	COMDAT ??0bad_alloc@std@@QEAA@AEBV01@@Z
_TEXT	SEGMENT
this$ = 224
__that$ = 232
??0bad_alloc@std@@QEAA@AEBV01@@Z PROC			; std::bad_alloc::bad_alloc, COMDAT
$LN3:
	mov	QWORD PTR [rsp+16], rdx
	mov	QWORD PTR [rsp+8], rcx
	push	rbp
	push	rdi
	sub	rsp, 232				; 000000e8H
	lea	rbp, QWORD PTR [rsp+32]
	mov	rdx, QWORD PTR __that$[rbp]
	mov	rcx, QWORD PTR this$[rbp]
	call	??0exception@std@@QEAA@AEBV01@@Z	; std::exception::exception
	mov	rax, QWORD PTR this$[rbp]
	lea	rcx, OFFSET FLAT:??_7bad_alloc@std@@6B@
	mov	QWORD PTR [rax], rcx
	mov	rax, QWORD PTR this$[rbp]
	lea	rsp, QWORD PTR [rbp+200]
	pop	rdi
	pop	rbp
	ret	0
??0bad_alloc@std@@QEAA@AEBV01@@Z ENDP			; std::bad_alloc::bad_alloc
_TEXT	ENDS
; Function compile flags: /Odtp /RTCsu /ZI
;	COMDAT ??1bad_alloc@std@@UEAA@XZ
_TEXT	SEGMENT
this$ = 224
??1bad_alloc@std@@UEAA@XZ PROC				; std::bad_alloc::~bad_alloc, COMDAT
$LN3:
	mov	QWORD PTR [rsp+8], rcx
	push	rbp
	push	rdi
	sub	rsp, 232				; 000000e8H
	lea	rbp, QWORD PTR [rsp+32]
	mov	rcx, QWORD PTR this$[rbp]
	call	??1exception@std@@UEAA@XZ		; std::exception::~exception
	lea	rsp, QWORD PTR [rbp+200]
	pop	rdi
	pop	rbp
	ret	0
??1bad_alloc@std@@UEAA@XZ ENDP				; std::bad_alloc::~bad_alloc
_TEXT	ENDS
; Function compile flags: /Odtp /RTCsu /ZI
; File C:\Program Files\Microsoft Visual Studio\2022\Community\VC\Tools\MSVC\14.31.31103\include\vcruntime_exception.h
;	COMDAT ??0bad_alloc@std@@AEAA@QEBD@Z
_TEXT	SEGMENT
this$ = 224
_Message$ = 232
??0bad_alloc@std@@AEAA@QEBD@Z PROC			; std::bad_alloc::bad_alloc, COMDAT

; 130  :     {

$LN3:
	mov	QWORD PTR [rsp+16], rdx
	mov	QWORD PTR [rsp+8], rcx
	push	rbp
	push	rdi
	sub	rsp, 232				; 000000e8H
	lea	rbp, QWORD PTR [rsp+32]
	lea	rcx, OFFSET FLAT:__50B6FA41_vcruntime_exception@h
	call	__CheckForDebuggerJustMyCode

; 129  :         : exception(_Message, 1)

	mov	r8d, 1
	mov	rdx, QWORD PTR _Message$[rbp]
	mov	rcx, QWORD PTR this$[rbp]
	call	??0exception@std@@QEAA@QEBDH@Z		; std::exception::exception

; 130  :     {

	mov	rax, QWORD PTR this$[rbp]
	lea	rcx, OFFSET FLAT:??_7bad_alloc@std@@6B@
	mov	QWORD PTR [rax], rcx

; 131  :     }

	mov	rax, QWORD PTR this$[rbp]
	lea	rsp, QWORD PTR [rbp+200]
	pop	rdi
	pop	rbp
	ret	0
??0bad_alloc@std@@AEAA@QEBD@Z ENDP			; std::bad_alloc::bad_alloc
_TEXT	ENDS
; Function compile flags: /Odtp /RTCsu /ZI
;	COMDAT ??_Gexception@std@@UEAAPEAXI@Z
_TEXT	SEGMENT
this$ = 224
__flags$ = 232
??_Gexception@std@@UEAAPEAXI@Z PROC			; std::exception::`scalar deleting destructor', COMDAT
$LN4:
	mov	DWORD PTR [rsp+16], edx
	mov	QWORD PTR [rsp+8], rcx
	push	rbp
	push	rdi
	sub	rsp, 232				; 000000e8H
	lea	rbp, QWORD PTR [rsp+32]
	mov	rcx, QWORD PTR this$[rbp]
	call	??1exception@std@@UEAA@XZ		; std::exception::~exception
	mov	eax, DWORD PTR __flags$[rbp]
	and	eax, 1
	test	eax, eax
	je	SHORT $LN2@scalar
	mov	edx, 24
	mov	rcx, QWORD PTR this$[rbp]
	call	??3@YAXPEAX_K@Z				; operator delete
$LN2@scalar:
	mov	rax, QWORD PTR this$[rbp]
	lea	rsp, QWORD PTR [rbp+200]
	pop	rdi
	pop	rbp
	ret	0
??_Gexception@std@@UEAAPEAXI@Z ENDP			; std::exception::`scalar deleting destructor'
_TEXT	ENDS
; Function compile flags: /Odtp /RTCsu /ZI
; File C:\Program Files\Microsoft Visual Studio\2022\Community\VC\Tools\MSVC\14.31.31103\include\vcruntime_exception.h
;	COMDAT ?what@exception@std@@UEBAPEBDXZ
_TEXT	SEGMENT
tv69 = 192
this$ = 240
?what@exception@std@@UEBAPEBDXZ PROC			; std::exception::what, COMDAT

; 94   :     {

$LN5:
	mov	QWORD PTR [rsp+8], rcx
	push	rbp
	push	rdi
	sub	rsp, 248				; 000000f8H
	lea	rbp, QWORD PTR [rsp+32]
	lea	rcx, OFFSET FLAT:__50B6FA41_vcruntime_exception@h
	call	__CheckForDebuggerJustMyCode

; 95   :         return _Data._What ? _Data._What : "Unknown exception";

	mov	rax, QWORD PTR this$[rbp]
	cmp	QWORD PTR [rax+8], 0
	je	SHORT $LN3@what
	mov	rax, QWORD PTR this$[rbp]
	mov	rax, QWORD PTR [rax+8]
	mov	QWORD PTR tv69[rbp], rax
	jmp	SHORT $LN4@what
$LN3@what:
	lea	rax, OFFSET FLAT:??_C@_0BC@EOODALEL@Unknown?5exception@
	mov	QWORD PTR tv69[rbp], rax
$LN4@what:
	mov	rax, QWORD PTR tv69[rbp]

; 96   :     }

	lea	rsp, QWORD PTR [rbp+216]
	pop	rdi
	pop	rbp
	ret	0
?what@exception@std@@UEBAPEBDXZ ENDP			; std::exception::what
_TEXT	ENDS
; Function compile flags: /Odtp /RTCsu /ZI
; File C:\Program Files\Microsoft Visual Studio\2022\Community\VC\Tools\MSVC\14.31.31103\include\vcruntime_exception.h
;	COMDAT ??1exception@std@@UEAA@XZ
_TEXT	SEGMENT
this$ = 224
??1exception@std@@UEAA@XZ PROC				; std::exception::~exception, COMDAT

; 89   :     {

$LN3:
	mov	QWORD PTR [rsp+8], rcx
	push	rbp
	push	rdi
	sub	rsp, 232				; 000000e8H
	lea	rbp, QWORD PTR [rsp+32]
	lea	rcx, OFFSET FLAT:__50B6FA41_vcruntime_exception@h
	call	__CheckForDebuggerJustMyCode
	mov	rax, QWORD PTR this$[rbp]
	lea	rcx, OFFSET FLAT:??_7exception@std@@6B@
	mov	QWORD PTR [rax], rcx

; 90   :         __std_exception_destroy(&_Data);

	mov	rax, QWORD PTR this$[rbp]
	add	rax, 8
	mov	rcx, rax
	call	__std_exception_destroy

; 91   :     }

	lea	rsp, QWORD PTR [rbp+200]
	pop	rdi
	pop	rbp
	ret	0
??1exception@std@@UEAA@XZ ENDP				; std::exception::~exception
_TEXT	ENDS
; Function compile flags: /Odtp /RTCsu /ZI
; File C:\Program Files\Microsoft Visual Studio\2022\Community\VC\Tools\MSVC\14.31.31103\include\vcruntime_exception.h
;	COMDAT ??0exception@std@@QEAA@AEBV01@@Z
_TEXT	SEGMENT
this$ = 224
_Other$ = 232
??0exception@std@@QEAA@AEBV01@@Z PROC			; std::exception::exception, COMDAT

; 72   :     {

$LN3:
	mov	QWORD PTR [rsp+16], rdx
	mov	QWORD PTR [rsp+8], rcx
	push	rbp
	push	rdi
	sub	rsp, 232				; 000000e8H
	lea	rbp, QWORD PTR [rsp+32]
	lea	rcx, OFFSET FLAT:__50B6FA41_vcruntime_exception@h
	call	__CheckForDebuggerJustMyCode
	mov	rax, QWORD PTR this$[rbp]
	lea	rcx, OFFSET FLAT:??_7exception@std@@6B@
	mov	QWORD PTR [rax], rcx

; 71   :         : _Data()

	mov	rax, QWORD PTR this$[rbp]
	add	rax, 8
	mov	rdi, rax
	xor	eax, eax
	mov	ecx, 16
	rep stosb

; 73   :         __std_exception_copy(&_Other._Data, &_Data);

	mov	rax, QWORD PTR this$[rbp]
	add	rax, 8
	mov	rcx, QWORD PTR _Other$[rbp]
	add	rcx, 8
	mov	rdx, rax
	call	__std_exception_copy

; 74   :     }

	mov	rax, QWORD PTR this$[rbp]
	lea	rsp, QWORD PTR [rbp+200]
	pop	rdi
	pop	rbp
	ret	0
??0exception@std@@QEAA@AEBV01@@Z ENDP			; std::exception::exception
_TEXT	ENDS
; Function compile flags: /Odtp /RTCsu /ZI
; File C:\Program Files\Microsoft Visual Studio\2022\Community\VC\Tools\MSVC\14.31.31103\include\vcruntime_exception.h
;	COMDAT ??0exception@std@@QEAA@QEBDH@Z
_TEXT	SEGMENT
this$ = 224
_Message$ = 232
__formal$ = 240
??0exception@std@@QEAA@QEBDH@Z PROC			; std::exception::exception, COMDAT

; 66   :     {

$LN3:
	mov	DWORD PTR [rsp+24], r8d
	mov	QWORD PTR [rsp+16], rdx
	mov	QWORD PTR [rsp+8], rcx
	push	rbp
	push	rdi
	sub	rsp, 232				; 000000e8H
	lea	rbp, QWORD PTR [rsp+32]
	lea	rcx, OFFSET FLAT:__50B6FA41_vcruntime_exception@h
	call	__CheckForDebuggerJustMyCode
	mov	rax, QWORD PTR this$[rbp]
	lea	rcx, OFFSET FLAT:??_7exception@std@@6B@
	mov	QWORD PTR [rax], rcx

; 65   :         : _Data()

	mov	rax, QWORD PTR this$[rbp]
	add	rax, 8
	mov	rdi, rax
	xor	eax, eax
	mov	ecx, 16
	rep stosb

; 67   :         _Data._What = _Message;

	mov	rax, QWORD PTR this$[rbp]
	mov	rcx, QWORD PTR _Message$[rbp]
	mov	QWORD PTR [rax+8], rcx

; 68   :     }

	mov	rax, QWORD PTR this$[rbp]
	lea	rsp, QWORD PTR [rbp+200]
	pop	rdi
	pop	rbp
	ret	0
??0exception@std@@QEAA@QEBDH@Z ENDP			; std::exception::exception
_TEXT	ENDS
; Function compile flags: /Odtp /RTCsu /ZI
; File C:\Program Files\Microsoft Visual Studio\2022\Community\VC\Tools\MSVC\14.31.31103\include\limits
;	COMDAT ?max@?$numeric_limits@_J@std@@SA_JXZ
_TEXT	SEGMENT
?max@?$numeric_limits@_J@std@@SA_JXZ PROC		; std::numeric_limits<__int64>::max, COMDAT

; 641  :     _NODISCARD static constexpr long long(max)() noexcept {

$LN3:
	push	rbp
	push	rdi
	sub	rsp, 232				; 000000e8H
	lea	rbp, QWORD PTR [rsp+32]
	lea	rcx, OFFSET FLAT:__BCB146BE_limits
	call	__CheckForDebuggerJustMyCode

; 642  :         return LLONG_MAX;

	mov	rax, 9223372036854775807		; 7fffffffffffffffH

; 643  :     }

	lea	rsp, QWORD PTR [rbp+200]
	pop	rdi
	pop	rbp
	ret	0
?max@?$numeric_limits@_J@std@@SA_JXZ ENDP		; std::numeric_limits<__int64>::max
_TEXT	ENDS
; Function compile flags: /Odtp /RTCsu /ZI
; File C:\Program Files\Microsoft Visual Studio\2022\Community\VC\Tools\MSVC\14.31.31103\include\xtr1common
;	COMDAT ?is_constant_evaluated@std@@YA_NXZ
_TEXT	SEGMENT
?is_constant_evaluated@std@@YA_NXZ PROC			; std::is_constant_evaluated, COMDAT

; 169  : _NODISCARD constexpr bool is_constant_evaluated() noexcept {

$LN3:
	push	rbp
	push	rdi
	sub	rsp, 232				; 000000e8H
	lea	rbp, QWORD PTR [rsp+32]
	lea	rcx, OFFSET FLAT:__0A37AC5C_xtr1common
	call	__CheckForDebuggerJustMyCode

; 170  :     return __builtin_is_constant_evaluated();

	xor	al, al

; 171  : }

	lea	rsp, QWORD PTR [rbp+200]
	pop	rdi
	pop	rbp
	ret	0
?is_constant_evaluated@std@@YA_NXZ ENDP			; std::is_constant_evaluated
_TEXT	ENDS
; Function compile flags: /Odtp /RTCsu /ZI
; File C:\Program Files\Microsoft Visual Studio\2022\Community\VC\Tools\MSVC\14.31.31103\include\vcruntime_new.h
;	COMDAT ??2@YAPEAX_KPEAX@Z
_TEXT	SEGMENT
_Size$ = 224
_Where$ = 232
??2@YAPEAX_KPEAX@Z PROC					; operator new, COMDAT

; 167  :     {

$LN3:
	mov	QWORD PTR [rsp+16], rdx
	mov	QWORD PTR [rsp+8], rcx
	push	rbp
	push	rdi
	sub	rsp, 232				; 000000e8H
	lea	rbp, QWORD PTR [rsp+32]
	lea	rcx, OFFSET FLAT:__EDB62062_vcruntime_new@h
	call	__CheckForDebuggerJustMyCode

; 168  :         (void)_Size;
; 169  :         return _Where;

	mov	rax, QWORD PTR _Where$[rbp]

; 170  :     }

	lea	rsp, QWORD PTR [rbp+200]
	pop	rdi
	pop	rbp
	ret	0
??2@YAPEAX_KPEAX@Z ENDP					; operator new
_TEXT	ENDS
; Function compile flags: /Odtp /RTCsu /ZI
; File C:\Dev\C++\Vector\Vector.cpp
;	COMDAT ?__empty_global_delete@@YAXPEAX_KW4align_val_t@std@@@Z
_TEXT	SEGMENT
__formal$ = 224
__formal$ = 232
__formal$ = 240
?__empty_global_delete@@YAXPEAX_KW4align_val_t@std@@@Z PROC ; __empty_global_delete, COMDAT

$LN3:
	mov	QWORD PTR [rsp+24], r8
	mov	QWORD PTR [rsp+16], rdx
	mov	QWORD PTR [rsp+8], rcx
	push	rbp
	push	rdi
	sub	rsp, 232				; 000000e8H
	lea	rbp, QWORD PTR [rsp+32]
	lea	rcx, OFFSET FLAT:__4B95E802_Vector@cpp
	call	__CheckForDebuggerJustMyCode
	lea	rsp, QWORD PTR [rbp+200]
	pop	rdi
	pop	rbp
	ret	0
?__empty_global_delete@@YAXPEAX_KW4align_val_t@std@@@Z ENDP ; __empty_global_delete
_TEXT	ENDS
; Function compile flags: /Odtp /RTCsu /ZI
; File C:\Dev\C++\Vector\Vector.cpp
;	COMDAT ?__empty_global_delete@@YAXPEAXW4align_val_t@std@@@Z
_TEXT	SEGMENT
__formal$ = 224
__formal$ = 232
?__empty_global_delete@@YAXPEAXW4align_val_t@std@@@Z PROC ; __empty_global_delete, COMDAT

$LN3:
	mov	QWORD PTR [rsp+16], rdx
	mov	QWORD PTR [rsp+8], rcx
	push	rbp
	push	rdi
	sub	rsp, 232				; 000000e8H
	lea	rbp, QWORD PTR [rsp+32]
	lea	rcx, OFFSET FLAT:__4B95E802_Vector@cpp
	call	__CheckForDebuggerJustMyCode
	lea	rsp, QWORD PTR [rbp+200]
	pop	rdi
	pop	rbp
	ret	0
?__empty_global_delete@@YAXPEAXW4align_val_t@std@@@Z ENDP ; __empty_global_delete
_TEXT	ENDS
; Function compile flags: /Odtp /RTCsu /ZI
; File C:\Dev\C++\Vector\Vector.cpp
;	COMDAT ?__empty_global_delete@@YAXPEAX_K@Z
_TEXT	SEGMENT
__formal$ = 224
__formal$ = 232
?__empty_global_delete@@YAXPEAX_K@Z PROC		; __empty_global_delete, COMDAT

$LN3:
	mov	QWORD PTR [rsp+16], rdx
	mov	QWORD PTR [rsp+8], rcx
	push	rbp
	push	rdi
	sub	rsp, 232				; 000000e8H
	lea	rbp, QWORD PTR [rsp+32]
	lea	rcx, OFFSET FLAT:__4B95E802_Vector@cpp
	call	__CheckForDebuggerJustMyCode
	lea	rsp, QWORD PTR [rbp+200]
	pop	rdi
	pop	rbp
	ret	0
?__empty_global_delete@@YAXPEAX_K@Z ENDP		; __empty_global_delete
_TEXT	ENDS
; Function compile flags: /Odtp /RTCsu /ZI
; File C:\Dev\C++\Vector\Vector.cpp
;	COMDAT ?__empty_global_delete@@YAXPEAX@Z
_TEXT	SEGMENT
__formal$ = 224
?__empty_global_delete@@YAXPEAX@Z PROC			; __empty_global_delete, COMDAT

$LN3:
	mov	QWORD PTR [rsp+8], rcx
	push	rbp
	push	rdi
	sub	rsp, 232				; 000000e8H
	lea	rbp, QWORD PTR [rsp+32]
	lea	rcx, OFFSET FLAT:__4B95E802_Vector@cpp
	call	__CheckForDebuggerJustMyCode
	lea	rsp, QWORD PTR [rbp+200]
	pop	rdi
	pop	rbp
	ret	0
?__empty_global_delete@@YAXPEAX@Z ENDP			; __empty_global_delete
_TEXT	ENDS
END
